
boiler.elf:     file format elf32-avr

Sections:
Idx Name          Size      VMA       LMA       File off  Algn
  0 .data         00000000  00800100  00800100  0000739c  2**0
                  ALLOC, LOAD, DATA
  1 .text         000000fe  00000000  00000000  00000154  2**1
                  CONTENTS, ALLOC, LOAD, READONLY, CODE
  2 .bss          00000024  00800100  00800100  00007396  2**0
                  ALLOC
  3 .eeprom       00000006  00810000  00810000  00007396  2**0
                  CONTENTS, ALLOC, LOAD, DATA
  4 .comment      0000002f  00000000  00000000  0000739c  2**0
                  CONTENTS, READONLY
  5 .stack.descriptors.hdr 000001dc  00000000  00000000  000073cb  2**0
                  CONTENTS, READONLY
  6 .debug_aranges 00000210  00000000  00000000  000075a8  2**3
                  CONTENTS, READONLY, DEBUGGING
  7 .debug_info   00003ba4  00000000  00000000  000077b8  2**0
                  CONTENTS, READONLY, DEBUGGING
  8 .debug_abbrev 00000a2b  00000000  00000000  0000b35c  2**0
                  CONTENTS, READONLY, DEBUGGING
  9 .debug_line   00002883  00000000  00000000  0000bd87  2**0
                  CONTENTS, READONLY, DEBUGGING
 10 .debug_frame  00000790  00000000  00000000  0000e60c  2**2
                  CONTENTS, READONLY, DEBUGGING
 11 .debug_str    000002c7  00000000  00000000  0000ed9c  2**0
                  CONTENTS, READONLY, DEBUGGING
 12 .debug_loc    000017fb  00000000  00000000  0000f063  2**0
                  CONTENTS, READONLY, DEBUGGING
 13 .debug_ranges 000001d8  00000000  00000000  0001085e  2**0
                  CONTENTS, READONLY, DEBUGGING
 14 .text         00000004  0000722c  0000722c  00007380  2**1
                  CONTENTS, ALLOC, LOAD, READONLY, CODE
 15 .note.gnu.avr.deviceinfo 0000003c  00000000  00000000  00010a38  2**2
                  CONTENTS, READONLY, DEBUGGING
 16 .text.WriteCom 0000002c  00006dbc  00006dbc  00006f10  2**1
                  CONTENTS, ALLOC, LOAD, READONLY, CODE
 17 .text.WriteData 0000002c  00006de8  00006de8  00006f3c  2**1
                  CONTENTS, ALLOC, LOAD, READONLY, CODE
 18 .text.WriteXY 00000022  00006f8a  00006f8a  000070de  2**1
                  CONTENTS, ALLOC, LOAD, READONLY, CODE
 19 .text.init_lcd 0000002e  00006d60  00006d60  00006eb4  2**1
                  CONTENTS, ALLOC, LOAD, READONLY, CODE
 20 .text.gotoxy  0000002c  00006e14  00006e14  00006f68  2**1
                  CONTENTS, ALLOC, LOAD, READONLY, CODE
 21 .text.msg     0000010a  00005064  00005064  000051b8  2**1
                  CONTENTS, ALLOC, LOAD, READONLY, CODE
 22 .text.link    0000005c  00006516  00006516  0000666a  2**1
                  CONTENTS, ALLOC, LOAD, READONLY, CODE
 23 .progmemx.data 00000240  0000041e  0000041e  00000572  2**0
                  CONTENTS, ALLOC, LOAD, READONLY, PROGMEMX
 24 .text.ErrorInit.2940 00000042  000068ac  000068ac  00006a00  2**1
                  CONTENTS, ALLOC, LOAD, READONLY, CODE
 25 .text.clear   00000032  00006c6a  00006c6a  00006dbe  2**1
                  CONTENTS, ALLOC, LOAD, READONLY, CODE
 26 .text.clearInit 00000032  00006c9c  00006c9c  00006df0  2**1
                  CONTENTS, ALLOC, LOAD, READONLY, CODE
 27 .text.map     00000082  00005f5c  00005f5c  000060b0  2**1
                  CONTENTS, ALLOC, LOAD, READONLY, CODE
 28 .text.ADC_Init 00000008  0000720a  0000720a  0000735e  2**1
                  CONTENTS, ALLOC, LOAD, READONLY, CODE
 29 .text.SendAirTemp 0000009e  00005b2a  00005b2a  00005c7e  2**1
                  CONTENTS, ALLOC, LOAD, READONLY, CODE
 30 .text.SendWaterTemp 0000043a  00003788  00003788  000038dc  2**1
                  CONTENTS, ALLOC, LOAD, READONLY, CODE
 31 .text.Cursor1 0000006c  0000629a  0000629a  000063ee  2**1
                  CONTENTS, ALLOC, LOAD, READONLY, CODE
 32 .text.Cursor2 0000006c  00006306  00006306  0000645a  2**1
                  CONTENTS, ALLOC, LOAD, READONLY, CODE
 33 .text.Window1 000007c4  00002fc4  00002fc4  00003118  2**1
                  CONTENTS, ALLOC, LOAD, READONLY, CODE
 34 .text.cursor2_1 00000072  000060d6  000060d6  0000622a  2**1
                  CONTENTS, ALLOC, LOAD, READONLY, CODE
 35 .text.cursor2_2 00000072  00006148  00006148  0000629c  2**1
                  CONTENTS, ALLOC, LOAD, READONLY, CODE
 36 .text.Window2_1 0000018a  000045b2  000045b2  00004706  2**1
                  CONTENTS, ALLOC, LOAD, READONLY, CODE
 37 .text.Window2_1_WaterLoad 00000054  000065c8  000065c8  0000671c  2**1
                  CONTENTS, ALLOC, LOAD, READONLY, CODE
 38 .text.Start   000001b2  00004400  00004400  00004554  2**1
                  CONTENTS, ALLOC, LOAD, READONLY, CODE
 39 .text.Reverse_time 0000009c  00005c66  00005c66  00005dba  2**1
                  CONTENTS, ALLOC, LOAD, READONLY, CODE
 40 .text.Check_box1 0000004c  000066b8  000066b8  0000680c  2**1
                  CONTENTS, ALLOC, LOAD, READONLY, CODE
 41 .text.Check_box2 0000004c  00006704  00006704  00006858  2**1
                  CONTENTS, ALLOC, LOAD, READONLY, CODE
 42 .text.E1      0000001e  0000700e  0000700e  00007162  2**1
                  CONTENTS, ALLOC, LOAD, READONLY, CODE
 43 .text.E2      00000036  00006a18  00006a18  00006b6c  2**1
                  CONTENTS, ALLOC, LOAD, READONLY, CODE
 44 .text.E3      00000036  00006a4e  00006a4e  00006ba2  2**1
                  CONTENTS, ALLOC, LOAD, READONLY, CODE
 45 .text.E4      00000036  00006a84  00006a84  00006bd8  2**1
                  CONTENTS, ALLOC, LOAD, READONLY, CODE
 46 .text.E5      00000036  00006aba  00006aba  00006c0e  2**1
                  CONTENTS, ALLOC, LOAD, READONLY, CODE
 47 .text.E6      00000036  00006af0  00006af0  00006c44  2**1
                  CONTENTS, ALLOC, LOAD, READONLY, CODE
 48 .text.E7      00000036  00006b26  00006b26  00006c7a  2**1
                  CONTENTS, ALLOC, LOAD, READONLY, CODE
 49 .text.E8      00000036  00006b5c  00006b5c  00006cb0  2**1
                  CONTENTS, ALLOC, LOAD, READONLY, CODE
 50 .text.E9      00000036  00006b92  00006b92  00006ce6  2**1
                  CONTENTS, ALLOC, LOAD, READONLY, CODE
 51 .text.E10     00000036  00006bc8  00006bc8  00006d1c  2**1
                  CONTENTS, ALLOC, LOAD, READONLY, CODE
 52 .text.E11     00000036  00006bfe  00006bfe  00006d52  2**1
                  CONTENTS, ALLOC, LOAD, READONLY, CODE
 53 .text.fun     0000007e  00005fde  00005fde  00006132  2**1
                  CONTENTS, ALLOC, LOAD, READONLY, CODE
 54 .text.__vector_16 0000015c  00004a2c  00004a2c  00004b80  2**1
                  CONTENTS, ALLOC, LOAD, READONLY, CODE
 55 .text.SUART_Init 00000038  000069a8  000069a8  00006afc  2**1
                  CONTENTS, ALLOC, LOAD, READONLY, CODE
 56 .text.SUART_FlushInBuf 0000000a  000071ec  000071ec  00007340  2**1
                  CONTENTS, ALLOC, LOAD, READONLY, CODE
 57 .text.SUART_PutChar 0000002c  00006e40  00006e40  00006f94  2**1
                  CONTENTS, ALLOC, LOAD, READONLY, CODE
 58 .text.SUART_PutStr 0000002c  00006e6c  00006e6c  00006fc0  2**1
                  CONTENTS, ALLOC, LOAD, READONLY, CODE
 59 .text.CursorLan1 00000072  000061ba  000061ba  0000630e  2**1
                  CONTENTS, ALLOC, LOAD, READONLY, CODE
 60 .text.CursorLan2 0000009c  00005d02  00005d02  00005e56  2**1
                  CONTENTS, ALLOC, LOAD, READONLY, CODE
 61 .text.CursorLan3 0000009c  00005d9e  00005d9e  00005ef2  2**1
                  CONTENTS, ALLOC, LOAD, READONLY, CODE
 62 .text.WindowLan 0000006e  0000622c  0000622c  00006380  2**1
                  CONTENTS, ALLOC, LOAD, READONLY, CODE
 63 .text.__vector_12 000000ba  00005738  00005738  0000588c  2**1
                  CONTENTS, ALLOC, LOAD, READONLY, CODE
 64 .text.WorkStop 00000056  00006572  00006572  000066c6  2**1
                  CONTENTS, ALLOC, LOAD, READONLY, CODE
 65 .text.main    00001886  00000682  00000682  000007d6  2**1
                  CONTENTS, ALLOC, LOAD, READONLY, CODE
 66 .bss.internal_rx_buffer.2846 00000002  0080013b  0080013b  00007396  2**0
                  ALLOC
 67 .bss.bufkey   00000007  0080012c  0080012c  00007396  2**0
                  ALLOC
 68 .bss.Slave    00000002  0080013d  0080013d  00007396  2**0
                  ALLOC
 69 .bss.Master   00000002  0080013f  0080013f  00007396  2**0
                  ALLOC
 70 .bss.Flag_Temp 00000002  00800141  00800141  00007396  2**0
                  ALLOC
 71 .bss.Flag_Clapan_Test 00000002  00800143  00800143  00007396  2**0
                  ALLOC
 72 .bss.Flag_Clapan 00000002  00800145  00800145  00007396  2**0
                  ALLOC
 73 .bss.Flag_Fire_Test 00000002  00800147  00800147  00007396  2**0
                  ALLOC
 74 .bss.Flag_Fire 00000002  00800149  00800149  00007396  2**0
                  ALLOC
 75 .bss.Flag_E1  00000002  0080014b  0080014b  00007396  2**0
                  ALLOC
 76 .bss.Lan      00000002  0080014d  0080014d  00007396  2**0
                  ALLOC
 77 .data.cursor_lan 00000002  0080014f  0000723a  0000738e  2**0
                  CONTENTS, ALLOC, LOAD, DATA
 78 .data.cursor  00000002  00800151  0000723c  00007390  2**0
                  CONTENTS, ALLOC, LOAD, DATA
 79 .data.window  00000002  00800153  0000723e  00007392  2**0
                  CONTENTS, ALLOC, LOAD, DATA
 80 .bss.UK_303   00000002  00800155  00800155  00007396  2**0
                  ALLOC
 81 .bss.UK_203   00000002  00800157  00800157  00007396  2**0
                  ALLOC
 82 .bss.UK_103   00000002  00800159  00800159  00007396  2**0
                  ALLOC
 83 .bss.Slave_time 00000002  0080015b  0080015b  00007396  2**0
                  ALLOC
 84 .data.Time    00000002  0080015d  00007240  00007394  2**0
                  CONTENTS, ALLOC, LOAD, DATA
 85 .bss.Work     00000002  0080015f  0080015f  00007396  2**0
                  ALLOC
 86 .bss.internal_tx_buffer 00000002  00800161  00800161  00007396  2**0
                  ALLOC
 87 .bss.bits_left_in_tx 00000001  00800167  00800167  00007396  2**0
                  ALLOC
 88 .bss.timer_tx_ctr 00000001  00800168  00800168  00007396  2**0
                  ALLOC
 89 .bss.flag_tx_busy 00000001  00800169  00800169  00007396  2**0
                  ALLOC
 90 .bss.bits_left_in_rx 00000001  0080016a  0080016a  00007396  2**0
                  ALLOC
 91 .bss.timer_rx_ctr 00000001  0080016b  0080016b  00007396  2**0
                  ALLOC
 92 .bss.rx_mask  00000001  0080016c  0080016c  00007396  2**0
                  ALLOC
 93 .bss.flag_rx_off 00000001  0080016d  0080016d  00007396  2**0
                  ALLOC
 94 .bss.flag_rx_waiting_for_stop_bit 00000001  0080016e  0080016e  00007396  2**0
                  ALLOC
 95 .bss.flag_rx_ready 00000001  0080016f  0080016f  00007396  2**0
                  ALLOC
 96 .bss.qout     00000001  00800170  00800170  00007396  2**0
                  ALLOC
 97 .bss.qin      00000001  00800171  00800171  00007396  2**0
                  ALLOC
 98 .bss.inbuf    00000008  00800124  00800124  00007396  2**0
                  ALLOC
 99 .bss.Water_Load 00000002  00800163  00800163  00007396  2**0
                  ALLOC
100 .bss.Water_Load_Lcd 00000002  00800165  00800165  00007396  2**0
                  ALLOC
101 .bss.Air_temp 00000004  00800133  00800133  00007396  2**0
                  ALLOC
102 .bss.Water_temp 00000004  00800137  00800137  00007396  2**0
                  ALLOC
103 .progmemx.data.sym 00000320  000000fe  000000fe  00000252  2**0
                  CONTENTS, ALLOC, LOAD, READONLY, PROGMEMX
104 .text         0000000a  000071f6  000071f6  0000734a  2**1
                  CONTENTS, ALLOC, LOAD, READONLY, CODE
105 .text         00000008  00007212  00007212  00007366  2**1
                  CONTENTS, ALLOC, LOAD, READONLY, CODE
106 .text         000000de  0000516e  0000516e  000052c2  2**1
                  CONTENTS, ALLOC, LOAD, READONLY, CODE
107 .text         0000007a  0000605c  0000605c  000061b0  2**1
                  CONTENTS, ALLOC, LOAD, READONLY, CODE
108 .text         00000048  00006750  00006750  000068a4  2**1
                  CONTENTS, ALLOC, LOAD, READONLY, CODE
109 .text         0000000c  000071c8  000071c8  0000731c  2**1
                  CONTENTS, ALLOC, LOAD, READONLY, CODE
110 .text         00000006  0000721a  0000721a  0000736e  2**1
                  CONTENTS, ALLOC, LOAD, READONLY, CODE
111 .text         0000000e  0000719e  0000719e  000072f2  2**1
                  CONTENTS, ALLOC, LOAD, READONLY, CODE
112 .text         0000000e  000071ac  000071ac  00007300  2**1
                  CONTENTS, ALLOC, LOAD, READONLY, CODE
113 .text         00000022  00006fac  00006fac  00007100  2**1
                  CONTENTS, ALLOC, LOAD, READONLY, CODE
114 .text         00000044  00006824  00006824  00006978  2**1
                  CONTENTS, ALLOC, LOAD, READONLY, CODE
115 .text         0000000e  000071ba  000071ba  0000730e  2**1
                  CONTENTS, ALLOC, LOAD, READONLY, CODE
116 .text         0000000a  00007200  00007200  00007354  2**1
                  CONTENTS, ALLOC, LOAD, READONLY, CODE
117 .text.libgcc.mul 00000020  00006fce  00006fce  00007122  2**1
                  CONTENTS, ALLOC, LOAD, READONLY, CODE
118 .text.libgcc.div 00000028  00006ec4  00006ec4  00007018  2**1
                  CONTENTS, ALLOC, LOAD, READONLY, CODE
119 .text.libgcc.div 0000002e  00006d8e  00006d8e  00006ee2  2**1
                  CONTENTS, ALLOC, LOAD, READONLY, CODE
120 .text.libgcc.div 00000010  0000717e  0000717e  000072d2  2**1
                  CONTENTS, ALLOC, LOAD, READONLY, CODE
121 .text.libgcc.mul 00000016  000070e6  000070e6  0000723a  2**1
                  CONTENTS, ALLOC, LOAD, READONLY, CODE
122 .text.libgcc  0000001a  00007082  00007082  000071d6  2**1
                  CONTENTS, ALLOC, LOAD, READONLY, CODE
123 .text.libgcc.div 00000028  00006eec  00006eec  00007040  2**1
                  CONTENTS, ALLOC, LOAD, READONLY, CODE
124 .text.libgcc.div 00000044  00006868  00006868  000069bc  2**1
                  CONTENTS, ALLOC, LOAD, READONLY, CODE
125 .text.libgcc.mul 0000001e  0000702c  0000702c  00007180  2**1
                  CONTENTS, ALLOC, LOAD, READONLY, CODE
126 .text.__dummy_fini 00000002  00007234  00007234  00007388  2**1
                  CONTENTS, ALLOC, LOAD, READONLY, CODE
127 .text.__dummy_funcs_on_exit 00000002  00007236  00007236  0000738a  2**1
                  CONTENTS, ALLOC, LOAD, READONLY, CODE
128 .text.__dummy_simulator_exit 00000002  00007238  00007238  0000738c  2**1
                  CONTENTS, ALLOC, LOAD, READONLY, CODE
129 .text.exit    00000016  000070fc  000070fc  00007250  2**1
                  CONTENTS, ALLOC, LOAD, READONLY, CODE
130 .text.__wrap_sprintf 00000026  00006f64  00006f64  000070b8  2**1
                  CONTENTS, ALLOC, LOAD, READONLY, CODE
131 .text.__wrap_sscanf 00000046  00006798  00006798  000068ec  2**1
                  CONTENTS, ALLOC, LOAD, READONLY, CODE
132 .progmemx.data 00000007  00000674  00000674  000007c8  2**0
                  CONTENTS, ALLOC, LOAD, READONLY, PROGMEMX
133 .text.__fmt_s 000000ca  0000566e  0000566e  000057c2  2**1
                  CONTENTS, ALLOC, LOAD, READONLY, CODE
134 .text.__out   00000068  00006446  00006446  0000659a  2**1
                  CONTENTS, ALLOC, LOAD, READONLY, CODE
135 .text.__pad   0000010e  00004f56  00004f56  000050aa  2**1
                  CONTENTS, ALLOC, LOAD, READONLY, CODE
136 .text.__dummy_fmt4 00000006  00007220  00007220  00007374  2**1
                  CONTENTS, ALLOC, LOAD, READONLY, CODE
137 .text.__fmt_state 0000009e  00005bc8  00005bc8  00005d1c  2**1
                  CONTENTS, ALLOC, LOAD, READONLY, CODE
138 .progmemx.data 00000006  0000067b  0000067b  000007cf  2**0
                  CONTENTS, ALLOC, LOAD, READONLY, PROGMEMX
139 .text.__printf_core 00000822  000027a2  000027a2  000028f6  2**1
                  CONTENTS, ALLOC, LOAD, READONLY, CODE
140 .progmemx.data.state_table 00000016  0000065e  0000065e  000007b2  2**0
                  CONTENTS, ALLOC, LOAD, READONLY, PROGMEMX
141 .text.__read_int 000000d4  000053fa  000053fa  0000554e  2**1
                  CONTENTS, ALLOC, LOAD, READONLY, CODE
142 .text.__scan_d 0000004e  0000661c  0000661c  00006770  2**1
                  CONTENTS, ALLOC, LOAD, READONLY, CODE
143 .text.__scan_i 000001e6  0000421a  0000421a  0000436e  2**1
                  CONTENTS, ALLOC, LOAD, READONLY, CODE
144 .text.__scan_o 000000d6  00005324  00005324  00005478  2**1
                  CONTENTS, ALLOC, LOAD, READONLY, CODE
145 .text.__scan_s 000000cc  000055a2  000055a2  000056f6  2**1
                  CONTENTS, ALLOC, LOAD, READONLY, CODE
146 .text.__scan_u 0000004e  0000666a  0000666a  000067be  2**1
                  CONTENTS, ALLOC, LOAD, READONLY, CODE
147 .text.__scan_x 0000014e  00004b88  00004b88  00004cdc  2**1
                  CONTENTS, ALLOC, LOAD, READONLY, CODE
148 .text.__skipws 00000046  000067de  000067de  00006932  2**1
                  CONTENTS, ALLOC, LOAD, READONLY, CODE
149 .text.__consumews 00000068  000064ae  000064ae  00006602  2**1
                  CONTENTS, ALLOC, LOAD, READONLY, CODE
150 .text.__dummy_scan 00000006  00007226  00007226  0000737a  2**1
                  CONTENTS, ALLOC, LOAD, READONLY, CODE
151 .text.__scanf_core 0000089a  00001f08  00001f08  0000205c  2**1
                  CONTENTS, ALLOC, LOAD, READONLY, CODE
152 .text.fgetc   000000a2  00005946  00005946  00005a9a  2**1
                  CONTENTS, ALLOC, LOAD, READONLY, CODE
153 .text.ungetc  0000003e  0000692e  0000692e  00006a82  2**1
                  CONTENTS, ALLOC, LOAD, READONLY, CODE
154 .text.fputc   00000092  00005e3a  00005e3a  00005f8e  2**1
                  CONTENTS, ALLOC, LOAD, READONLY, CODE
155 .text.__fmt_d 0000017e  0000473c  0000473c  00004890  2**1
                  CONTENTS, ALLOC, LOAD, READONLY, CODE
156 .text.__fmt_o 000000d4  000054ce  000054ce  00005622  2**1
                  CONTENTS, ALLOC, LOAD, READONLY, CODE
157 .text.__cvt_u 0000014a  00004cd6  00004cd6  00004e2a  2**1
                  CONTENTS, ALLOC, LOAD, READONLY, CODE
158 .text.__fmt_u 000000b0  000057f2  000057f2  00005946  2**1
                  CONTENTS, ALLOC, LOAD, READONLY, CODE
159 .text.__fmt_x 00000280  00003f9a  00003f9a  000040ee  2**1
                  CONTENTS, ALLOC, LOAD, READONLY, CODE
160 .text.__pop_float 00000040  000068ee  000068ee  00006a42  2**1
                  CONTENTS, ALLOC, LOAD, READONLY, CODE
161 .text.__pop_int 00000172  000048ba  000048ba  00004a0e  2**1
                  CONTENTS, ALLOC, LOAD, READONLY, CODE
162 .text.__pop_ptr 000000d8  0000524c  0000524c  000053a0  2**1
                  CONTENTS, ALLOC, LOAD, READONLY, CODE
163 .text.__push_float 0000006a  00006372  00006372  000064c6  2**1
                  CONTENTS, ALLOC, LOAD, READONLY, CODE
164 .text.__push_int 00000136  00004e20  00004e20  00004f74  2**1
                  CONTENTS, ALLOC, LOAD, READONLY, CODE
165 .text.atoi    00000090  00005ecc  00005ecc  00006020  2**1
                  CONTENTS, ALLOC, LOAD, READONLY, CODE
166 .text.strtoll 0000000c  000071d4  000071d4  00007328  2**1
                  CONTENTS, ALLOC, LOAD, READONLY, CODE
167 .text.strtoull 0000000c  000071e0  000071e0  00007334  2**1
                  CONTENTS, ALLOC, LOAD, READONLY, CODE
168 .text.memset  00000012  00007112  00007112  00007266  2**1
                  CONTENTS, ALLOC, LOAD, READONLY, CODE
169 .text.strlen  0000002c  00006e98  00006e98  00006fec  2**1
                  CONTENTS, ALLOC, LOAD, READONLY, CODE
170 .text.strncmp 0000006a  000063dc  000063dc  00006530  2**1
                  CONTENTS, ALLOC, LOAD, READONLY, CODE
171 .text.strcat  00000032  00006cce  00006cce  00006e22  2**1
                  CONTENTS, ALLOC, LOAD, READONLY, CODE
172 .text.isxdigit 00000028  00006f14  00006f14  00007068  2**1
                  CONTENTS, ALLOC, LOAD, READONLY, CODE
173 .text.tolower 00000010  0000718e  0000718e  000072e2  2**1
                  CONTENTS, ALLOC, LOAD, READONLY, CODE
174 .text.toupper 00000012  00007124  00007124  00007278  2**1
                  CONTENTS, ALLOC, LOAD, READONLY, CODE
175 .text._Exit   00000004  00007230  00007230  00007384  2**1
                  CONTENTS, ALLOC, LOAD, READONLY, CODE
176 .text.__vfscanf 00000030  00006d00  00006d00  00006e54  2**1
                  CONTENTS, ALLOC, LOAD, READONLY, CODE
177 .text.__vsprintf 00000018  000070b6  000070b6  0000720a  2**1
                  CONTENTS, ALLOC, LOAD, READONLY, CODE
178 .text.__vsnprintf 000000a4  000058a2  000058a2  000059f6  2**1
                  CONTENTS, ALLOC, LOAD, READONLY, CODE
179 .text.__strtoxll 000003d8  00003bc2  00003bc2  00003d16  2**1
                  CONTENTS, ALLOC, LOAD, READONLY, CODE
180 .text.strcpy  0000001c  0000704a  0000704a  0000719e  2**1
                  CONTENTS, ALLOC, LOAD, READONLY, CODE
181 .text.isalnum 00000028  00006f3c  00006f3c  00007090  2**1
                  CONTENTS, ALLOC, LOAD, READONLY, CODE
182 .text.__vfprintf 00000030  00006d30  00006d30  00006e84  2**1
                  CONTENTS, ALLOC, LOAD, READONLY, CODE
183 .text.avrlibc 00000012  00007136  00007136  0000728a  2**1
                  CONTENTS, ALLOC, LOAD, READONLY, CODE
184 .text.avrlibc 0000001a  0000709c  0000709c  000071f0  2**1
                  CONTENTS, ALLOC, LOAD, READONLY, CODE
185 .text.libgcc.mul 000000a0  00005a8a  00005a8a  00005bde  2**1
                  CONTENTS, ALLOC, LOAD, READONLY, CODE
186 .text.libgcc.mul 00000012  00007148  00007148  0000729c  2**1
                  CONTENTS, ALLOC, LOAD, READONLY, CODE
187 .text.libgcc.div 0000001c  00007066  00007066  000071ba  2**1
                  CONTENTS, ALLOC, LOAD, READONLY, CODE
188 .text.libgcc.div 000000a2  000059e8  000059e8  00005b3c  2**1
                  CONTENTS, ALLOC, LOAD, READONLY, CODE
189 .text.libgcc  00000020  00006fee  00006fee  00007142  2**1
                  CONTENTS, ALLOC, LOAD, READONLY, CODE
190 .text.libgcc.prologue 00000038  000069e0  000069e0  00006b34  2**1
                  CONTENTS, ALLOC, LOAD, READONLY, CODE
191 .text.libgcc.prologue 00000036  00006c34  00006c34  00006d88  2**1
                  CONTENTS, ALLOC, LOAD, READONLY, CODE
192 .text.libgcc.builtins 0000003c  0000696c  0000696c  00006ac0  2**1
                  CONTENTS, ALLOC, LOAD, READONLY, CODE
193 .text.libgcc  00000012  0000715a  0000715a  000072ae  2**1
                  CONTENTS, ALLOC, LOAD, READONLY, CODE
194 .text.libgcc  00000012  0000716c  0000716c  000072c0  2**1
                  CONTENTS, ALLOC, LOAD, READONLY, CODE
195 .text.libgcc  00000018  000070ce  000070ce  00007222  2**1
                  CONTENTS, ALLOC, LOAD, READONLY, CODE

Disassembly of section .text:

00000000 <__vectors>:
   0:	0c 94 55 00 	jmp	0xaa	; 0xaa <__ctors_end>
   4:	0c 94 16 39 	jmp	0x722c	; 0x722c <__bad_interrupt>
   8:	0c 94 16 39 	jmp	0x722c	; 0x722c <__bad_interrupt>
   c:	0c 94 16 39 	jmp	0x722c	; 0x722c <__bad_interrupt>
  10:	0c 94 16 39 	jmp	0x722c	; 0x722c <__bad_interrupt>
  14:	0c 94 16 39 	jmp	0x722c	; 0x722c <__bad_interrupt>
  18:	0c 94 16 39 	jmp	0x722c	; 0x722c <__bad_interrupt>
  1c:	0c 94 16 39 	jmp	0x722c	; 0x722c <__bad_interrupt>
  20:	0c 94 16 39 	jmp	0x722c	; 0x722c <__bad_interrupt>
  24:	0c 94 16 39 	jmp	0x722c	; 0x722c <__bad_interrupt>
  28:	0c 94 16 39 	jmp	0x722c	; 0x722c <__bad_interrupt>
  2c:	0c 94 16 39 	jmp	0x722c	; 0x722c <__bad_interrupt>
  30:	0c 94 9c 2b 	jmp	0x5738	; 0x5738 <__vector_12>
  34:	0c 94 16 39 	jmp	0x722c	; 0x722c <__bad_interrupt>
  38:	0c 94 16 39 	jmp	0x722c	; 0x722c <__bad_interrupt>
  3c:	0c 94 16 39 	jmp	0x722c	; 0x722c <__bad_interrupt>
  40:	0c 94 16 25 	jmp	0x4a2c	; 0x4a2c <__vector_16>
  44:	0c 94 16 39 	jmp	0x722c	; 0x722c <__bad_interrupt>
  48:	0c 94 16 39 	jmp	0x722c	; 0x722c <__bad_interrupt>
  4c:	0c 94 16 39 	jmp	0x722c	; 0x722c <__bad_interrupt>
  50:	0c 94 16 39 	jmp	0x722c	; 0x722c <__bad_interrupt>
  54:	0c 94 16 39 	jmp	0x722c	; 0x722c <__bad_interrupt>
  58:	0c 94 16 39 	jmp	0x722c	; 0x722c <__bad_interrupt>
  5c:	0c 94 16 39 	jmp	0x722c	; 0x722c <__bad_interrupt>
  60:	0c 94 16 39 	jmp	0x722c	; 0x722c <__bad_interrupt>
  64:	0c 94 16 39 	jmp	0x722c	; 0x722c <__bad_interrupt>
  68:	0c 94 16 39 	jmp	0x722c	; 0x722c <__bad_interrupt>
  6c:	0c 94 16 39 	jmp	0x722c	; 0x722c <__bad_interrupt>
  70:	0c 94 16 39 	jmp	0x722c	; 0x722c <__bad_interrupt>
  74:	0c 94 16 39 	jmp	0x722c	; 0x722c <__bad_interrupt>
  78:	0c 94 16 39 	jmp	0x722c	; 0x722c <__bad_interrupt>
  7c:	0c 94 16 39 	jmp	0x722c	; 0x722c <__bad_interrupt>
  80:	0c 94 16 39 	jmp	0x722c	; 0x722c <__bad_interrupt>
  84:	0c 94 16 39 	jmp	0x722c	; 0x722c <__bad_interrupt>
  88:	0c 94 16 39 	jmp	0x722c	; 0x722c <__bad_interrupt>

0000008c <.dinit>:
  8c:	01 00       	.word	0x0001	; ????
  8e:	01 4f       	sbci	r16, 0xF1	; 241
  90:	80 01       	movw	r16, r0
  92:	4f 01       	movw	r8, r30
  94:	55 00       	.word	0x0055	; ????
  96:	72 3a       	cpi	r23, 0xA2	; 162
  98:	01 55       	subi	r16, 0x51	; 81
  9a:	01 5d       	subi	r16, 0xD1	; 209
  9c:	80 01       	movw	r16, r0
  9e:	5d 01       	movw	r10, r26
  a0:	5f 00       	.word	0x005f	; ????
  a2:	72 40       	sbci	r23, 0x02	; 2
  a4:	01 5f       	subi	r16, 0xF1	; 241
  a6:	01 72       	andi	r16, 0x21	; 33
  a8:	80 00       	.word	0x0080	; ????

000000aa <__ctors_end>:
  aa:	11 24       	eor	r1, r1
  ac:	1f be       	out	0x3f, r1	; 63
  ae:	cf ef       	ldi	r28, 0xFF	; 255
  b0:	d0 e1       	ldi	r29, 0x10	; 16
  b2:	de bf       	out	0x3e, r29	; 62
  b4:	cd bf       	out	0x3d, r28	; 61

000000b6 <__do_copy_data>:
  b6:	ec e8       	ldi	r30, 0x8C	; 140
  b8:	f0 e0       	ldi	r31, 0x00	; 0
  ba:	40 e0       	ldi	r20, 0x00	; 0
  bc:	17 c0       	rjmp	.+46     	; 0xec <__do_clear_bss+0x8>
  be:	b5 91       	lpm	r27, Z+
  c0:	a5 91       	lpm	r26, Z+
  c2:	35 91       	lpm	r19, Z+
  c4:	25 91       	lpm	r18, Z+
  c6:	05 91       	lpm	r16, Z+
  c8:	07 fd       	sbrc	r16, 7
  ca:	0c c0       	rjmp	.+24     	; 0xe4 <__do_clear_bss>
  cc:	95 91       	lpm	r25, Z+
  ce:	85 91       	lpm	r24, Z+
  d0:	ef 01       	movw	r28, r30
  d2:	f9 2f       	mov	r31, r25
  d4:	e8 2f       	mov	r30, r24
  d6:	05 90       	lpm	r0, Z+
  d8:	0d 92       	st	X+, r0
  da:	a2 17       	cp	r26, r18
  dc:	b3 07       	cpc	r27, r19
  de:	d9 f7       	brne	.-10     	; 0xd6 <__do_copy_data+0x20>
  e0:	fe 01       	movw	r30, r28
  e2:	04 c0       	rjmp	.+8      	; 0xec <__do_clear_bss+0x8>

000000e4 <__do_clear_bss>:
  e4:	1d 92       	st	X+, r1
  e6:	a2 17       	cp	r26, r18
  e8:	b3 07       	cpc	r27, r19
  ea:	e1 f7       	brne	.-8      	; 0xe4 <__do_clear_bss>
  ec:	e9 3a       	cpi	r30, 0xA9	; 169
  ee:	f4 07       	cpc	r31, r20
  f0:	31 f7       	brne	.-52     	; 0xbe <__do_copy_data+0x8>
  f2:	0e 94 41 03 	call	0x682	; 0x682 <main>
  f6:	0c 94 7e 38 	jmp	0x70fc	; 0x70fc <exit>

000000fa <_exit>:
  fa:	f8 94       	cli

000000fc <__stop_program>:
  fc:	ff cf       	rjmp	.-2      	; 0xfc <__stop_program>

Disassembly of section .text:

0000722c <__bad_interrupt>:
    722c:	0c 94 00 00 	jmp	0	; 0x0 <__TEXT_REGION_ORIGIN__>

Disassembly of section .text.WriteCom:

00006dbc <WriteCom>:
   flag_rx_off = FALSE;
}

void SUART_TurnRxOff(void)
{
   flag_rx_off = TRUE;
    6dbc:	95 b3       	in	r25, 0x15	; 21
    6dbe:	69 2b       	or	r22, r25
    6dc0:	65 bb       	out	0x15, r22	; 21
    6dc2:	95 b3       	in	r25, 0x15	; 21
    6dc4:	97 7f       	andi	r25, 0xF7	; 247
    6dc6:	95 bb       	out	0x15, r25	; 21
    6dc8:	95 b3       	in	r25, 0x15	; 21
    6dca:	9b 7f       	andi	r25, 0xFB	; 251
    6dcc:	95 bb       	out	0x15, r25	; 21
    6dce:	8b bb       	out	0x1b, r24	; 27
    6dd0:	85 b3       	in	r24, 0x15	; 21
    6dd2:	82 60       	ori	r24, 0x02	; 2
    6dd4:	85 bb       	out	0x15, r24	; 21
    6dd6:	85 b3       	in	r24, 0x15	; 21
    6dd8:	8d 7f       	andi	r24, 0xFD	; 253
    6dda:	85 bb       	out	0x15, r24	; 21
    6ddc:	00 c0       	rjmp	.+0      	; 0x6dde <WriteCom+0x22>
    6dde:	00 c0       	rjmp	.+0      	; 0x6de0 <WriteCom+0x24>
    6de0:	85 b3       	in	r24, 0x15	; 21
    6de2:	8f 7c       	andi	r24, 0xCF	; 207
    6de4:	85 bb       	out	0x15, r24	; 21
    6de6:	08 95       	ret

Disassembly of section .text.WriteData:

00006de8 <WriteData>:
    6de8:	95 b3       	in	r25, 0x15	; 21
    6dea:	69 2b       	or	r22, r25
    6dec:	65 bb       	out	0x15, r22	; 21
    6dee:	95 b3       	in	r25, 0x15	; 21
    6df0:	98 60       	ori	r25, 0x08	; 8
    6df2:	95 bb       	out	0x15, r25	; 21
    6df4:	95 b3       	in	r25, 0x15	; 21
    6df6:	9b 7f       	andi	r25, 0xFB	; 251
    6df8:	95 bb       	out	0x15, r25	; 21
    6dfa:	8b bb       	out	0x1b, r24	; 27
    6dfc:	85 b3       	in	r24, 0x15	; 21
    6dfe:	82 60       	ori	r24, 0x02	; 2
    6e00:	85 bb       	out	0x15, r24	; 21
    6e02:	85 b3       	in	r24, 0x15	; 21
    6e04:	8d 7f       	andi	r24, 0xFD	; 253
    6e06:	85 bb       	out	0x15, r24	; 21
    6e08:	00 c0       	rjmp	.+0      	; 0x6e0a <WriteData+0x22>
    6e0a:	00 c0       	rjmp	.+0      	; 0x6e0c <WriteData+0x24>
    6e0c:	85 b3       	in	r24, 0x15	; 21
    6e0e:	8f 7c       	andi	r24, 0xCF	; 207
    6e10:	85 bb       	out	0x15, r24	; 21
    6e12:	08 95       	ret

Disassembly of section .text.WriteXY:

00006f8a <WriteXY>:
 ClrBit(LCD_COM,(LCD_CS1+LCD_CS2));
 //SetBit(LCD_COM,LCD_E);
}

void WriteXY(/*unsigned*/ char x, /*unsigned */char y,const /* unsigned*/  char CS)
{ 
    6f8a:	cf 93       	push	r28
    6f8c:	df 93       	push	r29
    6f8e:	d8 2f       	mov	r29, r24
    6f90:	86 2f       	mov	r24, r22
    6f92:	c4 2f       	mov	r28, r20
 WriteCom(0xb8+y,CS);
    6f94:	64 2f       	mov	r22, r20
    6f96:	88 54       	subi	r24, 0x48	; 72
    6f98:	0e 94 de 36 	call	0x6dbc	; 0x6dbc <WriteCom>
 WriteCom(0x40+x,CS);
    6f9c:	6c 2f       	mov	r22, r28
    6f9e:	80 e4       	ldi	r24, 0x40	; 64
    6fa0:	8d 0f       	add	r24, r29
    6fa2:	0e 94 de 36 	call	0x6dbc	; 0x6dbc <WriteCom>
}
    6fa6:	df 91       	pop	r29
    6fa8:	cf 91       	pop	r28
    6faa:	08 95       	ret

Disassembly of section .text.init_lcd:

00006d60 <init_lcd>:
    6d60:	85 b3       	in	r24, 0x15	; 21
    6d62:	81 60       	ori	r24, 0x01	; 1
    6d64:	85 bb       	out	0x15, r24	; 21
    6d66:	81 ee       	ldi	r24, 0xE1	; 225
    6d68:	94 e0       	ldi	r25, 0x04	; 4
    6d6a:	01 97       	sbiw	r24, 0x01	; 1
    6d6c:	f1 f7       	brne	.-4      	; 0x6d6a <init_lcd+0xa>
    6d6e:	00 c0       	rjmp	.+0      	; 0x6d70 <init_lcd+0x10>
    6d70:	00 00       	nop
    6d72:	40 e3       	ldi	r20, 0x30	; 48
    6d74:	60 e0       	ldi	r22, 0x00	; 0
    6d76:	80 e0       	ldi	r24, 0x00	; 0
    6d78:	0e 94 c5 37 	call	0x6f8a	; 0x6f8a <WriteXY>
    6d7c:	60 e3       	ldi	r22, 0x30	; 48
    6d7e:	80 ec       	ldi	r24, 0xC0	; 192
    6d80:	0e 94 de 36 	call	0x6dbc	; 0x6dbc <WriteCom>
    6d84:	60 e3       	ldi	r22, 0x30	; 48
    6d86:	8f e3       	ldi	r24, 0x3F	; 63
    6d88:	0e 94 de 36 	call	0x6dbc	; 0x6dbc <WriteCom>
    6d8c:	08 95       	ret

Disassembly of section .text.gotoxy:

00006e14 <gotoxy>:
    6e14:	cf 93       	push	r28
    6e16:	8a 30       	cpi	r24, 0x0A	; 10
    6e18:	18 f4       	brcc	.+6      	; 0x6e20 <gotoxy+0xc>
    6e1a:	20 e0       	ldi	r18, 0x00	; 0
    6e1c:	c0 e2       	ldi	r28, 0x20	; 32
    6e1e:	02 c0       	rjmp	.+4      	; 0x6e24 <gotoxy+0x10>
    6e20:	20 e4       	ldi	r18, 0x40	; 64
    6e22:	c0 e1       	ldi	r28, 0x10	; 16
    6e24:	98 2f       	mov	r25, r24
    6e26:	99 0f       	add	r25, r25
    6e28:	89 0f       	add	r24, r25
    6e2a:	98 2f       	mov	r25, r24
    6e2c:	99 0f       	add	r25, r25
    6e2e:	89 2f       	mov	r24, r25
    6e30:	82 1b       	sub	r24, r18
    6e32:	4c 2f       	mov	r20, r28
    6e34:	8c 5f       	subi	r24, 0xFC	; 252
    6e36:	0e 94 c5 37 	call	0x6f8a	; 0x6f8a <WriteXY>
    6e3a:	8c 2f       	mov	r24, r28
    6e3c:	cf 91       	pop	r28
    6e3e:	08 95       	ret

Disassembly of section .text.msg:

00005064 <msg>:
    5064:	0f 93       	push	r16
    5066:	1f 93       	push	r17
    5068:	cf 93       	push	r28
    506a:	df 93       	push	r29
    506c:	c8 2f       	mov	r28, r24
    506e:	16 2f       	mov	r17, r22
    5070:	60 91 1f 01 	lds	r22, 0x011F	; 0x80011f <texty>
    5074:	80 91 10 01 	lds	r24, 0x0110	; 0x800110 <textx>
    5078:	0e 94 0a 37 	call	0x6e14	; 0x6e14 <gotoxy>
    507c:	08 2f       	mov	r16, r24
    507e:	c0 39       	cpi	r28, 0x90	; 144
    5080:	10 f4       	brcc	.+4      	; 0x5086 <msg+0x22>
    5082:	80 e2       	ldi	r24, 0x20	; 32
    5084:	01 c0       	rjmp	.+2      	; 0x5088 <msg+0x24>
    5086:	80 e6       	ldi	r24, 0x60	; 96
    5088:	d0 e0       	ldi	r29, 0x00	; 0
    508a:	c8 1b       	sub	r28, r24
    508c:	d1 09       	sbc	r29, r1
    508e:	ce 01       	movw	r24, r28
    5090:	88 0f       	add	r24, r24
    5092:	99 1f       	adc	r25, r25
    5094:	88 0f       	add	r24, r24
    5096:	99 1f       	adc	r25, r25
    5098:	c8 0f       	add	r28, r24
    509a:	d9 1f       	adc	r29, r25
    509c:	ce 01       	movw	r24, r28
    509e:	0d 2e       	mov	r0, r29
    50a0:	00 0c       	add	r0, r0
    50a2:	aa 0b       	sbc	r26, r26
    50a4:	82 50       	subi	r24, 0x02	; 2
    50a6:	9f 4f       	sbci	r25, 0xFF	; 255
    50a8:	af 4f       	sbci	r26, 0xFF	; 255
    50aa:	fc 01       	movw	r30, r24
    50ac:	84 91       	lpm	r24, Z
    50ae:	a7 fd       	sbrc	r26, 7
    50b0:	80 81       	ld	r24, Z
    50b2:	60 2f       	mov	r22, r16
    50b4:	81 27       	eor	r24, r17
    50b6:	0e 94 f4 36 	call	0x6de8	; 0x6de8 <WriteData>
    50ba:	ce 01       	movw	r24, r28
    50bc:	01 96       	adiw	r24, 0x01	; 1
    50be:	09 2e       	mov	r0, r25
    50c0:	00 0c       	add	r0, r0
    50c2:	aa 0b       	sbc	r26, r26
    50c4:	82 50       	subi	r24, 0x02	; 2
    50c6:	9f 4f       	sbci	r25, 0xFF	; 255
    50c8:	af 4f       	sbci	r26, 0xFF	; 255
    50ca:	fc 01       	movw	r30, r24
    50cc:	84 91       	lpm	r24, Z
    50ce:	a7 fd       	sbrc	r26, 7
    50d0:	80 81       	ld	r24, Z
    50d2:	60 2f       	mov	r22, r16
    50d4:	81 27       	eor	r24, r17
    50d6:	0e 94 f4 36 	call	0x6de8	; 0x6de8 <WriteData>
    50da:	ce 01       	movw	r24, r28
    50dc:	02 96       	adiw	r24, 0x02	; 2
    50de:	09 2e       	mov	r0, r25
    50e0:	00 0c       	add	r0, r0
    50e2:	aa 0b       	sbc	r26, r26
    50e4:	82 50       	subi	r24, 0x02	; 2
    50e6:	9f 4f       	sbci	r25, 0xFF	; 255
    50e8:	af 4f       	sbci	r26, 0xFF	; 255
    50ea:	fc 01       	movw	r30, r24
    50ec:	84 91       	lpm	r24, Z
    50ee:	a7 fd       	sbrc	r26, 7
    50f0:	80 81       	ld	r24, Z
    50f2:	60 2f       	mov	r22, r16
    50f4:	81 27       	eor	r24, r17
    50f6:	0e 94 f4 36 	call	0x6de8	; 0x6de8 <WriteData>
    50fa:	ce 01       	movw	r24, r28
    50fc:	03 96       	adiw	r24, 0x03	; 3
    50fe:	09 2e       	mov	r0, r25
    5100:	00 0c       	add	r0, r0
    5102:	aa 0b       	sbc	r26, r26
    5104:	82 50       	subi	r24, 0x02	; 2
    5106:	9f 4f       	sbci	r25, 0xFF	; 255
    5108:	af 4f       	sbci	r26, 0xFF	; 255
    510a:	fc 01       	movw	r30, r24
    510c:	84 91       	lpm	r24, Z
    510e:	a7 fd       	sbrc	r26, 7
    5110:	80 81       	ld	r24, Z
    5112:	60 2f       	mov	r22, r16
    5114:	81 27       	eor	r24, r17
    5116:	0e 94 f4 36 	call	0x6de8	; 0x6de8 <WriteData>
    511a:	ce 01       	movw	r24, r28
    511c:	04 96       	adiw	r24, 0x04	; 4
    511e:	09 2e       	mov	r0, r25
    5120:	00 0c       	add	r0, r0
    5122:	aa 0b       	sbc	r26, r26
    5124:	82 50       	subi	r24, 0x02	; 2
    5126:	9f 4f       	sbci	r25, 0xFF	; 255
    5128:	af 4f       	sbci	r26, 0xFF	; 255
    512a:	fc 01       	movw	r30, r24
    512c:	84 91       	lpm	r24, Z
    512e:	a7 fd       	sbrc	r26, 7
    5130:	80 81       	ld	r24, Z
    5132:	60 2f       	mov	r22, r16
    5134:	81 27       	eor	r24, r17
    5136:	0e 94 f4 36 	call	0x6de8	; 0x6de8 <WriteData>
    513a:	60 2f       	mov	r22, r16
    513c:	81 2f       	mov	r24, r17
    513e:	0e 94 f4 36 	call	0x6de8	; 0x6de8 <WriteData>
    5142:	80 91 10 01 	lds	r24, 0x0110	; 0x800110 <textx>
    5146:	83 31       	cpi	r24, 0x13	; 19
    5148:	20 f4       	brcc	.+8      	; 0x5152 <msg+0xee>
    514a:	8f 5f       	subi	r24, 0xFF	; 255
    514c:	80 93 10 01 	sts	0x0110, r24	; 0x800110 <textx>
    5150:	09 c0       	rjmp	.+18     	; 0x5164 <msg+0x100>
    5152:	10 92 10 01 	sts	0x0110, r1	; 0x800110 <textx>
    5156:	80 91 1f 01 	lds	r24, 0x011F	; 0x80011f <texty>
    515a:	88 30       	cpi	r24, 0x08	; 8
    515c:	18 f4       	brcc	.+6      	; 0x5164 <msg+0x100>
    515e:	8f 5f       	subi	r24, 0xFF	; 255
    5160:	80 93 1f 01 	sts	0x011F, r24	; 0x80011f <texty>
    5164:	df 91       	pop	r29
    5166:	cf 91       	pop	r28
    5168:	1f 91       	pop	r17
    516a:	0f 91       	pop	r16
    516c:	08 95       	ret

Disassembly of section .text.link:

00006516 <link>:
    6516:	cf 92       	push	r12
    6518:	df 92       	push	r13
    651a:	ef 92       	push	r14
    651c:	0f 93       	push	r16
    651e:	1f 93       	push	r17
    6520:	cf 93       	push	r28
    6522:	df 93       	push	r29
    6524:	6b 01       	movw	r12, r22
    6526:	e8 2e       	mov	r14, r24
    6528:	d4 2f       	mov	r29, r20
    652a:	c0 e0       	ldi	r28, 0x00	; 0
    652c:	0f c0       	rjmp	.+30     	; 0x654c <link+0x36>
    652e:	ae 2d       	mov	r26, r14
    6530:	c6 01       	movw	r24, r12
    6532:	80 0f       	add	r24, r16
    6534:	91 1f       	adc	r25, r17
    6536:	a1 1d       	adc	r26, r1
    6538:	17 fd       	sbrc	r17, 7
    653a:	aa 95       	dec	r26
    653c:	60 e0       	ldi	r22, 0x00	; 0
    653e:	fc 01       	movw	r30, r24
    6540:	84 91       	lpm	r24, Z
    6542:	a7 fd       	sbrc	r26, 7
    6544:	80 81       	ld	r24, Z
    6546:	0e 94 32 28 	call	0x5064	; 0x5064 <msg>
    654a:	cf 5f       	subi	r28, 0xFF	; 255
    654c:	cd 17       	cp	r28, r29
    654e:	48 f4       	brcc	.+18     	; 0x6562 <link+0x4c>
    6550:	0c 2f       	mov	r16, r28
    6552:	10 e0       	ldi	r17, 0x00	; 0
    6554:	8e 2d       	mov	r24, r14
    6556:	b6 01       	movw	r22, r12
    6558:	0e 94 4c 37 	call	0x6e98	; 0x6e98 <strlen>
    655c:	08 17       	cp	r16, r24
    655e:	19 07       	cpc	r17, r25
    6560:	30 f3       	brcs	.-52     	; 0x652e <link+0x18>
    6562:	df 91       	pop	r29
    6564:	cf 91       	pop	r28
    6566:	1f 91       	pop	r17
    6568:	0f 91       	pop	r16
    656a:	ef 90       	pop	r14
    656c:	df 90       	pop	r13
    656e:	cf 90       	pop	r12
    6570:	08 95       	ret

Disassembly of section .text.ErrorInit.2940:

000068ac <ErrorInit.2940>:
    68ac:	10 92 10 01 	sts	0x0110, r1	; 0x800110 <textx>
    68b0:	10 92 1f 01 	sts	0x011F, r1	; 0x80011f <texty>
    68b4:	47 e0       	ldi	r20, 0x07	; 7
    68b6:	6e e1       	ldi	r22, 0x1E	; 30
    68b8:	74 e0       	ldi	r23, 0x04	; 4
    68ba:	80 e0       	ldi	r24, 0x00	; 0
    68bc:	0e 94 8b 32 	call	0x6516	; 0x6516 <link>
    68c0:	10 92 10 01 	sts	0x0110, r1	; 0x800110 <textx>
    68c4:	82 e0       	ldi	r24, 0x02	; 2
    68c6:	80 93 1f 01 	sts	0x011F, r24	; 0x80011f <texty>
    68ca:	4e e0       	ldi	r20, 0x0E	; 14
    68cc:	66 e2       	ldi	r22, 0x26	; 38
    68ce:	74 e0       	ldi	r23, 0x04	; 4
    68d0:	80 e0       	ldi	r24, 0x00	; 0
    68d2:	0e 94 8b 32 	call	0x6516	; 0x6516 <link>
    68d6:	10 92 10 01 	sts	0x0110, r1	; 0x800110 <textx>
    68da:	83 e0       	ldi	r24, 0x03	; 3
    68dc:	80 93 1f 01 	sts	0x011F, r24	; 0x80011f <texty>
    68e0:	4d e0       	ldi	r20, 0x0D	; 13
    68e2:	65 e3       	ldi	r22, 0x35	; 53
    68e4:	74 e0       	ldi	r23, 0x04	; 4
    68e6:	80 e0       	ldi	r24, 0x00	; 0
    68e8:	0e 94 8b 32 	call	0x6516	; 0x6516 <link>
    68ec:	ff cf       	rjmp	.-2      	; 0x68ec <ErrorInit.2940+0x40>

Disassembly of section .text.clear:

00006c6a <clear>:
    6c6a:	cf 93       	push	r28
    6c6c:	df 93       	push	r29
    6c6e:	d0 e0       	ldi	r29, 0x00	; 0
    6c70:	10 c0       	rjmp	.+32     	; 0x6c92 <clear+0x28>
    6c72:	d0 93 10 01 	sts	0x0110, r29	; 0x800110 <textx>
    6c76:	c0 93 1f 01 	sts	0x011F, r28	; 0x80011f <texty>
    6c7a:	41 e0       	ldi	r20, 0x01	; 1
    6c7c:	63 e4       	ldi	r22, 0x43	; 67
    6c7e:	74 e0       	ldi	r23, 0x04	; 4
    6c80:	80 e0       	ldi	r24, 0x00	; 0
    6c82:	0e 94 8b 32 	call	0x6516	; 0x6516 <link>
    6c86:	cf 5f       	subi	r28, 0xFF	; 255
    6c88:	01 c0       	rjmp	.+2      	; 0x6c8c <clear+0x22>
    6c8a:	c1 e0       	ldi	r28, 0x01	; 1
    6c8c:	c8 30       	cpi	r28, 0x08	; 8
    6c8e:	88 f3       	brcs	.-30     	; 0x6c72 <clear+0x8>
    6c90:	df 5f       	subi	r29, 0xFF	; 255
    6c92:	d4 31       	cpi	r29, 0x14	; 20
    6c94:	d0 f3       	brcs	.-12     	; 0x6c8a <clear+0x20>
    6c96:	df 91       	pop	r29
    6c98:	cf 91       	pop	r28
    6c9a:	08 95       	ret

Disassembly of section .text.clearInit:

00006c9c <clearInit>:
    6c9c:	cf 93       	push	r28
    6c9e:	df 93       	push	r29
    6ca0:	d0 e0       	ldi	r29, 0x00	; 0
    6ca2:	10 c0       	rjmp	.+32     	; 0x6cc4 <clearInit+0x28>
    6ca4:	d0 93 10 01 	sts	0x0110, r29	; 0x800110 <textx>
    6ca8:	c0 93 1f 01 	sts	0x011F, r28	; 0x80011f <texty>
    6cac:	41 e0       	ldi	r20, 0x01	; 1
    6cae:	63 e4       	ldi	r22, 0x43	; 67
    6cb0:	74 e0       	ldi	r23, 0x04	; 4
    6cb2:	80 e0       	ldi	r24, 0x00	; 0
    6cb4:	0e 94 8b 32 	call	0x6516	; 0x6516 <link>
    6cb8:	cf 5f       	subi	r28, 0xFF	; 255
    6cba:	01 c0       	rjmp	.+2      	; 0x6cbe <clearInit+0x22>
    6cbc:	c0 e0       	ldi	r28, 0x00	; 0
    6cbe:	c8 30       	cpi	r28, 0x08	; 8
    6cc0:	88 f3       	brcs	.-30     	; 0x6ca4 <clearInit+0x8>
    6cc2:	df 5f       	subi	r29, 0xFF	; 255
    6cc4:	d4 31       	cpi	r29, 0x14	; 20
    6cc6:	d0 f3       	brcs	.-12     	; 0x6cbc <clearInit+0x20>
    6cc8:	df 91       	pop	r29
    6cca:	cf 91       	pop	r28
    6ccc:	08 95       	ret

Disassembly of section .text.map:

00005f5c <map>:
    5f5c:	4f 92       	push	r4
    5f5e:	5f 92       	push	r5
    5f60:	6f 92       	push	r6
    5f62:	7f 92       	push	r7
    5f64:	af 92       	push	r10
    5f66:	bf 92       	push	r11
    5f68:	cf 92       	push	r12
    5f6a:	df 92       	push	r13
    5f6c:	ef 92       	push	r14
    5f6e:	ff 92       	push	r15
    5f70:	0f 93       	push	r16
    5f72:	1f 93       	push	r17
    5f74:	cf 93       	push	r28
    5f76:	df 93       	push	r29
    5f78:	cd b7       	in	r28, 0x3d	; 61
    5f7a:	de b7       	in	r29, 0x3e	; 62
    5f7c:	29 01       	movw	r4, r18
    5f7e:	3a 01       	movw	r6, r20
    5f80:	9b 01       	movw	r18, r22
    5f82:	ac 01       	movw	r20, r24
    5f84:	24 19       	sub	r18, r4
    5f86:	35 09       	sbc	r19, r5
    5f88:	46 09       	sbc	r20, r6
    5f8a:	57 09       	sbc	r21, r7
    5f8c:	89 89       	ldd	r24, Y+17	; 0x11
    5f8e:	9a 89       	ldd	r25, Y+18	; 0x12
    5f90:	ab 89       	ldd	r26, Y+19	; 0x13
    5f92:	bc 89       	ldd	r27, Y+20	; 0x14
    5f94:	bc 01       	movw	r22, r24
    5f96:	cd 01       	movw	r24, r26
    5f98:	6a 19       	sub	r22, r10
    5f9a:	7b 09       	sbc	r23, r11
    5f9c:	8c 09       	sbc	r24, r12
    5f9e:	9d 09       	sbc	r25, r13
    5fa0:	0e 94 e7 37 	call	0x6fce	; 0x6fce <__mulsi3>
    5fa4:	a8 01       	movw	r20, r16
    5fa6:	97 01       	movw	r18, r14
    5fa8:	24 19       	sub	r18, r4
    5faa:	35 09       	sbc	r19, r5
    5fac:	46 09       	sbc	r20, r6
    5fae:	57 09       	sbc	r21, r7
    5fb0:	0e 94 c7 36 	call	0x6d8e	; 0x6d8e <__divmodsi4>
    5fb4:	c6 01       	movw	r24, r12
    5fb6:	b5 01       	movw	r22, r10
    5fb8:	62 0f       	add	r22, r18
    5fba:	73 1f       	adc	r23, r19
    5fbc:	84 1f       	adc	r24, r20
    5fbe:	95 1f       	adc	r25, r21
    5fc0:	df 91       	pop	r29
    5fc2:	cf 91       	pop	r28
    5fc4:	1f 91       	pop	r17
    5fc6:	0f 91       	pop	r16
    5fc8:	ff 90       	pop	r15
    5fca:	ef 90       	pop	r14
    5fcc:	df 90       	pop	r13
    5fce:	cf 90       	pop	r12
    5fd0:	bf 90       	pop	r11
    5fd2:	af 90       	pop	r10
    5fd4:	7f 90       	pop	r7
    5fd6:	6f 90       	pop	r6
    5fd8:	5f 90       	pop	r5
    5fda:	4f 90       	pop	r4
    5fdc:	08 95       	ret

Disassembly of section .text.ADC_Init:

0000720a <ADC_Init>:
 
 //------------------------------------------------------------------------------------------------------ 

 void ADC_Init(void)
 {
	 ADCSRA |= (1<<ADEN) | (1<<ADATE)    // Разрешение использования АЦП
    720a:	86 b1       	in	r24, 0x06	; 6
    720c:	87 6a       	ori	r24, 0xA7	; 167
    720e:	86 b9       	out	0x06, r24	; 6
    7210:	08 95       	ret

Disassembly of section .text.SendAirTemp:

00005b2a <SendAirTemp>:
    5b2a:	1f 93       	push	r17
    5b2c:	cf 93       	push	r28
    5b2e:	df 93       	push	r29
    5b30:	87 b1       	in	r24, 0x07	; 7
    5b32:	81 60       	ori	r24, 0x01	; 1
    5b34:	87 b9       	out	0x07, r24	; 7
    5b36:	86 b1       	in	r24, 0x06	; 6
    5b38:	80 64       	ori	r24, 0x40	; 64
    5b3a:	86 b9       	out	0x06, r24	; 6
    5b3c:	36 99       	sbic	0x06, 6	; 6
    5b3e:	fe cf       	rjmp	.-4      	; 0x5b3c <SendAirTemp+0x12>
    5b40:	84 b1       	in	r24, 0x04	; 4
    5b42:	95 b1       	in	r25, 0x05	; 5
    5b44:	6a e0       	ldi	r22, 0x0A	; 10
    5b46:	70 e0       	ldi	r23, 0x00	; 0
    5b48:	0e 94 62 37 	call	0x6ec4	; 0x6ec4 <__divmodhi4>
    5b4c:	63 50       	subi	r22, 0x03	; 3
    5b4e:	71 09       	sbc	r23, r1
    5b50:	70 93 18 01 	sts	0x0118, r23	; 0x800118 <AirTemp+0x1>
    5b54:	60 93 17 01 	sts	0x0117, r22	; 0x800117 <AirTemp>
    5b58:	11 e0       	ldi	r17, 0x01	; 1
    5b5a:	10 93 10 01 	sts	0x0110, r17	; 0x800110 <textx>
    5b5e:	10 92 1f 01 	sts	0x011F, r1	; 0x80011f <texty>
    5b62:	43 e0       	ldi	r20, 0x03	; 3
    5b64:	65 e4       	ldi	r22, 0x45	; 69
    5b66:	74 e0       	ldi	r23, 0x04	; 4
    5b68:	80 e0       	ldi	r24, 0x00	; 0
    5b6a:	0e 94 8b 32 	call	0x6516	; 0x6516 <link>
    5b6e:	80 91 18 01 	lds	r24, 0x0118	; 0x800118 <AirTemp+0x1>
    5b72:	8f 93       	push	r24
    5b74:	80 91 17 01 	lds	r24, 0x0117	; 0x800117 <AirTemp>
    5b78:	8f 93       	push	r24
    5b7a:	89 e4       	ldi	r24, 0x49	; 73
    5b7c:	94 e0       	ldi	r25, 0x04	; 4
    5b7e:	a0 e0       	ldi	r26, 0x00	; 0
    5b80:	af 93       	push	r26
    5b82:	9f 93       	push	r25
    5b84:	8f 93       	push	r24
    5b86:	c3 e3       	ldi	r28, 0x33	; 51
    5b88:	d1 e0       	ldi	r29, 0x01	; 1
    5b8a:	df 93       	push	r29
    5b8c:	cf 93       	push	r28
    5b8e:	0e 94 b2 37 	call	0x6f64	; 0x6f64 <_sprintf_cdnopuxX>
    5b92:	10 93 10 01 	sts	0x0110, r17	; 0x800110 <textx>
    5b96:	10 92 1f 01 	sts	0x011F, r1	; 0x80011f <texty>
    5b9a:	be 01       	movw	r22, r28
    5b9c:	80 e8       	ldi	r24, 0x80	; 128
    5b9e:	43 e0       	ldi	r20, 0x03	; 3
    5ba0:	0e 94 8b 32 	call	0x6516	; 0x6516 <link>
    5ba4:	87 b1       	in	r24, 0x07	; 7
    5ba6:	8e 7f       	andi	r24, 0xFE	; 254
    5ba8:	87 b9       	out	0x07, r24	; 7
    5baa:	86 b1       	in	r24, 0x06	; 6
    5bac:	8f 7b       	andi	r24, 0xBF	; 191
    5bae:	86 b9       	out	0x06, r24	; 6
    5bb0:	8d b7       	in	r24, 0x3d	; 61
    5bb2:	9e b7       	in	r25, 0x3e	; 62
    5bb4:	07 96       	adiw	r24, 0x07	; 7
    5bb6:	0f b6       	in	r0, 0x3f	; 63
    5bb8:	f8 94       	cli
    5bba:	9e bf       	out	0x3e, r25	; 62
    5bbc:	0f be       	out	0x3f, r0	; 63
    5bbe:	8d bf       	out	0x3d, r24	; 61
    5bc0:	df 91       	pop	r29
    5bc2:	cf 91       	pop	r28
    5bc4:	1f 91       	pop	r17
    5bc6:	08 95       	ret

Disassembly of section .text.SendWaterTemp:

00003788 <SendWaterTemp>:
    3788:	af 92       	push	r10
    378a:	bf 92       	push	r11
    378c:	cf 92       	push	r12
    378e:	df 92       	push	r13
    3790:	ef 92       	push	r14
    3792:	ff 92       	push	r15
    3794:	0f 93       	push	r16
    3796:	1f 93       	push	r17
    3798:	cf 93       	push	r28
    379a:	df 93       	push	r29
    379c:	87 b1       	in	r24, 0x07	; 7
    379e:	82 60       	ori	r24, 0x02	; 2
    37a0:	87 b9       	out	0x07, r24	; 7
    37a2:	86 b1       	in	r24, 0x06	; 6
    37a4:	80 64       	ori	r24, 0x40	; 64
    37a6:	86 b9       	out	0x06, r24	; 6
    37a8:	36 99       	sbic	0x06, 6	; 6
    37aa:	fe cf       	rjmp	.-4      	; 0x37a8 <SendWaterTemp+0x20>
    37ac:	c4 b1       	in	r28, 0x04	; 4
    37ae:	d5 b1       	in	r29, 0x05	; 5
    37b0:	d0 93 16 01 	sts	0x0116, r29	; 0x800116 <adc2+0x1>
    37b4:	c0 93 15 01 	sts	0x0115, r28	; 0x800115 <adc2>
    37b8:	ce 01       	movw	r24, r28
    37ba:	8d 58       	subi	r24, 0x8D	; 141
    37bc:	92 40       	sbci	r25, 0x02	; 2
    37be:	88 38       	cpi	r24, 0x88	; 136
    37c0:	91 05       	cpc	r25, r1
    37c2:	08 f5       	brcc	.+66     	; 0x3806 <SendWaterTemp+0x7e>
    37c4:	ce 01       	movw	r24, r28
    37c6:	a0 e0       	ldi	r26, 0x00	; 0
    37c8:	b0 e0       	ldi	r27, 0x00	; 0
    37ca:	1f 92       	push	r1
    37cc:	1f 92       	push	r1
    37ce:	1f 92       	push	r1
    37d0:	2a e0       	ldi	r18, 0x0A	; 10
    37d2:	2f 93       	push	r18
    37d4:	a1 2c       	mov	r10, r1
    37d6:	b1 2c       	mov	r11, r1
    37d8:	65 01       	movw	r12, r10
    37da:	1d e8       	ldi	r17, 0x8D	; 141
    37dc:	e1 2e       	mov	r14, r17
    37de:	12 e0       	ldi	r17, 0x02	; 2
    37e0:	f1 2e       	mov	r15, r17
    37e2:	00 e0       	ldi	r16, 0x00	; 0
    37e4:	10 e0       	ldi	r17, 0x00	; 0
    37e6:	24 e1       	ldi	r18, 0x14	; 20
    37e8:	33 e0       	ldi	r19, 0x03	; 3
    37ea:	40 e0       	ldi	r20, 0x00	; 0
    37ec:	50 e0       	ldi	r21, 0x00	; 0
    37ee:	bc 01       	movw	r22, r24
    37f0:	cd 01       	movw	r24, r26
    37f2:	0e 94 ae 2f 	call	0x5f5c	; 0x5f5c <map>
    37f6:	0f 90       	pop	r0
    37f8:	0f 90       	pop	r0
    37fa:	0f 90       	pop	r0
    37fc:	0f 90       	pop	r0
    37fe:	70 93 12 01 	sts	0x0112, r23	; 0x800112 <WaterTemp+0x1>
    3802:	60 93 11 01 	sts	0x0111, r22	; 0x800111 <WaterTemp>
    3806:	ce 01       	movw	r24, r28
    3808:	84 50       	subi	r24, 0x04	; 4
    380a:	92 40       	sbci	r25, 0x02	; 2
    380c:	89 38       	cpi	r24, 0x89	; 137
    380e:	91 05       	cpc	r25, r1
    3810:	28 f5       	brcc	.+74     	; 0x385c <SendWaterTemp+0xd4>
    3812:	ce 01       	movw	r24, r28
    3814:	a0 e0       	ldi	r26, 0x00	; 0
    3816:	b0 e0       	ldi	r27, 0x00	; 0
    3818:	1f 92       	push	r1
    381a:	1f 92       	push	r1
    381c:	1f 92       	push	r1
    381e:	24 e1       	ldi	r18, 0x14	; 20
    3820:	2f 93       	push	r18
    3822:	0f 2e       	mov	r0, r31
    3824:	fb e0       	ldi	r31, 0x0B	; 11
    3826:	af 2e       	mov	r10, r31
    3828:	b1 2c       	mov	r11, r1
    382a:	c1 2c       	mov	r12, r1
    382c:	d1 2c       	mov	r13, r1
    382e:	f0 2d       	mov	r31, r0
    3830:	14 e0       	ldi	r17, 0x04	; 4
    3832:	e1 2e       	mov	r14, r17
    3834:	12 e0       	ldi	r17, 0x02	; 2
    3836:	f1 2e       	mov	r15, r17
    3838:	00 e0       	ldi	r16, 0x00	; 0
    383a:	10 e0       	ldi	r17, 0x00	; 0
    383c:	2c e8       	ldi	r18, 0x8C	; 140
    383e:	32 e0       	ldi	r19, 0x02	; 2
    3840:	40 e0       	ldi	r20, 0x00	; 0
    3842:	50 e0       	ldi	r21, 0x00	; 0
    3844:	bc 01       	movw	r22, r24
    3846:	cd 01       	movw	r24, r26
    3848:	0e 94 ae 2f 	call	0x5f5c	; 0x5f5c <map>
    384c:	0f 90       	pop	r0
    384e:	0f 90       	pop	r0
    3850:	0f 90       	pop	r0
    3852:	0f 90       	pop	r0
    3854:	70 93 12 01 	sts	0x0112, r23	; 0x800112 <WaterTemp+0x1>
    3858:	60 93 11 01 	sts	0x0111, r22	; 0x800111 <WaterTemp>
    385c:	ce 01       	movw	r24, r28
    385e:	8e 5b       	subi	r24, 0xBE	; 190
    3860:	91 40       	sbci	r25, 0x01	; 1
    3862:	86 34       	cpi	r24, 0x46	; 70
    3864:	91 05       	cpc	r25, r1
    3866:	28 f5       	brcc	.+74     	; 0x38b2 <SendWaterTemp+0x12a>
    3868:	ce 01       	movw	r24, r28
    386a:	a0 e0       	ldi	r26, 0x00	; 0
    386c:	b0 e0       	ldi	r27, 0x00	; 0
    386e:	1f 92       	push	r1
    3870:	1f 92       	push	r1
    3872:	1f 92       	push	r1
    3874:	29 e1       	ldi	r18, 0x19	; 25
    3876:	2f 93       	push	r18
    3878:	0f 2e       	mov	r0, r31
    387a:	f5 e1       	ldi	r31, 0x15	; 21
    387c:	af 2e       	mov	r10, r31
    387e:	b1 2c       	mov	r11, r1
    3880:	c1 2c       	mov	r12, r1
    3882:	d1 2c       	mov	r13, r1
    3884:	f0 2d       	mov	r31, r0
    3886:	1e eb       	ldi	r17, 0xBE	; 190
    3888:	e1 2e       	mov	r14, r17
    388a:	ff 24       	eor	r15, r15
    388c:	f3 94       	inc	r15
    388e:	00 e0       	ldi	r16, 0x00	; 0
    3890:	10 e0       	ldi	r17, 0x00	; 0
    3892:	23 e0       	ldi	r18, 0x03	; 3
    3894:	32 e0       	ldi	r19, 0x02	; 2
    3896:	40 e0       	ldi	r20, 0x00	; 0
    3898:	50 e0       	ldi	r21, 0x00	; 0
    389a:	bc 01       	movw	r22, r24
    389c:	cd 01       	movw	r24, r26
    389e:	0e 94 ae 2f 	call	0x5f5c	; 0x5f5c <map>
    38a2:	0f 90       	pop	r0
    38a4:	0f 90       	pop	r0
    38a6:	0f 90       	pop	r0
    38a8:	0f 90       	pop	r0
    38aa:	70 93 12 01 	sts	0x0112, r23	; 0x800112 <WaterTemp+0x1>
    38ae:	60 93 11 01 	sts	0x0111, r22	; 0x800111 <WaterTemp>
    38b2:	ce 01       	movw	r24, r28
    38b4:	83 58       	subi	r24, 0x83	; 131
    38b6:	91 40       	sbci	r25, 0x01	; 1
    38b8:	cb 97       	sbiw	r24, 0x3b	; 59
    38ba:	28 f5       	brcc	.+74     	; 0x3906 <SendWaterTemp+0x17e>
    38bc:	ce 01       	movw	r24, r28
    38be:	a0 e0       	ldi	r26, 0x00	; 0
    38c0:	b0 e0       	ldi	r27, 0x00	; 0
    38c2:	1f 92       	push	r1
    38c4:	1f 92       	push	r1
    38c6:	1f 92       	push	r1
    38c8:	2e e1       	ldi	r18, 0x1E	; 30
    38ca:	2f 93       	push	r18
    38cc:	0f 2e       	mov	r0, r31
    38ce:	fa e1       	ldi	r31, 0x1A	; 26
    38d0:	af 2e       	mov	r10, r31
    38d2:	b1 2c       	mov	r11, r1
    38d4:	c1 2c       	mov	r12, r1
    38d6:	d1 2c       	mov	r13, r1
    38d8:	f0 2d       	mov	r31, r0
    38da:	13 e8       	ldi	r17, 0x83	; 131
    38dc:	e1 2e       	mov	r14, r17
    38de:	ff 24       	eor	r15, r15
    38e0:	f3 94       	inc	r15
    38e2:	00 e0       	ldi	r16, 0x00	; 0
    38e4:	10 e0       	ldi	r17, 0x00	; 0
    38e6:	2d eb       	ldi	r18, 0xBD	; 189
    38e8:	31 e0       	ldi	r19, 0x01	; 1
    38ea:	40 e0       	ldi	r20, 0x00	; 0
    38ec:	50 e0       	ldi	r21, 0x00	; 0
    38ee:	bc 01       	movw	r22, r24
    38f0:	cd 01       	movw	r24, r26
    38f2:	0e 94 ae 2f 	call	0x5f5c	; 0x5f5c <map>
    38f6:	0f 90       	pop	r0
    38f8:	0f 90       	pop	r0
    38fa:	0f 90       	pop	r0
    38fc:	0f 90       	pop	r0
    38fe:	70 93 12 01 	sts	0x0112, r23	; 0x800112 <WaterTemp+0x1>
    3902:	60 93 11 01 	sts	0x0111, r22	; 0x800111 <WaterTemp>
    3906:	ce 01       	movw	r24, r28
    3908:	8c 51       	subi	r24, 0x1C	; 28
    390a:	91 40       	sbci	r25, 0x01	; 1
    390c:	87 36       	cpi	r24, 0x67	; 103
    390e:	91 05       	cpc	r25, r1
    3910:	28 f5       	brcc	.+74     	; 0x395c <SendWaterTemp+0x1d4>
    3912:	ce 01       	movw	r24, r28
    3914:	a0 e0       	ldi	r26, 0x00	; 0
    3916:	b0 e0       	ldi	r27, 0x00	; 0
    3918:	1f 92       	push	r1
    391a:	1f 92       	push	r1
    391c:	1f 92       	push	r1
    391e:	28 e2       	ldi	r18, 0x28	; 40
    3920:	2f 93       	push	r18
    3922:	0f 2e       	mov	r0, r31
    3924:	ff e1       	ldi	r31, 0x1F	; 31
    3926:	af 2e       	mov	r10, r31
    3928:	b1 2c       	mov	r11, r1
    392a:	c1 2c       	mov	r12, r1
    392c:	d1 2c       	mov	r13, r1
    392e:	f0 2d       	mov	r31, r0
    3930:	1c e1       	ldi	r17, 0x1C	; 28
    3932:	e1 2e       	mov	r14, r17
    3934:	ff 24       	eor	r15, r15
    3936:	f3 94       	inc	r15
    3938:	00 e0       	ldi	r16, 0x00	; 0
    393a:	10 e0       	ldi	r17, 0x00	; 0
    393c:	22 e8       	ldi	r18, 0x82	; 130
    393e:	31 e0       	ldi	r19, 0x01	; 1
    3940:	40 e0       	ldi	r20, 0x00	; 0
    3942:	50 e0       	ldi	r21, 0x00	; 0
    3944:	bc 01       	movw	r22, r24
    3946:	cd 01       	movw	r24, r26
    3948:	0e 94 ae 2f 	call	0x5f5c	; 0x5f5c <map>
    394c:	0f 90       	pop	r0
    394e:	0f 90       	pop	r0
    3950:	0f 90       	pop	r0
    3952:	0f 90       	pop	r0
    3954:	70 93 12 01 	sts	0x0112, r23	; 0x800112 <WaterTemp+0x1>
    3958:	60 93 11 01 	sts	0x0111, r22	; 0x800111 <WaterTemp>
    395c:	ce 01       	movw	r24, r28
    395e:	8c 5c       	subi	r24, 0xCC	; 204
    3960:	91 09       	sbc	r25, r1
    3962:	80 35       	cpi	r24, 0x50	; 80
    3964:	91 05       	cpc	r25, r1
    3966:	20 f5       	brcc	.+72     	; 0x39b0 <SendWaterTemp+0x228>
    3968:	ce 01       	movw	r24, r28
    396a:	a0 e0       	ldi	r26, 0x00	; 0
    396c:	b0 e0       	ldi	r27, 0x00	; 0
    396e:	1f 92       	push	r1
    3970:	1f 92       	push	r1
    3972:	1f 92       	push	r1
    3974:	22 e3       	ldi	r18, 0x32	; 50
    3976:	2f 93       	push	r18
    3978:	0f 2e       	mov	r0, r31
    397a:	f9 e2       	ldi	r31, 0x29	; 41
    397c:	af 2e       	mov	r10, r31
    397e:	b1 2c       	mov	r11, r1
    3980:	c1 2c       	mov	r12, r1
    3982:	d1 2c       	mov	r13, r1
    3984:	f0 2d       	mov	r31, r0
    3986:	1c ec       	ldi	r17, 0xCC	; 204
    3988:	e1 2e       	mov	r14, r17
    398a:	f1 2c       	mov	r15, r1
    398c:	00 e0       	ldi	r16, 0x00	; 0
    398e:	10 e0       	ldi	r17, 0x00	; 0
    3990:	2b e1       	ldi	r18, 0x1B	; 27
    3992:	31 e0       	ldi	r19, 0x01	; 1
    3994:	40 e0       	ldi	r20, 0x00	; 0
    3996:	50 e0       	ldi	r21, 0x00	; 0
    3998:	bc 01       	movw	r22, r24
    399a:	cd 01       	movw	r24, r26
    399c:	0e 94 ae 2f 	call	0x5f5c	; 0x5f5c <map>
    39a0:	0f 90       	pop	r0
    39a2:	0f 90       	pop	r0
    39a4:	0f 90       	pop	r0
    39a6:	0f 90       	pop	r0
    39a8:	70 93 12 01 	sts	0x0112, r23	; 0x800112 <WaterTemp+0x1>
    39ac:	60 93 11 01 	sts	0x0111, r22	; 0x800111 <WaterTemp>
    39b0:	ce 01       	movw	r24, r28
    39b2:	85 59       	subi	r24, 0x95	; 149
    39b4:	91 09       	sbc	r25, r1
    39b6:	c7 97       	sbiw	r24, 0x37	; 55
    39b8:	20 f5       	brcc	.+72     	; 0x3a02 <SendWaterTemp+0x27a>
    39ba:	ce 01       	movw	r24, r28
    39bc:	a0 e0       	ldi	r26, 0x00	; 0
    39be:	b0 e0       	ldi	r27, 0x00	; 0
    39c0:	1f 92       	push	r1
    39c2:	1f 92       	push	r1
    39c4:	1f 92       	push	r1
    39c6:	2c e3       	ldi	r18, 0x3C	; 60
    39c8:	2f 93       	push	r18
    39ca:	0f 2e       	mov	r0, r31
    39cc:	f3 e3       	ldi	r31, 0x33	; 51
    39ce:	af 2e       	mov	r10, r31
    39d0:	b1 2c       	mov	r11, r1
    39d2:	c1 2c       	mov	r12, r1
    39d4:	d1 2c       	mov	r13, r1
    39d6:	f0 2d       	mov	r31, r0
    39d8:	15 e9       	ldi	r17, 0x95	; 149
    39da:	e1 2e       	mov	r14, r17
    39dc:	f1 2c       	mov	r15, r1
    39de:	00 e0       	ldi	r16, 0x00	; 0
    39e0:	10 e0       	ldi	r17, 0x00	; 0
    39e2:	2b ec       	ldi	r18, 0xCB	; 203
    39e4:	30 e0       	ldi	r19, 0x00	; 0
    39e6:	40 e0       	ldi	r20, 0x00	; 0
    39e8:	50 e0       	ldi	r21, 0x00	; 0
    39ea:	bc 01       	movw	r22, r24
    39ec:	cd 01       	movw	r24, r26
    39ee:	0e 94 ae 2f 	call	0x5f5c	; 0x5f5c <map>
    39f2:	0f 90       	pop	r0
    39f4:	0f 90       	pop	r0
    39f6:	0f 90       	pop	r0
    39f8:	0f 90       	pop	r0
    39fa:	70 93 12 01 	sts	0x0112, r23	; 0x800112 <WaterTemp+0x1>
    39fe:	60 93 11 01 	sts	0x0111, r22	; 0x800111 <WaterTemp>
    3a02:	ce 01       	movw	r24, r28
    3a04:	80 57       	subi	r24, 0x70	; 112
    3a06:	91 09       	sbc	r25, r1
    3a08:	85 97       	sbiw	r24, 0x25	; 37
    3a0a:	20 f5       	brcc	.+72     	; 0x3a54 <SendWaterTemp+0x2cc>
    3a0c:	ce 01       	movw	r24, r28
    3a0e:	a0 e0       	ldi	r26, 0x00	; 0
    3a10:	b0 e0       	ldi	r27, 0x00	; 0
    3a12:	1f 92       	push	r1
    3a14:	1f 92       	push	r1
    3a16:	1f 92       	push	r1
    3a18:	26 e4       	ldi	r18, 0x46	; 70
    3a1a:	2f 93       	push	r18
    3a1c:	0f 2e       	mov	r0, r31
    3a1e:	fd e3       	ldi	r31, 0x3D	; 61
    3a20:	af 2e       	mov	r10, r31
    3a22:	b1 2c       	mov	r11, r1
    3a24:	c1 2c       	mov	r12, r1
    3a26:	d1 2c       	mov	r13, r1
    3a28:	f0 2d       	mov	r31, r0
    3a2a:	10 e7       	ldi	r17, 0x70	; 112
    3a2c:	e1 2e       	mov	r14, r17
    3a2e:	f1 2c       	mov	r15, r1
    3a30:	00 e0       	ldi	r16, 0x00	; 0
    3a32:	10 e0       	ldi	r17, 0x00	; 0
    3a34:	24 e9       	ldi	r18, 0x94	; 148
    3a36:	30 e0       	ldi	r19, 0x00	; 0
    3a38:	40 e0       	ldi	r20, 0x00	; 0
    3a3a:	50 e0       	ldi	r21, 0x00	; 0
    3a3c:	bc 01       	movw	r22, r24
    3a3e:	cd 01       	movw	r24, r26
    3a40:	0e 94 ae 2f 	call	0x5f5c	; 0x5f5c <map>
    3a44:	0f 90       	pop	r0
    3a46:	0f 90       	pop	r0
    3a48:	0f 90       	pop	r0
    3a4a:	0f 90       	pop	r0
    3a4c:	70 93 12 01 	sts	0x0112, r23	; 0x800112 <WaterTemp+0x1>
    3a50:	60 93 11 01 	sts	0x0111, r22	; 0x800111 <WaterTemp>
    3a54:	ce 01       	movw	r24, r28
    3a56:	83 55       	subi	r24, 0x53	; 83
    3a58:	91 09       	sbc	r25, r1
    3a5a:	4d 97       	sbiw	r24, 0x1d	; 29
    3a5c:	20 f5       	brcc	.+72     	; 0x3aa6 <SendWaterTemp+0x31e>
    3a5e:	ce 01       	movw	r24, r28
    3a60:	a0 e0       	ldi	r26, 0x00	; 0
    3a62:	b0 e0       	ldi	r27, 0x00	; 0
    3a64:	1f 92       	push	r1
    3a66:	1f 92       	push	r1
    3a68:	1f 92       	push	r1
    3a6a:	20 e5       	ldi	r18, 0x50	; 80
    3a6c:	2f 93       	push	r18
    3a6e:	0f 2e       	mov	r0, r31
    3a70:	f7 e4       	ldi	r31, 0x47	; 71
    3a72:	af 2e       	mov	r10, r31
    3a74:	b1 2c       	mov	r11, r1
    3a76:	c1 2c       	mov	r12, r1
    3a78:	d1 2c       	mov	r13, r1
    3a7a:	f0 2d       	mov	r31, r0
    3a7c:	13 e5       	ldi	r17, 0x53	; 83
    3a7e:	e1 2e       	mov	r14, r17
    3a80:	f1 2c       	mov	r15, r1
    3a82:	00 e0       	ldi	r16, 0x00	; 0
    3a84:	10 e0       	ldi	r17, 0x00	; 0
    3a86:	2f e6       	ldi	r18, 0x6F	; 111
    3a88:	30 e0       	ldi	r19, 0x00	; 0
    3a8a:	40 e0       	ldi	r20, 0x00	; 0
    3a8c:	50 e0       	ldi	r21, 0x00	; 0
    3a8e:	bc 01       	movw	r22, r24
    3a90:	cd 01       	movw	r24, r26
    3a92:	0e 94 ae 2f 	call	0x5f5c	; 0x5f5c <map>
    3a96:	0f 90       	pop	r0
    3a98:	0f 90       	pop	r0
    3a9a:	0f 90       	pop	r0
    3a9c:	0f 90       	pop	r0
    3a9e:	70 93 12 01 	sts	0x0112, r23	; 0x800112 <WaterTemp+0x1>
    3aa2:	60 93 11 01 	sts	0x0111, r22	; 0x800111 <WaterTemp>
    3aa6:	ce 01       	movw	r24, r28
    3aa8:	81 54       	subi	r24, 0x41	; 65
    3aaa:	91 09       	sbc	r25, r1
    3aac:	42 97       	sbiw	r24, 0x12	; 18
    3aae:	20 f5       	brcc	.+72     	; 0x3af8 <SendWaterTemp+0x370>
    3ab0:	ce 01       	movw	r24, r28
    3ab2:	a0 e0       	ldi	r26, 0x00	; 0
    3ab4:	b0 e0       	ldi	r27, 0x00	; 0
    3ab6:	1f 92       	push	r1
    3ab8:	1f 92       	push	r1
    3aba:	1f 92       	push	r1
    3abc:	2a e5       	ldi	r18, 0x5A	; 90
    3abe:	2f 93       	push	r18
    3ac0:	0f 2e       	mov	r0, r31
    3ac2:	f1 e5       	ldi	r31, 0x51	; 81
    3ac4:	af 2e       	mov	r10, r31
    3ac6:	b1 2c       	mov	r11, r1
    3ac8:	c1 2c       	mov	r12, r1
    3aca:	d1 2c       	mov	r13, r1
    3acc:	f0 2d       	mov	r31, r0
    3ace:	11 e4       	ldi	r17, 0x41	; 65
    3ad0:	e1 2e       	mov	r14, r17
    3ad2:	f1 2c       	mov	r15, r1
    3ad4:	00 e0       	ldi	r16, 0x00	; 0
    3ad6:	10 e0       	ldi	r17, 0x00	; 0
    3ad8:	22 e5       	ldi	r18, 0x52	; 82
    3ada:	30 e0       	ldi	r19, 0x00	; 0
    3adc:	40 e0       	ldi	r20, 0x00	; 0
    3ade:	50 e0       	ldi	r21, 0x00	; 0
    3ae0:	bc 01       	movw	r22, r24
    3ae2:	cd 01       	movw	r24, r26
    3ae4:	0e 94 ae 2f 	call	0x5f5c	; 0x5f5c <map>
    3ae8:	0f 90       	pop	r0
    3aea:	0f 90       	pop	r0
    3aec:	0f 90       	pop	r0
    3aee:	0f 90       	pop	r0
    3af0:	70 93 12 01 	sts	0x0112, r23	; 0x800112 <WaterTemp+0x1>
    3af4:	60 93 11 01 	sts	0x0111, r22	; 0x800111 <WaterTemp>
    3af8:	ce 01       	movw	r24, r28
    3afa:	c5 97       	sbiw	r24, 0x35	; 53
    3afc:	0c 97       	sbiw	r24, 0x0c	; 12
    3afe:	10 f5       	brcc	.+68     	; 0x3b44 <SendWaterTemp+0x3bc>
    3b00:	be 01       	movw	r22, r28
    3b02:	80 e0       	ldi	r24, 0x00	; 0
    3b04:	90 e0       	ldi	r25, 0x00	; 0
    3b06:	1f 92       	push	r1
    3b08:	1f 92       	push	r1
    3b0a:	1f 92       	push	r1
    3b0c:	23 e6       	ldi	r18, 0x63	; 99
    3b0e:	2f 93       	push	r18
    3b10:	0f 2e       	mov	r0, r31
    3b12:	fb e5       	ldi	r31, 0x5B	; 91
    3b14:	af 2e       	mov	r10, r31
    3b16:	b1 2c       	mov	r11, r1
    3b18:	c1 2c       	mov	r12, r1
    3b1a:	d1 2c       	mov	r13, r1
    3b1c:	f0 2d       	mov	r31, r0
    3b1e:	15 e3       	ldi	r17, 0x35	; 53
    3b20:	e1 2e       	mov	r14, r17
    3b22:	f1 2c       	mov	r15, r1
    3b24:	00 e0       	ldi	r16, 0x00	; 0
    3b26:	10 e0       	ldi	r17, 0x00	; 0
    3b28:	20 e4       	ldi	r18, 0x40	; 64
    3b2a:	30 e0       	ldi	r19, 0x00	; 0
    3b2c:	40 e0       	ldi	r20, 0x00	; 0
    3b2e:	50 e0       	ldi	r21, 0x00	; 0
    3b30:	0e 94 ae 2f 	call	0x5f5c	; 0x5f5c <map>
    3b34:	0f 90       	pop	r0
    3b36:	0f 90       	pop	r0
    3b38:	0f 90       	pop	r0
    3b3a:	0f 90       	pop	r0
    3b3c:	70 93 12 01 	sts	0x0112, r23	; 0x800112 <WaterTemp+0x1>
    3b40:	60 93 11 01 	sts	0x0111, r22	; 0x800111 <WaterTemp>
    3b44:	12 e1       	ldi	r17, 0x12	; 18
    3b46:	10 93 10 01 	sts	0x0110, r17	; 0x800110 <textx>
    3b4a:	10 92 1f 01 	sts	0x011F, r1	; 0x80011f <texty>
    3b4e:	42 e0       	ldi	r20, 0x02	; 2
    3b50:	6c e4       	ldi	r22, 0x4C	; 76
    3b52:	74 e0       	ldi	r23, 0x04	; 4
    3b54:	80 e0       	ldi	r24, 0x00	; 0
    3b56:	0e 94 8b 32 	call	0x6516	; 0x6516 <link>
    3b5a:	80 91 12 01 	lds	r24, 0x0112	; 0x800112 <WaterTemp+0x1>
    3b5e:	8f 93       	push	r24
    3b60:	80 91 11 01 	lds	r24, 0x0111	; 0x800111 <WaterTemp>
    3b64:	8f 93       	push	r24
    3b66:	89 e4       	ldi	r24, 0x49	; 73
    3b68:	94 e0       	ldi	r25, 0x04	; 4
    3b6a:	a0 e0       	ldi	r26, 0x00	; 0
    3b6c:	af 93       	push	r26
    3b6e:	9f 93       	push	r25
    3b70:	8f 93       	push	r24
    3b72:	c7 e3       	ldi	r28, 0x37	; 55
    3b74:	d1 e0       	ldi	r29, 0x01	; 1
    3b76:	df 93       	push	r29
    3b78:	cf 93       	push	r28
    3b7a:	0e 94 b2 37 	call	0x6f64	; 0x6f64 <_sprintf_cdnopuxX>
    3b7e:	10 93 10 01 	sts	0x0110, r17	; 0x800110 <textx>
    3b82:	10 92 1f 01 	sts	0x011F, r1	; 0x80011f <texty>
    3b86:	be 01       	movw	r22, r28
    3b88:	80 e8       	ldi	r24, 0x80	; 128
    3b8a:	44 e0       	ldi	r20, 0x04	; 4
    3b8c:	0e 94 8b 32 	call	0x6516	; 0x6516 <link>
    3b90:	87 b1       	in	r24, 0x07	; 7
    3b92:	8d 7f       	andi	r24, 0xFD	; 253
    3b94:	87 b9       	out	0x07, r24	; 7
    3b96:	86 b1       	in	r24, 0x06	; 6
    3b98:	8f 7b       	andi	r24, 0xBF	; 191
    3b9a:	86 b9       	out	0x06, r24	; 6
    3b9c:	8d b7       	in	r24, 0x3d	; 61
    3b9e:	9e b7       	in	r25, 0x3e	; 62
    3ba0:	07 96       	adiw	r24, 0x07	; 7
    3ba2:	0f b6       	in	r0, 0x3f	; 63
    3ba4:	f8 94       	cli
    3ba6:	9e bf       	out	0x3e, r25	; 62
    3ba8:	0f be       	out	0x3f, r0	; 63
    3baa:	8d bf       	out	0x3d, r24	; 61
    3bac:	df 91       	pop	r29
    3bae:	cf 91       	pop	r28
    3bb0:	1f 91       	pop	r17
    3bb2:	0f 91       	pop	r16
    3bb4:	ff 90       	pop	r15
    3bb6:	ef 90       	pop	r14
    3bb8:	df 90       	pop	r13
    3bba:	cf 90       	pop	r12
    3bbc:	bf 90       	pop	r11
    3bbe:	af 90       	pop	r10
    3bc0:	08 95       	ret

Disassembly of section .text.Cursor1:

0000629a <Cursor1>:
    629a:	cf 93       	push	r28
    629c:	df 93       	push	r29
    629e:	c3 e1       	ldi	r28, 0x13	; 19
    62a0:	c0 93 10 01 	sts	0x0110, r28	; 0x800110 <textx>
    62a4:	d5 e0       	ldi	r29, 0x05	; 5
    62a6:	d0 93 1f 01 	sts	0x011F, r29	; 0x80011f <texty>
    62aa:	41 e0       	ldi	r20, 0x01	; 1
    62ac:	63 e4       	ldi	r22, 0x43	; 67
    62ae:	74 e0       	ldi	r23, 0x04	; 4
    62b0:	80 e0       	ldi	r24, 0x00	; 0
    62b2:	0e 94 8b 32 	call	0x6516	; 0x6516 <link>
    62b6:	10 92 10 01 	sts	0x0110, r1	; 0x800110 <textx>
    62ba:	d0 93 1f 01 	sts	0x011F, r29	; 0x80011f <texty>
    62be:	41 e0       	ldi	r20, 0x01	; 1
    62c0:	63 e4       	ldi	r22, 0x43	; 67
    62c2:	74 e0       	ldi	r23, 0x04	; 4
    62c4:	80 e0       	ldi	r24, 0x00	; 0
    62c6:	0e 94 8b 32 	call	0x6516	; 0x6516 <link>
    62ca:	c0 93 10 01 	sts	0x0110, r28	; 0x800110 <textx>
    62ce:	c3 e0       	ldi	r28, 0x03	; 3
    62d0:	c0 93 1f 01 	sts	0x011F, r28	; 0x80011f <texty>
    62d4:	41 e0       	ldi	r20, 0x01	; 1
    62d6:	6f e4       	ldi	r22, 0x4F	; 79
    62d8:	74 e0       	ldi	r23, 0x04	; 4
    62da:	80 e0       	ldi	r24, 0x00	; 0
    62dc:	0e 94 8b 32 	call	0x6516	; 0x6516 <link>
    62e0:	10 92 10 01 	sts	0x0110, r1	; 0x800110 <textx>
    62e4:	c0 93 1f 01 	sts	0x011F, r28	; 0x80011f <texty>
    62e8:	41 e0       	ldi	r20, 0x01	; 1
    62ea:	61 e5       	ldi	r22, 0x51	; 81
    62ec:	74 e0       	ldi	r23, 0x04	; 4
    62ee:	80 e0       	ldi	r24, 0x00	; 0
    62f0:	0e 94 8b 32 	call	0x6516	; 0x6516 <link>
    62f4:	81 e0       	ldi	r24, 0x01	; 1
    62f6:	90 e0       	ldi	r25, 0x00	; 0
    62f8:	90 93 52 01 	sts	0x0152, r25	; 0x800152 <cursor+0x1>
    62fc:	80 93 51 01 	sts	0x0151, r24	; 0x800151 <cursor>
    6300:	df 91       	pop	r29
    6302:	cf 91       	pop	r28
    6304:	08 95       	ret

Disassembly of section .text.Cursor2:

00006306 <Cursor2>:
    6306:	cf 93       	push	r28
    6308:	df 93       	push	r29
    630a:	c3 e1       	ldi	r28, 0x13	; 19
    630c:	c0 93 10 01 	sts	0x0110, r28	; 0x800110 <textx>
    6310:	d3 e0       	ldi	r29, 0x03	; 3
    6312:	d0 93 1f 01 	sts	0x011F, r29	; 0x80011f <texty>
    6316:	41 e0       	ldi	r20, 0x01	; 1
    6318:	63 e4       	ldi	r22, 0x43	; 67
    631a:	74 e0       	ldi	r23, 0x04	; 4
    631c:	80 e0       	ldi	r24, 0x00	; 0
    631e:	0e 94 8b 32 	call	0x6516	; 0x6516 <link>
    6322:	10 92 10 01 	sts	0x0110, r1	; 0x800110 <textx>
    6326:	d0 93 1f 01 	sts	0x011F, r29	; 0x80011f <texty>
    632a:	41 e0       	ldi	r20, 0x01	; 1
    632c:	63 e4       	ldi	r22, 0x43	; 67
    632e:	74 e0       	ldi	r23, 0x04	; 4
    6330:	80 e0       	ldi	r24, 0x00	; 0
    6332:	0e 94 8b 32 	call	0x6516	; 0x6516 <link>
    6336:	c0 93 10 01 	sts	0x0110, r28	; 0x800110 <textx>
    633a:	c5 e0       	ldi	r28, 0x05	; 5
    633c:	c0 93 1f 01 	sts	0x011F, r28	; 0x80011f <texty>
    6340:	41 e0       	ldi	r20, 0x01	; 1
    6342:	6f e4       	ldi	r22, 0x4F	; 79
    6344:	74 e0       	ldi	r23, 0x04	; 4
    6346:	80 e0       	ldi	r24, 0x00	; 0
    6348:	0e 94 8b 32 	call	0x6516	; 0x6516 <link>
    634c:	10 92 10 01 	sts	0x0110, r1	; 0x800110 <textx>
    6350:	c0 93 1f 01 	sts	0x011F, r28	; 0x80011f <texty>
    6354:	41 e0       	ldi	r20, 0x01	; 1
    6356:	61 e5       	ldi	r22, 0x51	; 81
    6358:	74 e0       	ldi	r23, 0x04	; 4
    635a:	80 e0       	ldi	r24, 0x00	; 0
    635c:	0e 94 8b 32 	call	0x6516	; 0x6516 <link>
    6360:	82 e0       	ldi	r24, 0x02	; 2
    6362:	90 e0       	ldi	r25, 0x00	; 0
    6364:	90 93 52 01 	sts	0x0152, r25	; 0x800152 <cursor+0x1>
    6368:	80 93 51 01 	sts	0x0151, r24	; 0x800151 <cursor>
    636c:	df 91       	pop	r29
    636e:	cf 91       	pop	r28
    6370:	08 95       	ret

Disassembly of section .text.Window1:

00002fc4 <Window1>:
    2fc4:	1f 93       	push	r17
    2fc6:	cf 93       	push	r28
    2fc8:	df 93       	push	r29
    2fca:	0e 94 35 36 	call	0x6c6a	; 0x6c6a <clear>
    2fce:	80 91 13 01 	lds	r24, 0x0113	; 0x800113 <Start_stop>
    2fd2:	90 91 14 01 	lds	r25, 0x0114	; 0x800114 <Start_stop+0x1>
    2fd6:	89 2b       	or	r24, r25
    2fd8:	09 f0       	breq	.+2      	; 0x2fdc <Window1+0x18>
    2fda:	3c c1       	rjmp	.+632    	; 0x3254 <Window1+0x290>
    2fdc:	80 91 59 01 	lds	r24, 0x0159	; 0x800159 <UK_103>
    2fe0:	90 91 5a 01 	lds	r25, 0x015A	; 0x80015a <UK_103+0x1>
    2fe4:	89 2b       	or	r24, r25
    2fe6:	b9 f0       	breq	.+46     	; 0x3016 <Window1+0x52>
    2fe8:	80 91 57 01 	lds	r24, 0x0157	; 0x800157 <UK_203>
    2fec:	90 91 58 01 	lds	r25, 0x0158	; 0x800158 <UK_203+0x1>
    2ff0:	89 2b       	or	r24, r25
    2ff2:	89 f4       	brne	.+34     	; 0x3016 <Window1+0x52>
    2ff4:	80 91 55 01 	lds	r24, 0x0155	; 0x800155 <UK_303>
    2ff8:	90 91 56 01 	lds	r25, 0x0156	; 0x800156 <UK_303+0x1>
    2ffc:	89 2b       	or	r24, r25
    2ffe:	59 f4       	brne	.+22     	; 0x3016 <Window1+0x52>
    3000:	86 e0       	ldi	r24, 0x06	; 6
    3002:	80 93 10 01 	sts	0x0110, r24	; 0x800110 <textx>
    3006:	10 92 1f 01 	sts	0x011F, r1	; 0x80011f <texty>
    300a:	48 e0       	ldi	r20, 0x08	; 8
    300c:	63 e5       	ldi	r22, 0x53	; 83
    300e:	74 e0       	ldi	r23, 0x04	; 4
    3010:	80 e0       	ldi	r24, 0x00	; 0
    3012:	0e 94 8b 32 	call	0x6516	; 0x6516 <link>
    3016:	80 91 59 01 	lds	r24, 0x0159	; 0x800159 <UK_103>
    301a:	90 91 5a 01 	lds	r25, 0x015A	; 0x80015a <UK_103+0x1>
    301e:	89 2b       	or	r24, r25
    3020:	b9 f4       	brne	.+46     	; 0x3050 <Window1+0x8c>
    3022:	80 91 57 01 	lds	r24, 0x0157	; 0x800157 <UK_203>
    3026:	90 91 58 01 	lds	r25, 0x0158	; 0x800158 <UK_203+0x1>
    302a:	89 2b       	or	r24, r25
    302c:	89 f0       	breq	.+34     	; 0x3050 <Window1+0x8c>
    302e:	80 91 55 01 	lds	r24, 0x0155	; 0x800155 <UK_303>
    3032:	90 91 56 01 	lds	r25, 0x0156	; 0x800156 <UK_303+0x1>
    3036:	89 2b       	or	r24, r25
    3038:	59 f4       	brne	.+22     	; 0x3050 <Window1+0x8c>
    303a:	86 e0       	ldi	r24, 0x06	; 6
    303c:	80 93 10 01 	sts	0x0110, r24	; 0x800110 <textx>
    3040:	10 92 1f 01 	sts	0x011F, r1	; 0x80011f <texty>
    3044:	48 e0       	ldi	r20, 0x08	; 8
    3046:	6c e5       	ldi	r22, 0x5C	; 92
    3048:	74 e0       	ldi	r23, 0x04	; 4
    304a:	80 e0       	ldi	r24, 0x00	; 0
    304c:	0e 94 8b 32 	call	0x6516	; 0x6516 <link>
    3050:	80 91 59 01 	lds	r24, 0x0159	; 0x800159 <UK_103>
    3054:	90 91 5a 01 	lds	r25, 0x015A	; 0x80015a <UK_103+0x1>
    3058:	89 2b       	or	r24, r25
    305a:	b9 f4       	brne	.+46     	; 0x308a <Window1+0xc6>
    305c:	80 91 57 01 	lds	r24, 0x0157	; 0x800157 <UK_203>
    3060:	90 91 58 01 	lds	r25, 0x0158	; 0x800158 <UK_203+0x1>
    3064:	89 2b       	or	r24, r25
    3066:	89 f4       	brne	.+34     	; 0x308a <Window1+0xc6>
    3068:	80 91 55 01 	lds	r24, 0x0155	; 0x800155 <UK_303>
    306c:	90 91 56 01 	lds	r25, 0x0156	; 0x800156 <UK_303+0x1>
    3070:	89 2b       	or	r24, r25
    3072:	59 f0       	breq	.+22     	; 0x308a <Window1+0xc6>
    3074:	86 e0       	ldi	r24, 0x06	; 6
    3076:	80 93 10 01 	sts	0x0110, r24	; 0x800110 <textx>
    307a:	10 92 1f 01 	sts	0x011F, r1	; 0x80011f <texty>
    307e:	48 e0       	ldi	r20, 0x08	; 8
    3080:	65 e6       	ldi	r22, 0x65	; 101
    3082:	74 e0       	ldi	r23, 0x04	; 4
    3084:	80 e0       	ldi	r24, 0x00	; 0
    3086:	0e 94 8b 32 	call	0x6516	; 0x6516 <link>
    308a:	80 91 3f 01 	lds	r24, 0x013F	; 0x80013f <Master>
    308e:	90 91 40 01 	lds	r25, 0x0140	; 0x800140 <Master+0x1>
    3092:	89 2b       	or	r24, r25
    3094:	b1 f0       	breq	.+44     	; 0x30c2 <Window1+0xfe>
    3096:	c6 e0       	ldi	r28, 0x06	; 6
    3098:	c0 93 10 01 	sts	0x0110, r28	; 0x800110 <textx>
    309c:	10 92 1f 01 	sts	0x011F, r1	; 0x80011f <texty>
    30a0:	48 e0       	ldi	r20, 0x08	; 8
    30a2:	6e e6       	ldi	r22, 0x6E	; 110
    30a4:	74 e0       	ldi	r23, 0x04	; 4
    30a6:	80 e0       	ldi	r24, 0x00	; 0
    30a8:	0e 94 8b 32 	call	0x6516	; 0x6516 <link>
    30ac:	c0 93 10 01 	sts	0x0110, r28	; 0x800110 <textx>
    30b0:	81 e0       	ldi	r24, 0x01	; 1
    30b2:	80 93 1f 01 	sts	0x011F, r24	; 0x80011f <texty>
    30b6:	48 e0       	ldi	r20, 0x08	; 8
    30b8:	67 e7       	ldi	r22, 0x77	; 119
    30ba:	74 e0       	ldi	r23, 0x04	; 4
    30bc:	80 e0       	ldi	r24, 0x00	; 0
    30be:	0e 94 8b 32 	call	0x6516	; 0x6516 <link>
    30c2:	80 91 3d 01 	lds	r24, 0x013D	; 0x80013d <Slave>
    30c6:	90 91 3e 01 	lds	r25, 0x013E	; 0x80013e <Slave+0x1>
    30ca:	01 97       	sbiw	r24, 0x01	; 1
    30cc:	b1 f4       	brne	.+44     	; 0x30fa <Window1+0x136>
    30ce:	c6 e0       	ldi	r28, 0x06	; 6
    30d0:	c0 93 10 01 	sts	0x0110, r28	; 0x800110 <textx>
    30d4:	10 92 1f 01 	sts	0x011F, r1	; 0x80011f <texty>
    30d8:	48 e0       	ldi	r20, 0x08	; 8
    30da:	6e e6       	ldi	r22, 0x6E	; 110
    30dc:	74 e0       	ldi	r23, 0x04	; 4
    30de:	80 e0       	ldi	r24, 0x00	; 0
    30e0:	0e 94 8b 32 	call	0x6516	; 0x6516 <link>
    30e4:	c0 93 10 01 	sts	0x0110, r28	; 0x800110 <textx>
    30e8:	81 e0       	ldi	r24, 0x01	; 1
    30ea:	80 93 1f 01 	sts	0x011F, r24	; 0x80011f <texty>
    30ee:	48 e0       	ldi	r20, 0x08	; 8
    30f0:	60 e8       	ldi	r22, 0x80	; 128
    30f2:	74 e0       	ldi	r23, 0x04	; 4
    30f4:	80 e0       	ldi	r24, 0x00	; 0
    30f6:	0e 94 8b 32 	call	0x6516	; 0x6516 <link>
    30fa:	80 91 3d 01 	lds	r24, 0x013D	; 0x80013d <Slave>
    30fe:	90 91 3e 01 	lds	r25, 0x013E	; 0x80013e <Slave+0x1>
    3102:	02 97       	sbiw	r24, 0x02	; 2
    3104:	b1 f4       	brne	.+44     	; 0x3132 <Window1+0x16e>
    3106:	c6 e0       	ldi	r28, 0x06	; 6
    3108:	c0 93 10 01 	sts	0x0110, r28	; 0x800110 <textx>
    310c:	10 92 1f 01 	sts	0x011F, r1	; 0x80011f <texty>
    3110:	48 e0       	ldi	r20, 0x08	; 8
    3112:	6e e6       	ldi	r22, 0x6E	; 110
    3114:	74 e0       	ldi	r23, 0x04	; 4
    3116:	80 e0       	ldi	r24, 0x00	; 0
    3118:	0e 94 8b 32 	call	0x6516	; 0x6516 <link>
    311c:	c0 93 10 01 	sts	0x0110, r28	; 0x800110 <textx>
    3120:	81 e0       	ldi	r24, 0x01	; 1
    3122:	80 93 1f 01 	sts	0x011F, r24	; 0x80011f <texty>
    3126:	48 e0       	ldi	r20, 0x08	; 8
    3128:	69 e8       	ldi	r22, 0x89	; 137
    312a:	74 e0       	ldi	r23, 0x04	; 4
    312c:	80 e0       	ldi	r24, 0x00	; 0
    312e:	0e 94 8b 32 	call	0x6516	; 0x6516 <link>
    3132:	87 e0       	ldi	r24, 0x07	; 7
    3134:	80 93 10 01 	sts	0x0110, r24	; 0x800110 <textx>
    3138:	83 e0       	ldi	r24, 0x03	; 3
    313a:	80 93 1f 01 	sts	0x011F, r24	; 0x80011f <texty>
    313e:	45 e0       	ldi	r20, 0x05	; 5
    3140:	62 e9       	ldi	r22, 0x92	; 146
    3142:	74 e0       	ldi	r23, 0x04	; 4
    3144:	80 e0       	ldi	r24, 0x00	; 0
    3146:	0e 94 8b 32 	call	0x6516	; 0x6516 <link>
    314a:	85 e0       	ldi	r24, 0x05	; 5
    314c:	80 93 10 01 	sts	0x0110, r24	; 0x800110 <textx>
    3150:	80 93 1f 01 	sts	0x011F, r24	; 0x80011f <texty>
    3154:	49 e0       	ldi	r20, 0x09	; 9
    3156:	68 e9       	ldi	r22, 0x98	; 152
    3158:	74 e0       	ldi	r23, 0x04	; 4
    315a:	80 e0       	ldi	r24, 0x00	; 0
    315c:	0e 94 8b 32 	call	0x6516	; 0x6516 <link>
    3160:	80 91 07 01 	lds	r24, 0x0107	; 0x800107 <Weather_dependence>
    3164:	90 91 08 01 	lds	r25, 0x0108	; 0x800108 <Weather_dependence+0x1>
    3168:	89 2b       	or	r24, r25
    316a:	b1 f1       	breq	.+108    	; 0x31d8 <Window1+0x214>
    316c:	80 91 0e 01 	lds	r24, 0x010E	; 0x80010e <Weather_dependence_Mode>
    3170:	90 91 0f 01 	lds	r25, 0x010F	; 0x80010f <Weather_dependence_Mode+0x1>
    3174:	01 97       	sbiw	r24, 0x01	; 1
    3176:	61 f4       	brne	.+24     	; 0x3190 <Window1+0x1cc>
    3178:	81 e0       	ldi	r24, 0x01	; 1
    317a:	80 93 10 01 	sts	0x0110, r24	; 0x800110 <textx>
    317e:	87 e0       	ldi	r24, 0x07	; 7
    3180:	80 93 1f 01 	sts	0x011F, r24	; 0x80011f <texty>
    3184:	41 e1       	ldi	r20, 0x11	; 17
    3186:	62 ea       	ldi	r22, 0xA2	; 162
    3188:	74 e0       	ldi	r23, 0x04	; 4
    318a:	80 e0       	ldi	r24, 0x00	; 0
    318c:	0e 94 8b 32 	call	0x6516	; 0x6516 <link>
    3190:	80 91 0e 01 	lds	r24, 0x010E	; 0x80010e <Weather_dependence_Mode>
    3194:	90 91 0f 01 	lds	r25, 0x010F	; 0x80010f <Weather_dependence_Mode+0x1>
    3198:	02 97       	sbiw	r24, 0x02	; 2
    319a:	61 f4       	brne	.+24     	; 0x31b4 <Window1+0x1f0>
    319c:	81 e0       	ldi	r24, 0x01	; 1
    319e:	80 93 10 01 	sts	0x0110, r24	; 0x800110 <textx>
    31a2:	87 e0       	ldi	r24, 0x07	; 7
    31a4:	80 93 1f 01 	sts	0x011F, r24	; 0x80011f <texty>
    31a8:	41 e1       	ldi	r20, 0x11	; 17
    31aa:	64 eb       	ldi	r22, 0xB4	; 180
    31ac:	74 e0       	ldi	r23, 0x04	; 4
    31ae:	80 e0       	ldi	r24, 0x00	; 0
    31b0:	0e 94 8b 32 	call	0x6516	; 0x6516 <link>
    31b4:	80 91 0e 01 	lds	r24, 0x010E	; 0x80010e <Weather_dependence_Mode>
    31b8:	90 91 0f 01 	lds	r25, 0x010F	; 0x80010f <Weather_dependence_Mode+0x1>
    31bc:	03 97       	sbiw	r24, 0x03	; 3
    31be:	61 f4       	brne	.+24     	; 0x31d8 <Window1+0x214>
    31c0:	81 e0       	ldi	r24, 0x01	; 1
    31c2:	80 93 10 01 	sts	0x0110, r24	; 0x800110 <textx>
    31c6:	87 e0       	ldi	r24, 0x07	; 7
    31c8:	80 93 1f 01 	sts	0x011F, r24	; 0x80011f <texty>
    31cc:	41 e1       	ldi	r20, 0x11	; 17
    31ce:	66 ec       	ldi	r22, 0xC6	; 198
    31d0:	74 e0       	ldi	r23, 0x04	; 4
    31d2:	80 e0       	ldi	r24, 0x00	; 0
    31d4:	0e 94 8b 32 	call	0x6516	; 0x6516 <link>
    31d8:	80 91 07 01 	lds	r24, 0x0107	; 0x800107 <Weather_dependence>
    31dc:	90 91 08 01 	lds	r25, 0x0108	; 0x800108 <Weather_dependence+0x1>
    31e0:	89 2b       	or	r24, r25
    31e2:	81 f5       	brne	.+96     	; 0x3244 <Window1+0x280>
    31e4:	80 91 02 01 	lds	r24, 0x0102	; 0x800102 <WaterLoad+0x1>
    31e8:	8f 93       	push	r24
    31ea:	80 91 01 01 	lds	r24, 0x0101	; 0x800101 <WaterLoad>
    31ee:	8f 93       	push	r24
    31f0:	89 e4       	ldi	r24, 0x49	; 73
    31f2:	94 e0       	ldi	r25, 0x04	; 4
    31f4:	a0 e0       	ldi	r26, 0x00	; 0
    31f6:	af 93       	push	r26
    31f8:	9f 93       	push	r25
    31fa:	8f 93       	push	r24
    31fc:	c5 e6       	ldi	r28, 0x65	; 101
    31fe:	d1 e0       	ldi	r29, 0x01	; 1
    3200:	df 93       	push	r29
    3202:	cf 93       	push	r28
    3204:	0e 94 b2 37 	call	0x6f64	; 0x6f64 <_sprintf_cdnopuxX>
    3208:	81 e0       	ldi	r24, 0x01	; 1
    320a:	80 93 10 01 	sts	0x0110, r24	; 0x800110 <textx>
    320e:	17 e0       	ldi	r17, 0x07	; 7
    3210:	10 93 1f 01 	sts	0x011F, r17	; 0x80011f <texty>
    3214:	42 e1       	ldi	r20, 0x12	; 18
    3216:	68 ed       	ldi	r22, 0xD8	; 216
    3218:	74 e0       	ldi	r23, 0x04	; 4
    321a:	80 e0       	ldi	r24, 0x00	; 0
    321c:	0e 94 8b 32 	call	0x6516	; 0x6516 <link>
    3220:	8e e0       	ldi	r24, 0x0E	; 14
    3222:	80 93 10 01 	sts	0x0110, r24	; 0x800110 <textx>
    3226:	10 93 1f 01 	sts	0x011F, r17	; 0x80011f <texty>
    322a:	be 01       	movw	r22, r28
    322c:	80 e8       	ldi	r24, 0x80	; 128
    322e:	42 e0       	ldi	r20, 0x02	; 2
    3230:	0e 94 8b 32 	call	0x6516	; 0x6516 <link>
    3234:	8d b7       	in	r24, 0x3d	; 61
    3236:	9e b7       	in	r25, 0x3e	; 62
    3238:	07 96       	adiw	r24, 0x07	; 7
    323a:	0f b6       	in	r0, 0x3f	; 63
    323c:	f8 94       	cli
    323e:	9e bf       	out	0x3e, r25	; 62
    3240:	0f be       	out	0x3f, r0	; 63
    3242:	8d bf       	out	0x3d, r24	; 61
    3244:	0e 94 4d 31 	call	0x629a	; 0x629a <Cursor1>
    3248:	81 e0       	ldi	r24, 0x01	; 1
    324a:	90 e0       	ldi	r25, 0x00	; 0
    324c:	90 93 54 01 	sts	0x0154, r25	; 0x800154 <window+0x1>
    3250:	80 93 53 01 	sts	0x0153, r24	; 0x800153 <window>
    3254:	80 91 13 01 	lds	r24, 0x0113	; 0x800113 <Start_stop>
    3258:	90 91 14 01 	lds	r25, 0x0114	; 0x800114 <Start_stop+0x1>
    325c:	01 97       	sbiw	r24, 0x01	; 1
    325e:	09 f0       	breq	.+2      	; 0x3262 <Window1+0x29e>
    3260:	44 c1       	rjmp	.+648    	; 0x34ea <Window1+0x526>
    3262:	80 91 41 01 	lds	r24, 0x0141	; 0x800141 <Flag_Temp>
    3266:	90 91 42 01 	lds	r25, 0x0142	; 0x800142 <Flag_Temp+0x1>
    326a:	89 2b       	or	r24, r25
    326c:	09 f4       	brne	.+2      	; 0x3270 <Window1+0x2ac>
    326e:	3d c1       	rjmp	.+634    	; 0x34ea <Window1+0x526>
    3270:	80 91 59 01 	lds	r24, 0x0159	; 0x800159 <UK_103>
    3274:	90 91 5a 01 	lds	r25, 0x015A	; 0x80015a <UK_103+0x1>
    3278:	89 2b       	or	r24, r25
    327a:	b9 f0       	breq	.+46     	; 0x32aa <Window1+0x2e6>
    327c:	80 91 57 01 	lds	r24, 0x0157	; 0x800157 <UK_203>
    3280:	90 91 58 01 	lds	r25, 0x0158	; 0x800158 <UK_203+0x1>
    3284:	89 2b       	or	r24, r25
    3286:	89 f4       	brne	.+34     	; 0x32aa <Window1+0x2e6>
    3288:	80 91 55 01 	lds	r24, 0x0155	; 0x800155 <UK_303>
    328c:	90 91 56 01 	lds	r25, 0x0156	; 0x800156 <UK_303+0x1>
    3290:	89 2b       	or	r24, r25
    3292:	59 f4       	brne	.+22     	; 0x32aa <Window1+0x2e6>
    3294:	86 e0       	ldi	r24, 0x06	; 6
    3296:	80 93 10 01 	sts	0x0110, r24	; 0x800110 <textx>
    329a:	10 92 1f 01 	sts	0x011F, r1	; 0x80011f <texty>
    329e:	48 e0       	ldi	r20, 0x08	; 8
    32a0:	63 e5       	ldi	r22, 0x53	; 83
    32a2:	74 e0       	ldi	r23, 0x04	; 4
    32a4:	80 e0       	ldi	r24, 0x00	; 0
    32a6:	0e 94 8b 32 	call	0x6516	; 0x6516 <link>
    32aa:	80 91 59 01 	lds	r24, 0x0159	; 0x800159 <UK_103>
    32ae:	90 91 5a 01 	lds	r25, 0x015A	; 0x80015a <UK_103+0x1>
    32b2:	89 2b       	or	r24, r25
    32b4:	b9 f4       	brne	.+46     	; 0x32e4 <Window1+0x320>
    32b6:	80 91 57 01 	lds	r24, 0x0157	; 0x800157 <UK_203>
    32ba:	90 91 58 01 	lds	r25, 0x0158	; 0x800158 <UK_203+0x1>
    32be:	89 2b       	or	r24, r25
    32c0:	89 f0       	breq	.+34     	; 0x32e4 <Window1+0x320>
    32c2:	80 91 55 01 	lds	r24, 0x0155	; 0x800155 <UK_303>
    32c6:	90 91 56 01 	lds	r25, 0x0156	; 0x800156 <UK_303+0x1>
    32ca:	89 2b       	or	r24, r25
    32cc:	59 f4       	brne	.+22     	; 0x32e4 <Window1+0x320>
    32ce:	86 e0       	ldi	r24, 0x06	; 6
    32d0:	80 93 10 01 	sts	0x0110, r24	; 0x800110 <textx>
    32d4:	10 92 1f 01 	sts	0x011F, r1	; 0x80011f <texty>
    32d8:	48 e0       	ldi	r20, 0x08	; 8
    32da:	6c e5       	ldi	r22, 0x5C	; 92
    32dc:	74 e0       	ldi	r23, 0x04	; 4
    32de:	80 e0       	ldi	r24, 0x00	; 0
    32e0:	0e 94 8b 32 	call	0x6516	; 0x6516 <link>
    32e4:	80 91 59 01 	lds	r24, 0x0159	; 0x800159 <UK_103>
    32e8:	90 91 5a 01 	lds	r25, 0x015A	; 0x80015a <UK_103+0x1>
    32ec:	89 2b       	or	r24, r25
    32ee:	b9 f4       	brne	.+46     	; 0x331e <Window1+0x35a>
    32f0:	80 91 57 01 	lds	r24, 0x0157	; 0x800157 <UK_203>
    32f4:	90 91 58 01 	lds	r25, 0x0158	; 0x800158 <UK_203+0x1>
    32f8:	89 2b       	or	r24, r25
    32fa:	89 f4       	brne	.+34     	; 0x331e <Window1+0x35a>
    32fc:	80 91 55 01 	lds	r24, 0x0155	; 0x800155 <UK_303>
    3300:	90 91 56 01 	lds	r25, 0x0156	; 0x800156 <UK_303+0x1>
    3304:	89 2b       	or	r24, r25
    3306:	59 f0       	breq	.+22     	; 0x331e <Window1+0x35a>
    3308:	86 e0       	ldi	r24, 0x06	; 6
    330a:	80 93 10 01 	sts	0x0110, r24	; 0x800110 <textx>
    330e:	10 92 1f 01 	sts	0x011F, r1	; 0x80011f <texty>
    3312:	48 e0       	ldi	r20, 0x08	; 8
    3314:	65 e6       	ldi	r22, 0x65	; 101
    3316:	74 e0       	ldi	r23, 0x04	; 4
    3318:	80 e0       	ldi	r24, 0x00	; 0
    331a:	0e 94 8b 32 	call	0x6516	; 0x6516 <link>
    331e:	80 91 3f 01 	lds	r24, 0x013F	; 0x80013f <Master>
    3322:	90 91 40 01 	lds	r25, 0x0140	; 0x800140 <Master+0x1>
    3326:	89 2b       	or	r24, r25
    3328:	b1 f0       	breq	.+44     	; 0x3356 <Window1+0x392>
    332a:	c6 e0       	ldi	r28, 0x06	; 6
    332c:	c0 93 10 01 	sts	0x0110, r28	; 0x800110 <textx>
    3330:	10 92 1f 01 	sts	0x011F, r1	; 0x80011f <texty>
    3334:	48 e0       	ldi	r20, 0x08	; 8
    3336:	6e e6       	ldi	r22, 0x6E	; 110
    3338:	74 e0       	ldi	r23, 0x04	; 4
    333a:	80 e0       	ldi	r24, 0x00	; 0
    333c:	0e 94 8b 32 	call	0x6516	; 0x6516 <link>
    3340:	c0 93 10 01 	sts	0x0110, r28	; 0x800110 <textx>
    3344:	81 e0       	ldi	r24, 0x01	; 1
    3346:	80 93 1f 01 	sts	0x011F, r24	; 0x80011f <texty>
    334a:	48 e0       	ldi	r20, 0x08	; 8
    334c:	67 e7       	ldi	r22, 0x77	; 119
    334e:	74 e0       	ldi	r23, 0x04	; 4
    3350:	80 e0       	ldi	r24, 0x00	; 0
    3352:	0e 94 8b 32 	call	0x6516	; 0x6516 <link>
    3356:	80 91 3d 01 	lds	r24, 0x013D	; 0x80013d <Slave>
    335a:	90 91 3e 01 	lds	r25, 0x013E	; 0x80013e <Slave+0x1>
    335e:	01 97       	sbiw	r24, 0x01	; 1
    3360:	b1 f4       	brne	.+44     	; 0x338e <Window1+0x3ca>
    3362:	c6 e0       	ldi	r28, 0x06	; 6
    3364:	c0 93 10 01 	sts	0x0110, r28	; 0x800110 <textx>
    3368:	10 92 1f 01 	sts	0x011F, r1	; 0x80011f <texty>
    336c:	48 e0       	ldi	r20, 0x08	; 8
    336e:	6e e6       	ldi	r22, 0x6E	; 110
    3370:	74 e0       	ldi	r23, 0x04	; 4
    3372:	80 e0       	ldi	r24, 0x00	; 0
    3374:	0e 94 8b 32 	call	0x6516	; 0x6516 <link>
    3378:	c0 93 10 01 	sts	0x0110, r28	; 0x800110 <textx>
    337c:	81 e0       	ldi	r24, 0x01	; 1
    337e:	80 93 1f 01 	sts	0x011F, r24	; 0x80011f <texty>
    3382:	48 e0       	ldi	r20, 0x08	; 8
    3384:	60 e8       	ldi	r22, 0x80	; 128
    3386:	74 e0       	ldi	r23, 0x04	; 4
    3388:	80 e0       	ldi	r24, 0x00	; 0
    338a:	0e 94 8b 32 	call	0x6516	; 0x6516 <link>
    338e:	80 91 3d 01 	lds	r24, 0x013D	; 0x80013d <Slave>
    3392:	90 91 3e 01 	lds	r25, 0x013E	; 0x80013e <Slave+0x1>
    3396:	02 97       	sbiw	r24, 0x02	; 2
    3398:	b1 f4       	brne	.+44     	; 0x33c6 <Window1+0x402>
    339a:	c6 e0       	ldi	r28, 0x06	; 6
    339c:	c0 93 10 01 	sts	0x0110, r28	; 0x800110 <textx>
    33a0:	10 92 1f 01 	sts	0x011F, r1	; 0x80011f <texty>
    33a4:	48 e0       	ldi	r20, 0x08	; 8
    33a6:	6e e6       	ldi	r22, 0x6E	; 110
    33a8:	74 e0       	ldi	r23, 0x04	; 4
    33aa:	80 e0       	ldi	r24, 0x00	; 0
    33ac:	0e 94 8b 32 	call	0x6516	; 0x6516 <link>
    33b0:	c0 93 10 01 	sts	0x0110, r28	; 0x800110 <textx>
    33b4:	81 e0       	ldi	r24, 0x01	; 1
    33b6:	80 93 1f 01 	sts	0x011F, r24	; 0x80011f <texty>
    33ba:	48 e0       	ldi	r20, 0x08	; 8
    33bc:	69 e8       	ldi	r22, 0x89	; 137
    33be:	74 e0       	ldi	r23, 0x04	; 4
    33c0:	80 e0       	ldi	r24, 0x00	; 0
    33c2:	0e 94 8b 32 	call	0x6516	; 0x6516 <link>
    33c6:	88 e0       	ldi	r24, 0x08	; 8
    33c8:	80 93 10 01 	sts	0x0110, r24	; 0x800110 <textx>
    33cc:	83 e0       	ldi	r24, 0x03	; 3
    33ce:	80 93 1f 01 	sts	0x011F, r24	; 0x80011f <texty>
    33d2:	45 e0       	ldi	r20, 0x05	; 5
    33d4:	6b ee       	ldi	r22, 0xEB	; 235
    33d6:	74 e0       	ldi	r23, 0x04	; 4
    33d8:	80 e0       	ldi	r24, 0x00	; 0
    33da:	0e 94 8b 32 	call	0x6516	; 0x6516 <link>
    33de:	81 e0       	ldi	r24, 0x01	; 1
    33e0:	80 93 10 01 	sts	0x0110, r24	; 0x800110 <textx>
    33e4:	85 e0       	ldi	r24, 0x05	; 5
    33e6:	80 93 1f 01 	sts	0x011F, r24	; 0x80011f <texty>
    33ea:	42 e1       	ldi	r20, 0x12	; 18
    33ec:	60 ef       	ldi	r22, 0xF0	; 240
    33ee:	74 e0       	ldi	r23, 0x04	; 4
    33f0:	80 e0       	ldi	r24, 0x00	; 0
    33f2:	0e 94 8b 32 	call	0x6516	; 0x6516 <link>
    33f6:	80 91 07 01 	lds	r24, 0x0107	; 0x800107 <Weather_dependence>
    33fa:	90 91 08 01 	lds	r25, 0x0108	; 0x800108 <Weather_dependence+0x1>
    33fe:	89 2b       	or	r24, r25
    3400:	b1 f1       	breq	.+108    	; 0x346e <Window1+0x4aa>
    3402:	80 91 0e 01 	lds	r24, 0x010E	; 0x80010e <Weather_dependence_Mode>
    3406:	90 91 0f 01 	lds	r25, 0x010F	; 0x80010f <Weather_dependence_Mode+0x1>
    340a:	01 97       	sbiw	r24, 0x01	; 1
    340c:	61 f4       	brne	.+24     	; 0x3426 <Window1+0x462>
    340e:	81 e0       	ldi	r24, 0x01	; 1
    3410:	80 93 10 01 	sts	0x0110, r24	; 0x800110 <textx>
    3414:	87 e0       	ldi	r24, 0x07	; 7
    3416:	80 93 1f 01 	sts	0x011F, r24	; 0x80011f <texty>
    341a:	41 e1       	ldi	r20, 0x11	; 17
    341c:	62 ea       	ldi	r22, 0xA2	; 162
    341e:	74 e0       	ldi	r23, 0x04	; 4
    3420:	80 e0       	ldi	r24, 0x00	; 0
    3422:	0e 94 8b 32 	call	0x6516	; 0x6516 <link>
    3426:	80 91 0e 01 	lds	r24, 0x010E	; 0x80010e <Weather_dependence_Mode>
    342a:	90 91 0f 01 	lds	r25, 0x010F	; 0x80010f <Weather_dependence_Mode+0x1>
    342e:	02 97       	sbiw	r24, 0x02	; 2
    3430:	61 f4       	brne	.+24     	; 0x344a <Window1+0x486>
    3432:	81 e0       	ldi	r24, 0x01	; 1
    3434:	80 93 10 01 	sts	0x0110, r24	; 0x800110 <textx>
    3438:	87 e0       	ldi	r24, 0x07	; 7
    343a:	80 93 1f 01 	sts	0x011F, r24	; 0x80011f <texty>
    343e:	41 e1       	ldi	r20, 0x11	; 17
    3440:	64 eb       	ldi	r22, 0xB4	; 180
    3442:	74 e0       	ldi	r23, 0x04	; 4
    3444:	80 e0       	ldi	r24, 0x00	; 0
    3446:	0e 94 8b 32 	call	0x6516	; 0x6516 <link>
    344a:	80 91 0e 01 	lds	r24, 0x010E	; 0x80010e <Weather_dependence_Mode>
    344e:	90 91 0f 01 	lds	r25, 0x010F	; 0x80010f <Weather_dependence_Mode+0x1>
    3452:	03 97       	sbiw	r24, 0x03	; 3
    3454:	61 f4       	brne	.+24     	; 0x346e <Window1+0x4aa>
    3456:	81 e0       	ldi	r24, 0x01	; 1
    3458:	80 93 10 01 	sts	0x0110, r24	; 0x800110 <textx>
    345c:	87 e0       	ldi	r24, 0x07	; 7
    345e:	80 93 1f 01 	sts	0x011F, r24	; 0x80011f <texty>
    3462:	41 e1       	ldi	r20, 0x11	; 17
    3464:	66 ec       	ldi	r22, 0xC6	; 198
    3466:	74 e0       	ldi	r23, 0x04	; 4
    3468:	80 e0       	ldi	r24, 0x00	; 0
    346a:	0e 94 8b 32 	call	0x6516	; 0x6516 <link>
    346e:	80 91 07 01 	lds	r24, 0x0107	; 0x800107 <Weather_dependence>
    3472:	90 91 08 01 	lds	r25, 0x0108	; 0x800108 <Weather_dependence+0x1>
    3476:	89 2b       	or	r24, r25
    3478:	81 f5       	brne	.+96     	; 0x34da <Window1+0x516>
    347a:	80 91 02 01 	lds	r24, 0x0102	; 0x800102 <WaterLoad+0x1>
    347e:	8f 93       	push	r24
    3480:	80 91 01 01 	lds	r24, 0x0101	; 0x800101 <WaterLoad>
    3484:	8f 93       	push	r24
    3486:	89 e4       	ldi	r24, 0x49	; 73
    3488:	94 e0       	ldi	r25, 0x04	; 4
    348a:	a0 e0       	ldi	r26, 0x00	; 0
    348c:	af 93       	push	r26
    348e:	9f 93       	push	r25
    3490:	8f 93       	push	r24
    3492:	c5 e6       	ldi	r28, 0x65	; 101
    3494:	d1 e0       	ldi	r29, 0x01	; 1
    3496:	df 93       	push	r29
    3498:	cf 93       	push	r28
    349a:	0e 94 b2 37 	call	0x6f64	; 0x6f64 <_sprintf_cdnopuxX>
    349e:	81 e0       	ldi	r24, 0x01	; 1
    34a0:	80 93 10 01 	sts	0x0110, r24	; 0x800110 <textx>
    34a4:	17 e0       	ldi	r17, 0x07	; 7
    34a6:	10 93 1f 01 	sts	0x011F, r17	; 0x80011f <texty>
    34aa:	42 e1       	ldi	r20, 0x12	; 18
    34ac:	68 ed       	ldi	r22, 0xD8	; 216
    34ae:	74 e0       	ldi	r23, 0x04	; 4
    34b0:	80 e0       	ldi	r24, 0x00	; 0
    34b2:	0e 94 8b 32 	call	0x6516	; 0x6516 <link>
    34b6:	8e e0       	ldi	r24, 0x0E	; 14
    34b8:	80 93 10 01 	sts	0x0110, r24	; 0x800110 <textx>
    34bc:	10 93 1f 01 	sts	0x011F, r17	; 0x80011f <texty>
    34c0:	be 01       	movw	r22, r28
    34c2:	80 e8       	ldi	r24, 0x80	; 128
    34c4:	42 e0       	ldi	r20, 0x02	; 2
    34c6:	0e 94 8b 32 	call	0x6516	; 0x6516 <link>
    34ca:	8d b7       	in	r24, 0x3d	; 61
    34cc:	9e b7       	in	r25, 0x3e	; 62
    34ce:	07 96       	adiw	r24, 0x07	; 7
    34d0:	0f b6       	in	r0, 0x3f	; 63
    34d2:	f8 94       	cli
    34d4:	9e bf       	out	0x3e, r25	; 62
    34d6:	0f be       	out	0x3f, r0	; 63
    34d8:	8d bf       	out	0x3d, r24	; 61
    34da:	0e 94 4d 31 	call	0x629a	; 0x629a <Cursor1>
    34de:	84 e0       	ldi	r24, 0x04	; 4
    34e0:	90 e0       	ldi	r25, 0x00	; 0
    34e2:	90 93 54 01 	sts	0x0154, r25	; 0x800154 <window+0x1>
    34e6:	80 93 53 01 	sts	0x0153, r24	; 0x800153 <window>
    34ea:	80 91 13 01 	lds	r24, 0x0113	; 0x800113 <Start_stop>
    34ee:	90 91 14 01 	lds	r25, 0x0114	; 0x800114 <Start_stop+0x1>
    34f2:	01 97       	sbiw	r24, 0x01	; 1
    34f4:	09 f0       	breq	.+2      	; 0x34f8 <Window1+0x534>
    34f6:	44 c1       	rjmp	.+648    	; 0x3780 <Window1+0x7bc>
    34f8:	80 91 41 01 	lds	r24, 0x0141	; 0x800141 <Flag_Temp>
    34fc:	90 91 42 01 	lds	r25, 0x0142	; 0x800142 <Flag_Temp+0x1>
    3500:	89 2b       	or	r24, r25
    3502:	09 f0       	breq	.+2      	; 0x3506 <Window1+0x542>
    3504:	3d c1       	rjmp	.+634    	; 0x3780 <Window1+0x7bc>
    3506:	80 91 59 01 	lds	r24, 0x0159	; 0x800159 <UK_103>
    350a:	90 91 5a 01 	lds	r25, 0x015A	; 0x80015a <UK_103+0x1>
    350e:	89 2b       	or	r24, r25
    3510:	b9 f0       	breq	.+46     	; 0x3540 <Window1+0x57c>
    3512:	80 91 57 01 	lds	r24, 0x0157	; 0x800157 <UK_203>
    3516:	90 91 58 01 	lds	r25, 0x0158	; 0x800158 <UK_203+0x1>
    351a:	89 2b       	or	r24, r25
    351c:	89 f4       	brne	.+34     	; 0x3540 <Window1+0x57c>
    351e:	80 91 55 01 	lds	r24, 0x0155	; 0x800155 <UK_303>
    3522:	90 91 56 01 	lds	r25, 0x0156	; 0x800156 <UK_303+0x1>
    3526:	89 2b       	or	r24, r25
    3528:	59 f4       	brne	.+22     	; 0x3540 <Window1+0x57c>
    352a:	86 e0       	ldi	r24, 0x06	; 6
    352c:	80 93 10 01 	sts	0x0110, r24	; 0x800110 <textx>
    3530:	10 92 1f 01 	sts	0x011F, r1	; 0x80011f <texty>
    3534:	48 e0       	ldi	r20, 0x08	; 8
    3536:	63 e5       	ldi	r22, 0x53	; 83
    3538:	74 e0       	ldi	r23, 0x04	; 4
    353a:	80 e0       	ldi	r24, 0x00	; 0
    353c:	0e 94 8b 32 	call	0x6516	; 0x6516 <link>
    3540:	80 91 59 01 	lds	r24, 0x0159	; 0x800159 <UK_103>
    3544:	90 91 5a 01 	lds	r25, 0x015A	; 0x80015a <UK_103+0x1>
    3548:	89 2b       	or	r24, r25
    354a:	b9 f4       	brne	.+46     	; 0x357a <Window1+0x5b6>
    354c:	80 91 57 01 	lds	r24, 0x0157	; 0x800157 <UK_203>
    3550:	90 91 58 01 	lds	r25, 0x0158	; 0x800158 <UK_203+0x1>
    3554:	89 2b       	or	r24, r25
    3556:	89 f0       	breq	.+34     	; 0x357a <Window1+0x5b6>
    3558:	80 91 55 01 	lds	r24, 0x0155	; 0x800155 <UK_303>
    355c:	90 91 56 01 	lds	r25, 0x0156	; 0x800156 <UK_303+0x1>
    3560:	89 2b       	or	r24, r25
    3562:	59 f4       	brne	.+22     	; 0x357a <Window1+0x5b6>
    3564:	86 e0       	ldi	r24, 0x06	; 6
    3566:	80 93 10 01 	sts	0x0110, r24	; 0x800110 <textx>
    356a:	10 92 1f 01 	sts	0x011F, r1	; 0x80011f <texty>
    356e:	48 e0       	ldi	r20, 0x08	; 8
    3570:	6c e5       	ldi	r22, 0x5C	; 92
    3572:	74 e0       	ldi	r23, 0x04	; 4
    3574:	80 e0       	ldi	r24, 0x00	; 0
    3576:	0e 94 8b 32 	call	0x6516	; 0x6516 <link>
    357a:	80 91 59 01 	lds	r24, 0x0159	; 0x800159 <UK_103>
    357e:	90 91 5a 01 	lds	r25, 0x015A	; 0x80015a <UK_103+0x1>
    3582:	89 2b       	or	r24, r25
    3584:	b9 f4       	brne	.+46     	; 0x35b4 <Window1+0x5f0>
    3586:	80 91 57 01 	lds	r24, 0x0157	; 0x800157 <UK_203>
    358a:	90 91 58 01 	lds	r25, 0x0158	; 0x800158 <UK_203+0x1>
    358e:	89 2b       	or	r24, r25
    3590:	89 f4       	brne	.+34     	; 0x35b4 <Window1+0x5f0>
    3592:	80 91 55 01 	lds	r24, 0x0155	; 0x800155 <UK_303>
    3596:	90 91 56 01 	lds	r25, 0x0156	; 0x800156 <UK_303+0x1>
    359a:	89 2b       	or	r24, r25
    359c:	59 f0       	breq	.+22     	; 0x35b4 <Window1+0x5f0>
    359e:	86 e0       	ldi	r24, 0x06	; 6
    35a0:	80 93 10 01 	sts	0x0110, r24	; 0x800110 <textx>
    35a4:	10 92 1f 01 	sts	0x011F, r1	; 0x80011f <texty>
    35a8:	48 e0       	ldi	r20, 0x08	; 8
    35aa:	65 e6       	ldi	r22, 0x65	; 101
    35ac:	74 e0       	ldi	r23, 0x04	; 4
    35ae:	80 e0       	ldi	r24, 0x00	; 0
    35b0:	0e 94 8b 32 	call	0x6516	; 0x6516 <link>
    35b4:	80 91 3f 01 	lds	r24, 0x013F	; 0x80013f <Master>
    35b8:	90 91 40 01 	lds	r25, 0x0140	; 0x800140 <Master+0x1>
    35bc:	89 2b       	or	r24, r25
    35be:	b1 f0       	breq	.+44     	; 0x35ec <Window1+0x628>
    35c0:	c6 e0       	ldi	r28, 0x06	; 6
    35c2:	c0 93 10 01 	sts	0x0110, r28	; 0x800110 <textx>
    35c6:	10 92 1f 01 	sts	0x011F, r1	; 0x80011f <texty>
    35ca:	48 e0       	ldi	r20, 0x08	; 8
    35cc:	6e e6       	ldi	r22, 0x6E	; 110
    35ce:	74 e0       	ldi	r23, 0x04	; 4
    35d0:	80 e0       	ldi	r24, 0x00	; 0
    35d2:	0e 94 8b 32 	call	0x6516	; 0x6516 <link>
    35d6:	c0 93 10 01 	sts	0x0110, r28	; 0x800110 <textx>
    35da:	81 e0       	ldi	r24, 0x01	; 1
    35dc:	80 93 1f 01 	sts	0x011F, r24	; 0x80011f <texty>
    35e0:	48 e0       	ldi	r20, 0x08	; 8
    35e2:	67 e7       	ldi	r22, 0x77	; 119
    35e4:	74 e0       	ldi	r23, 0x04	; 4
    35e6:	80 e0       	ldi	r24, 0x00	; 0
    35e8:	0e 94 8b 32 	call	0x6516	; 0x6516 <link>
    35ec:	80 91 3d 01 	lds	r24, 0x013D	; 0x80013d <Slave>
    35f0:	90 91 3e 01 	lds	r25, 0x013E	; 0x80013e <Slave+0x1>
    35f4:	01 97       	sbiw	r24, 0x01	; 1
    35f6:	b1 f4       	brne	.+44     	; 0x3624 <Window1+0x660>
    35f8:	c6 e0       	ldi	r28, 0x06	; 6
    35fa:	c0 93 10 01 	sts	0x0110, r28	; 0x800110 <textx>
    35fe:	10 92 1f 01 	sts	0x011F, r1	; 0x80011f <texty>
    3602:	48 e0       	ldi	r20, 0x08	; 8
    3604:	6e e6       	ldi	r22, 0x6E	; 110
    3606:	74 e0       	ldi	r23, 0x04	; 4
    3608:	80 e0       	ldi	r24, 0x00	; 0
    360a:	0e 94 8b 32 	call	0x6516	; 0x6516 <link>
    360e:	c0 93 10 01 	sts	0x0110, r28	; 0x800110 <textx>
    3612:	81 e0       	ldi	r24, 0x01	; 1
    3614:	80 93 1f 01 	sts	0x011F, r24	; 0x80011f <texty>
    3618:	47 e0       	ldi	r20, 0x07	; 7
    361a:	60 e8       	ldi	r22, 0x80	; 128
    361c:	74 e0       	ldi	r23, 0x04	; 4
    361e:	80 e0       	ldi	r24, 0x00	; 0
    3620:	0e 94 8b 32 	call	0x6516	; 0x6516 <link>
    3624:	80 91 3d 01 	lds	r24, 0x013D	; 0x80013d <Slave>
    3628:	90 91 3e 01 	lds	r25, 0x013E	; 0x80013e <Slave+0x1>
    362c:	02 97       	sbiw	r24, 0x02	; 2
    362e:	b1 f4       	brne	.+44     	; 0x365c <Window1+0x698>
    3630:	c6 e0       	ldi	r28, 0x06	; 6
    3632:	c0 93 10 01 	sts	0x0110, r28	; 0x800110 <textx>
    3636:	10 92 1f 01 	sts	0x011F, r1	; 0x80011f <texty>
    363a:	48 e0       	ldi	r20, 0x08	; 8
    363c:	6e e6       	ldi	r22, 0x6E	; 110
    363e:	74 e0       	ldi	r23, 0x04	; 4
    3640:	80 e0       	ldi	r24, 0x00	; 0
    3642:	0e 94 8b 32 	call	0x6516	; 0x6516 <link>
    3646:	c0 93 10 01 	sts	0x0110, r28	; 0x800110 <textx>
    364a:	81 e0       	ldi	r24, 0x01	; 1
    364c:	80 93 1f 01 	sts	0x011F, r24	; 0x80011f <texty>
    3650:	47 e0       	ldi	r20, 0x07	; 7
    3652:	69 e8       	ldi	r22, 0x89	; 137
    3654:	74 e0       	ldi	r23, 0x04	; 4
    3656:	80 e0       	ldi	r24, 0x00	; 0
    3658:	0e 94 8b 32 	call	0x6516	; 0x6516 <link>
    365c:	88 e0       	ldi	r24, 0x08	; 8
    365e:	80 93 10 01 	sts	0x0110, r24	; 0x800110 <textx>
    3662:	83 e0       	ldi	r24, 0x03	; 3
    3664:	80 93 1f 01 	sts	0x011F, r24	; 0x80011f <texty>
    3668:	45 e0       	ldi	r20, 0x05	; 5
    366a:	6b ee       	ldi	r22, 0xEB	; 235
    366c:	74 e0       	ldi	r23, 0x04	; 4
    366e:	80 e0       	ldi	r24, 0x00	; 0
    3670:	0e 94 8b 32 	call	0x6516	; 0x6516 <link>
    3674:	81 e0       	ldi	r24, 0x01	; 1
    3676:	80 93 10 01 	sts	0x0110, r24	; 0x800110 <textx>
    367a:	85 e0       	ldi	r24, 0x05	; 5
    367c:	80 93 1f 01 	sts	0x011F, r24	; 0x80011f <texty>
    3680:	42 e1       	ldi	r20, 0x12	; 18
    3682:	63 e0       	ldi	r22, 0x03	; 3
    3684:	75 e0       	ldi	r23, 0x05	; 5
    3686:	80 e0       	ldi	r24, 0x00	; 0
    3688:	0e 94 8b 32 	call	0x6516	; 0x6516 <link>
    368c:	80 91 07 01 	lds	r24, 0x0107	; 0x800107 <Weather_dependence>
    3690:	90 91 08 01 	lds	r25, 0x0108	; 0x800108 <Weather_dependence+0x1>
    3694:	89 2b       	or	r24, r25
    3696:	b1 f1       	breq	.+108    	; 0x3704 <Window1+0x740>
    3698:	80 91 0e 01 	lds	r24, 0x010E	; 0x80010e <Weather_dependence_Mode>
    369c:	90 91 0f 01 	lds	r25, 0x010F	; 0x80010f <Weather_dependence_Mode+0x1>
    36a0:	01 97       	sbiw	r24, 0x01	; 1
    36a2:	61 f4       	brne	.+24     	; 0x36bc <Window1+0x6f8>
    36a4:	81 e0       	ldi	r24, 0x01	; 1
    36a6:	80 93 10 01 	sts	0x0110, r24	; 0x800110 <textx>
    36aa:	87 e0       	ldi	r24, 0x07	; 7
    36ac:	80 93 1f 01 	sts	0x011F, r24	; 0x80011f <texty>
    36b0:	41 e1       	ldi	r20, 0x11	; 17
    36b2:	62 ea       	ldi	r22, 0xA2	; 162
    36b4:	74 e0       	ldi	r23, 0x04	; 4
    36b6:	80 e0       	ldi	r24, 0x00	; 0
    36b8:	0e 94 8b 32 	call	0x6516	; 0x6516 <link>
    36bc:	80 91 0e 01 	lds	r24, 0x010E	; 0x80010e <Weather_dependence_Mode>
    36c0:	90 91 0f 01 	lds	r25, 0x010F	; 0x80010f <Weather_dependence_Mode+0x1>
    36c4:	02 97       	sbiw	r24, 0x02	; 2
    36c6:	61 f4       	brne	.+24     	; 0x36e0 <Window1+0x71c>
    36c8:	81 e0       	ldi	r24, 0x01	; 1
    36ca:	80 93 10 01 	sts	0x0110, r24	; 0x800110 <textx>
    36ce:	87 e0       	ldi	r24, 0x07	; 7
    36d0:	80 93 1f 01 	sts	0x011F, r24	; 0x80011f <texty>
    36d4:	41 e1       	ldi	r20, 0x11	; 17
    36d6:	64 eb       	ldi	r22, 0xB4	; 180
    36d8:	74 e0       	ldi	r23, 0x04	; 4
    36da:	80 e0       	ldi	r24, 0x00	; 0
    36dc:	0e 94 8b 32 	call	0x6516	; 0x6516 <link>
    36e0:	80 91 0e 01 	lds	r24, 0x010E	; 0x80010e <Weather_dependence_Mode>
    36e4:	90 91 0f 01 	lds	r25, 0x010F	; 0x80010f <Weather_dependence_Mode+0x1>
    36e8:	03 97       	sbiw	r24, 0x03	; 3
    36ea:	61 f4       	brne	.+24     	; 0x3704 <Window1+0x740>
    36ec:	81 e0       	ldi	r24, 0x01	; 1
    36ee:	80 93 10 01 	sts	0x0110, r24	; 0x800110 <textx>
    36f2:	87 e0       	ldi	r24, 0x07	; 7
    36f4:	80 93 1f 01 	sts	0x011F, r24	; 0x80011f <texty>
    36f8:	41 e1       	ldi	r20, 0x11	; 17
    36fa:	66 ec       	ldi	r22, 0xC6	; 198
    36fc:	74 e0       	ldi	r23, 0x04	; 4
    36fe:	80 e0       	ldi	r24, 0x00	; 0
    3700:	0e 94 8b 32 	call	0x6516	; 0x6516 <link>
    3704:	80 91 07 01 	lds	r24, 0x0107	; 0x800107 <Weather_dependence>
    3708:	90 91 08 01 	lds	r25, 0x0108	; 0x800108 <Weather_dependence+0x1>
    370c:	89 2b       	or	r24, r25
    370e:	81 f5       	brne	.+96     	; 0x3770 <Window1+0x7ac>
    3710:	80 91 02 01 	lds	r24, 0x0102	; 0x800102 <WaterLoad+0x1>
    3714:	8f 93       	push	r24
    3716:	80 91 01 01 	lds	r24, 0x0101	; 0x800101 <WaterLoad>
    371a:	8f 93       	push	r24
    371c:	89 e4       	ldi	r24, 0x49	; 73
    371e:	94 e0       	ldi	r25, 0x04	; 4
    3720:	a0 e0       	ldi	r26, 0x00	; 0
    3722:	af 93       	push	r26
    3724:	9f 93       	push	r25
    3726:	8f 93       	push	r24
    3728:	c5 e6       	ldi	r28, 0x65	; 101
    372a:	d1 e0       	ldi	r29, 0x01	; 1
    372c:	df 93       	push	r29
    372e:	cf 93       	push	r28
    3730:	0e 94 b2 37 	call	0x6f64	; 0x6f64 <_sprintf_cdnopuxX>
    3734:	81 e0       	ldi	r24, 0x01	; 1
    3736:	80 93 10 01 	sts	0x0110, r24	; 0x800110 <textx>
    373a:	17 e0       	ldi	r17, 0x07	; 7
    373c:	10 93 1f 01 	sts	0x011F, r17	; 0x80011f <texty>
    3740:	42 e1       	ldi	r20, 0x12	; 18
    3742:	68 ed       	ldi	r22, 0xD8	; 216
    3744:	74 e0       	ldi	r23, 0x04	; 4
    3746:	80 e0       	ldi	r24, 0x00	; 0
    3748:	0e 94 8b 32 	call	0x6516	; 0x6516 <link>
    374c:	8e e0       	ldi	r24, 0x0E	; 14
    374e:	80 93 10 01 	sts	0x0110, r24	; 0x800110 <textx>
    3752:	10 93 1f 01 	sts	0x011F, r17	; 0x80011f <texty>
    3756:	be 01       	movw	r22, r28
    3758:	80 e8       	ldi	r24, 0x80	; 128
    375a:	42 e0       	ldi	r20, 0x02	; 2
    375c:	0e 94 8b 32 	call	0x6516	; 0x6516 <link>
    3760:	8d b7       	in	r24, 0x3d	; 61
    3762:	9e b7       	in	r25, 0x3e	; 62
    3764:	07 96       	adiw	r24, 0x07	; 7
    3766:	0f b6       	in	r0, 0x3f	; 63
    3768:	f8 94       	cli
    376a:	9e bf       	out	0x3e, r25	; 62
    376c:	0f be       	out	0x3f, r0	; 63
    376e:	8d bf       	out	0x3d, r24	; 61
    3770:	0e 94 4d 31 	call	0x629a	; 0x629a <Cursor1>
    3774:	84 e0       	ldi	r24, 0x04	; 4
    3776:	90 e0       	ldi	r25, 0x00	; 0
    3778:	90 93 54 01 	sts	0x0154, r25	; 0x800154 <window+0x1>
    377c:	80 93 53 01 	sts	0x0153, r24	; 0x800153 <window>
    3780:	df 91       	pop	r29
    3782:	cf 91       	pop	r28
    3784:	1f 91       	pop	r17
    3786:	08 95       	ret

Disassembly of section .text.cursor2_1:

000060d6 <cursor2_1>:
    60d6:	1f 93       	push	r17
    60d8:	cf 93       	push	r28
    60da:	df 93       	push	r29
    60dc:	d0 e1       	ldi	r29, 0x10	; 16
    60de:	d0 93 10 01 	sts	0x0110, r29	; 0x800110 <textx>
    60e2:	14 e0       	ldi	r17, 0x04	; 4
    60e4:	10 93 1f 01 	sts	0x011F, r17	; 0x80011f <texty>
    60e8:	41 e0       	ldi	r20, 0x01	; 1
    60ea:	6f e4       	ldi	r22, 0x4F	; 79
    60ec:	74 e0       	ldi	r23, 0x04	; 4
    60ee:	80 e0       	ldi	r24, 0x00	; 0
    60f0:	0e 94 8b 32 	call	0x6516	; 0x6516 <link>
    60f4:	c3 e0       	ldi	r28, 0x03	; 3
    60f6:	c0 93 10 01 	sts	0x0110, r28	; 0x800110 <textx>
    60fa:	10 93 1f 01 	sts	0x011F, r17	; 0x80011f <texty>
    60fe:	41 e0       	ldi	r20, 0x01	; 1
    6100:	61 e5       	ldi	r22, 0x51	; 81
    6102:	74 e0       	ldi	r23, 0x04	; 4
    6104:	80 e0       	ldi	r24, 0x00	; 0
    6106:	0e 94 8b 32 	call	0x6516	; 0x6516 <link>
    610a:	c0 93 10 01 	sts	0x0110, r28	; 0x800110 <textx>
    610e:	c7 e0       	ldi	r28, 0x07	; 7
    6110:	c0 93 1f 01 	sts	0x011F, r28	; 0x80011f <texty>
    6114:	41 e0       	ldi	r20, 0x01	; 1
    6116:	63 e4       	ldi	r22, 0x43	; 67
    6118:	74 e0       	ldi	r23, 0x04	; 4
    611a:	80 e0       	ldi	r24, 0x00	; 0
    611c:	0e 94 8b 32 	call	0x6516	; 0x6516 <link>
    6120:	d0 93 10 01 	sts	0x0110, r29	; 0x800110 <textx>
    6124:	c0 93 1f 01 	sts	0x011F, r28	; 0x80011f <texty>
    6128:	41 e0       	ldi	r20, 0x01	; 1
    612a:	63 e4       	ldi	r22, 0x43	; 67
    612c:	74 e0       	ldi	r23, 0x04	; 4
    612e:	80 e0       	ldi	r24, 0x00	; 0
    6130:	0e 94 8b 32 	call	0x6516	; 0x6516 <link>
    6134:	81 e0       	ldi	r24, 0x01	; 1
    6136:	90 e0       	ldi	r25, 0x00	; 0
    6138:	90 93 52 01 	sts	0x0152, r25	; 0x800152 <cursor+0x1>
    613c:	80 93 51 01 	sts	0x0151, r24	; 0x800151 <cursor>
    6140:	df 91       	pop	r29
    6142:	cf 91       	pop	r28
    6144:	1f 91       	pop	r17
    6146:	08 95       	ret

Disassembly of section .text.cursor2_2:

00006148 <cursor2_2>:
    6148:	1f 93       	push	r17
    614a:	cf 93       	push	r28
    614c:	df 93       	push	r29
    614e:	d0 e1       	ldi	r29, 0x10	; 16
    6150:	d0 93 10 01 	sts	0x0110, r29	; 0x800110 <textx>
    6154:	14 e0       	ldi	r17, 0x04	; 4
    6156:	10 93 1f 01 	sts	0x011F, r17	; 0x80011f <texty>
    615a:	41 e0       	ldi	r20, 0x01	; 1
    615c:	63 e4       	ldi	r22, 0x43	; 67
    615e:	74 e0       	ldi	r23, 0x04	; 4
    6160:	80 e0       	ldi	r24, 0x00	; 0
    6162:	0e 94 8b 32 	call	0x6516	; 0x6516 <link>
    6166:	c3 e0       	ldi	r28, 0x03	; 3
    6168:	c0 93 10 01 	sts	0x0110, r28	; 0x800110 <textx>
    616c:	10 93 1f 01 	sts	0x011F, r17	; 0x80011f <texty>
    6170:	41 e0       	ldi	r20, 0x01	; 1
    6172:	63 e4       	ldi	r22, 0x43	; 67
    6174:	74 e0       	ldi	r23, 0x04	; 4
    6176:	80 e0       	ldi	r24, 0x00	; 0
    6178:	0e 94 8b 32 	call	0x6516	; 0x6516 <link>
    617c:	c0 93 10 01 	sts	0x0110, r28	; 0x800110 <textx>
    6180:	c7 e0       	ldi	r28, 0x07	; 7
    6182:	c0 93 1f 01 	sts	0x011F, r28	; 0x80011f <texty>
    6186:	41 e0       	ldi	r20, 0x01	; 1
    6188:	61 e5       	ldi	r22, 0x51	; 81
    618a:	74 e0       	ldi	r23, 0x04	; 4
    618c:	80 e0       	ldi	r24, 0x00	; 0
    618e:	0e 94 8b 32 	call	0x6516	; 0x6516 <link>
    6192:	d0 93 10 01 	sts	0x0110, r29	; 0x800110 <textx>
    6196:	c0 93 1f 01 	sts	0x011F, r28	; 0x80011f <texty>
    619a:	41 e0       	ldi	r20, 0x01	; 1
    619c:	6f e4       	ldi	r22, 0x4F	; 79
    619e:	74 e0       	ldi	r23, 0x04	; 4
    61a0:	80 e0       	ldi	r24, 0x00	; 0
    61a2:	0e 94 8b 32 	call	0x6516	; 0x6516 <link>
    61a6:	82 e0       	ldi	r24, 0x02	; 2
    61a8:	90 e0       	ldi	r25, 0x00	; 0
    61aa:	90 93 52 01 	sts	0x0152, r25	; 0x800152 <cursor+0x1>
    61ae:	80 93 51 01 	sts	0x0151, r24	; 0x800151 <cursor>
    61b2:	df 91       	pop	r29
    61b4:	cf 91       	pop	r28
    61b6:	1f 91       	pop	r17
    61b8:	08 95       	ret

Disassembly of section .text.Window2_1:

000045b2 <Window2_1>:
    45b2:	cf 93       	push	r28
    45b4:	df 93       	push	r29
    45b6:	0e 94 35 36 	call	0x6c6a	; 0x6c6a <clear>
    45ba:	80 91 07 01 	lds	r24, 0x0107	; 0x800107 <Weather_dependence>
    45be:	90 91 08 01 	lds	r25, 0x0108	; 0x800108 <Weather_dependence+0x1>
    45c2:	89 2b       	or	r24, r25
    45c4:	91 f5       	brne	.+100    	; 0x462a <Window2_1+0x78>
    45c6:	10 92 10 01 	sts	0x0110, r1	; 0x800110 <textx>
    45ca:	82 e0       	ldi	r24, 0x02	; 2
    45cc:	80 93 1f 01 	sts	0x011F, r24	; 0x80011f <texty>
    45d0:	44 e1       	ldi	r20, 0x14	; 20
    45d2:	66 e1       	ldi	r22, 0x16	; 22
    45d4:	75 e0       	ldi	r23, 0x05	; 5
    45d6:	80 e0       	ldi	r24, 0x00	; 0
    45d8:	0e 94 8b 32 	call	0x6516	; 0x6516 <link>
    45dc:	80 91 02 01 	lds	r24, 0x0102	; 0x800102 <WaterLoad+0x1>
    45e0:	8f 93       	push	r24
    45e2:	80 91 01 01 	lds	r24, 0x0101	; 0x800101 <WaterLoad>
    45e6:	8f 93       	push	r24
    45e8:	89 e4       	ldi	r24, 0x49	; 73
    45ea:	94 e0       	ldi	r25, 0x04	; 4
    45ec:	a0 e0       	ldi	r26, 0x00	; 0
    45ee:	af 93       	push	r26
    45f0:	9f 93       	push	r25
    45f2:	8f 93       	push	r24
    45f4:	c3 e6       	ldi	r28, 0x63	; 99
    45f6:	d1 e0       	ldi	r29, 0x01	; 1
    45f8:	df 93       	push	r29
    45fa:	cf 93       	push	r28
    45fc:	0e 94 b2 37 	call	0x6f64	; 0x6f64 <_sprintf_cdnopuxX>
    4600:	89 e0       	ldi	r24, 0x09	; 9
    4602:	80 93 10 01 	sts	0x0110, r24	; 0x800110 <textx>
    4606:	84 e0       	ldi	r24, 0x04	; 4
    4608:	80 93 1f 01 	sts	0x011F, r24	; 0x80011f <texty>
    460c:	be 01       	movw	r22, r28
    460e:	80 e8       	ldi	r24, 0x80	; 128
    4610:	42 e0       	ldi	r20, 0x02	; 2
    4612:	0e 94 8b 32 	call	0x6516	; 0x6516 <link>
    4616:	0e 94 6b 30 	call	0x60d6	; 0x60d6 <cursor2_1>
    461a:	8d b7       	in	r24, 0x3d	; 61
    461c:	9e b7       	in	r25, 0x3e	; 62
    461e:	07 96       	adiw	r24, 0x07	; 7
    4620:	0f b6       	in	r0, 0x3f	; 63
    4622:	f8 94       	cli
    4624:	9e bf       	out	0x3e, r25	; 62
    4626:	0f be       	out	0x3f, r0	; 63
    4628:	8d bf       	out	0x3d, r24	; 61
    462a:	80 91 07 01 	lds	r24, 0x0107	; 0x800107 <Weather_dependence>
    462e:	90 91 08 01 	lds	r25, 0x0108	; 0x800108 <Weather_dependence+0x1>
    4632:	89 2b       	or	r24, r25
    4634:	09 f4       	brne	.+2      	; 0x4638 <Window2_1+0x86>
    4636:	43 c0       	rjmp	.+134    	; 0x46be <Window2_1+0x10c>
    4638:	10 92 10 01 	sts	0x0110, r1	; 0x800110 <textx>
    463c:	82 e0       	ldi	r24, 0x02	; 2
    463e:	80 93 1f 01 	sts	0x011F, r24	; 0x80011f <texty>
    4642:	44 e1       	ldi	r20, 0x14	; 20
    4644:	66 e1       	ldi	r22, 0x16	; 22
    4646:	75 e0       	ldi	r23, 0x05	; 5
    4648:	80 e0       	ldi	r24, 0x00	; 0
    464a:	0e 94 8b 32 	call	0x6516	; 0x6516 <link>
    464e:	80 91 0e 01 	lds	r24, 0x010E	; 0x80010e <Weather_dependence_Mode>
    4652:	90 91 0f 01 	lds	r25, 0x010F	; 0x80010f <Weather_dependence_Mode+0x1>
    4656:	01 97       	sbiw	r24, 0x01	; 1
    4658:	61 f4       	brne	.+24     	; 0x4672 <Window2_1+0xc0>
    465a:	86 e0       	ldi	r24, 0x06	; 6
    465c:	80 93 10 01 	sts	0x0110, r24	; 0x800110 <textx>
    4660:	84 e0       	ldi	r24, 0x04	; 4
    4662:	80 93 1f 01 	sts	0x011F, r24	; 0x80011f <texty>
    4666:	48 e0       	ldi	r20, 0x08	; 8
    4668:	6b e2       	ldi	r22, 0x2B	; 43
    466a:	75 e0       	ldi	r23, 0x05	; 5
    466c:	80 e0       	ldi	r24, 0x00	; 0
    466e:	0e 94 8b 32 	call	0x6516	; 0x6516 <link>
    4672:	80 91 0e 01 	lds	r24, 0x010E	; 0x80010e <Weather_dependence_Mode>
    4676:	90 91 0f 01 	lds	r25, 0x010F	; 0x80010f <Weather_dependence_Mode+0x1>
    467a:	02 97       	sbiw	r24, 0x02	; 2
    467c:	61 f4       	brne	.+24     	; 0x4696 <Window2_1+0xe4>
    467e:	86 e0       	ldi	r24, 0x06	; 6
    4680:	80 93 10 01 	sts	0x0110, r24	; 0x800110 <textx>
    4684:	84 e0       	ldi	r24, 0x04	; 4
    4686:	80 93 1f 01 	sts	0x011F, r24	; 0x80011f <texty>
    468a:	48 e0       	ldi	r20, 0x08	; 8
    468c:	64 e3       	ldi	r22, 0x34	; 52
    468e:	75 e0       	ldi	r23, 0x05	; 5
    4690:	80 e0       	ldi	r24, 0x00	; 0
    4692:	0e 94 8b 32 	call	0x6516	; 0x6516 <link>
    4696:	80 91 0e 01 	lds	r24, 0x010E	; 0x80010e <Weather_dependence_Mode>
    469a:	90 91 0f 01 	lds	r25, 0x010F	; 0x80010f <Weather_dependence_Mode+0x1>
    469e:	03 97       	sbiw	r24, 0x03	; 3
    46a0:	61 f4       	brne	.+24     	; 0x46ba <Window2_1+0x108>
    46a2:	86 e0       	ldi	r24, 0x06	; 6
    46a4:	80 93 10 01 	sts	0x0110, r24	; 0x800110 <textx>
    46a8:	84 e0       	ldi	r24, 0x04	; 4
    46aa:	80 93 1f 01 	sts	0x011F, r24	; 0x80011f <texty>
    46ae:	48 e0       	ldi	r20, 0x08	; 8
    46b0:	6d e3       	ldi	r22, 0x3D	; 61
    46b2:	75 e0       	ldi	r23, 0x05	; 5
    46b4:	80 e0       	ldi	r24, 0x00	; 0
    46b6:	0e 94 8b 32 	call	0x6516	; 0x6516 <link>
    46ba:	0e 94 6b 30 	call	0x60d6	; 0x60d6 <cursor2_1>
    46be:	80 91 17 01 	lds	r24, 0x0117	; 0x800117 <AirTemp>
    46c2:	90 91 18 01 	lds	r25, 0x0118	; 0x800118 <AirTemp+0x1>
    46c6:	80 35       	cpi	r24, 0x50	; 80
    46c8:	91 05       	cpc	r25, r1
    46ca:	7c f5       	brge	.+94     	; 0x472a <Window2_1+0x178>
    46cc:	10 92 10 01 	sts	0x0110, r1	; 0x800110 <textx>
    46d0:	86 e0       	ldi	r24, 0x06	; 6
    46d2:	80 93 1f 01 	sts	0x011F, r24	; 0x80011f <texty>
    46d6:	42 e1       	ldi	r20, 0x12	; 18
    46d8:	66 e4       	ldi	r22, 0x46	; 70
    46da:	75 e0       	ldi	r23, 0x05	; 5
    46dc:	80 e0       	ldi	r24, 0x00	; 0
    46de:	0e 94 8b 32 	call	0x6516	; 0x6516 <link>
    46e2:	80 91 07 01 	lds	r24, 0x0107	; 0x800107 <Weather_dependence>
    46e6:	90 91 08 01 	lds	r25, 0x0108	; 0x800108 <Weather_dependence+0x1>
    46ea:	89 2b       	or	r24, r25
    46ec:	61 f4       	brne	.+24     	; 0x4706 <Window2_1+0x154>
    46ee:	86 e0       	ldi	r24, 0x06	; 6
    46f0:	80 93 10 01 	sts	0x0110, r24	; 0x800110 <textx>
    46f4:	87 e0       	ldi	r24, 0x07	; 7
    46f6:	80 93 1f 01 	sts	0x011F, r24	; 0x80011f <texty>
    46fa:	49 e0       	ldi	r20, 0x09	; 9
    46fc:	69 e5       	ldi	r22, 0x59	; 89
    46fe:	75 e0       	ldi	r23, 0x05	; 5
    4700:	80 e0       	ldi	r24, 0x00	; 0
    4702:	0e 94 8b 32 	call	0x6516	; 0x6516 <link>
    4706:	80 91 07 01 	lds	r24, 0x0107	; 0x800107 <Weather_dependence>
    470a:	90 91 08 01 	lds	r25, 0x0108	; 0x800108 <Weather_dependence+0x1>
    470e:	89 2b       	or	r24, r25
    4710:	61 f0       	breq	.+24     	; 0x472a <Window2_1+0x178>
    4712:	86 e0       	ldi	r24, 0x06	; 6
    4714:	80 93 10 01 	sts	0x0110, r24	; 0x800110 <textx>
    4718:	87 e0       	ldi	r24, 0x07	; 7
    471a:	80 93 1f 01 	sts	0x011F, r24	; 0x80011f <texty>
    471e:	49 e0       	ldi	r20, 0x09	; 9
    4720:	63 e6       	ldi	r22, 0x63	; 99
    4722:	75 e0       	ldi	r23, 0x05	; 5
    4724:	80 e0       	ldi	r24, 0x00	; 0
    4726:	0e 94 8b 32 	call	0x6516	; 0x6516 <link>
    472a:	82 e0       	ldi	r24, 0x02	; 2
    472c:	90 e0       	ldi	r25, 0x00	; 0
    472e:	90 93 54 01 	sts	0x0154, r25	; 0x800154 <window+0x1>
    4732:	80 93 53 01 	sts	0x0153, r24	; 0x800153 <window>
    4736:	df 91       	pop	r29
    4738:	cf 91       	pop	r28
    473a:	08 95       	ret

Disassembly of section .text.Window2_1_WaterLoad:

000065c8 <Window2_1_WaterLoad>:
    65c8:	cf 93       	push	r28
    65ca:	df 93       	push	r29
    65cc:	80 91 02 01 	lds	r24, 0x0102	; 0x800102 <WaterLoad+0x1>
    65d0:	8f 93       	push	r24
    65d2:	80 91 01 01 	lds	r24, 0x0101	; 0x800101 <WaterLoad>
    65d6:	8f 93       	push	r24
    65d8:	89 e4       	ldi	r24, 0x49	; 73
    65da:	94 e0       	ldi	r25, 0x04	; 4
    65dc:	a0 e0       	ldi	r26, 0x00	; 0
    65de:	af 93       	push	r26
    65e0:	9f 93       	push	r25
    65e2:	8f 93       	push	r24
    65e4:	c3 e6       	ldi	r28, 0x63	; 99
    65e6:	d1 e0       	ldi	r29, 0x01	; 1
    65e8:	df 93       	push	r29
    65ea:	cf 93       	push	r28
    65ec:	0e 94 b2 37 	call	0x6f64	; 0x6f64 <_sprintf_cdnopuxX>
    65f0:	89 e0       	ldi	r24, 0x09	; 9
    65f2:	80 93 10 01 	sts	0x0110, r24	; 0x800110 <textx>
    65f6:	84 e0       	ldi	r24, 0x04	; 4
    65f8:	80 93 1f 01 	sts	0x011F, r24	; 0x80011f <texty>
    65fc:	be 01       	movw	r22, r28
    65fe:	80 e8       	ldi	r24, 0x80	; 128
    6600:	42 e0       	ldi	r20, 0x02	; 2
    6602:	0e 94 8b 32 	call	0x6516	; 0x6516 <link>
    6606:	8d b7       	in	r24, 0x3d	; 61
    6608:	9e b7       	in	r25, 0x3e	; 62
    660a:	07 96       	adiw	r24, 0x07	; 7
    660c:	0f b6       	in	r0, 0x3f	; 63
    660e:	f8 94       	cli
    6610:	9e bf       	out	0x3e, r25	; 62
    6612:	0f be       	out	0x3f, r0	; 63
    6614:	8d bf       	out	0x3d, r24	; 61
    6616:	df 91       	pop	r29
    6618:	cf 91       	pop	r28
    661a:	08 95       	ret

Disassembly of section .text.Start:

00004400 <Start>:
    4400:	0e 94 35 36 	call	0x6c6a	; 0x6c6a <clear>
    4404:	83 e0       	ldi	r24, 0x03	; 3
    4406:	90 e0       	ldi	r25, 0x00	; 0
    4408:	90 93 54 01 	sts	0x0154, r25	; 0x800154 <window+0x1>
    440c:	80 93 53 01 	sts	0x0153, r24	; 0x800153 <window>
    4410:	81 e0       	ldi	r24, 0x01	; 1
    4412:	90 e0       	ldi	r25, 0x00	; 0
    4414:	90 93 14 01 	sts	0x0114, r25	; 0x800114 <Start_stop+0x1>
    4418:	80 93 13 01 	sts	0x0113, r24	; 0x800113 <Start_stop>
    441c:	90 93 60 01 	sts	0x0160, r25	; 0x800160 <Work+0x1>
    4420:	80 93 5f 01 	sts	0x015F, r24	; 0x80015f <Work>
    4424:	8d e0       	ldi	r24, 0x0D	; 13
    4426:	80 93 10 01 	sts	0x0110, r24	; 0x800110 <textx>
    442a:	10 92 1f 01 	sts	0x011F, r1	; 0x80011f <texty>
    442e:	41 e0       	ldi	r20, 0x01	; 1
    4430:	6f e4       	ldi	r22, 0x4F	; 79
    4432:	74 e0       	ldi	r23, 0x04	; 4
    4434:	80 e0       	ldi	r24, 0x00	; 0
    4436:	0e 94 8b 32 	call	0x6516	; 0x6516 <link>
    443a:	86 e0       	ldi	r24, 0x06	; 6
    443c:	80 93 10 01 	sts	0x0110, r24	; 0x800110 <textx>
    4440:	10 92 1f 01 	sts	0x011F, r1	; 0x80011f <texty>
    4444:	41 e0       	ldi	r20, 0x01	; 1
    4446:	61 e5       	ldi	r22, 0x51	; 81
    4448:	74 e0       	ldi	r23, 0x04	; 4
    444a:	80 e0       	ldi	r24, 0x00	; 0
    444c:	0e 94 8b 32 	call	0x6516	; 0x6516 <link>
    4450:	87 e0       	ldi	r24, 0x07	; 7
    4452:	80 93 10 01 	sts	0x0110, r24	; 0x800110 <textx>
    4456:	10 92 1f 01 	sts	0x011F, r1	; 0x80011f <texty>
    445a:	46 e0       	ldi	r20, 0x06	; 6
    445c:	6d e6       	ldi	r22, 0x6D	; 109
    445e:	75 e0       	ldi	r23, 0x05	; 5
    4460:	80 e0       	ldi	r24, 0x00	; 0
    4462:	0e 94 8b 32 	call	0x6516	; 0x6516 <link>
    4466:	80 91 59 01 	lds	r24, 0x0159	; 0x800159 <UK_103>
    446a:	90 91 5a 01 	lds	r25, 0x015A	; 0x80015a <UK_103+0x1>
    446e:	89 2b       	or	r24, r25
    4470:	41 f1       	breq	.+80     	; 0x44c2 <Start+0xc2>
    4472:	80 91 57 01 	lds	r24, 0x0157	; 0x800157 <UK_203>
    4476:	90 91 58 01 	lds	r25, 0x0158	; 0x800158 <UK_203+0x1>
    447a:	89 2b       	or	r24, r25
    447c:	11 f5       	brne	.+68     	; 0x44c2 <Start+0xc2>
    447e:	80 91 55 01 	lds	r24, 0x0155	; 0x800155 <UK_303>
    4482:	90 91 56 01 	lds	r25, 0x0156	; 0x800156 <UK_303+0x1>
    4486:	89 2b       	or	r24, r25
    4488:	e1 f4       	brne	.+56     	; 0x44c2 <Start+0xc2>
    448a:	85 e1       	ldi	r24, 0x15	; 21
    448c:	90 e0       	ldi	r25, 0x00	; 0
    448e:	90 93 5e 01 	sts	0x015E, r25	; 0x80015e <Time+0x1>
    4492:	80 93 5d 01 	sts	0x015D, r24	; 0x80015d <Time>
    4496:	10 92 10 01 	sts	0x0110, r1	; 0x800110 <textx>
    449a:	83 e0       	ldi	r24, 0x03	; 3
    449c:	80 93 1f 01 	sts	0x011F, r24	; 0x80011f <texty>
    44a0:	48 e0       	ldi	r20, 0x08	; 8
    44a2:	64 e7       	ldi	r22, 0x74	; 116
    44a4:	75 e0       	ldi	r23, 0x05	; 5
    44a6:	80 e0       	ldi	r24, 0x00	; 0
    44a8:	0e 94 8b 32 	call	0x6516	; 0x6516 <link>
    44ac:	10 92 10 01 	sts	0x0110, r1	; 0x800110 <textx>
    44b0:	85 e0       	ldi	r24, 0x05	; 5
    44b2:	80 93 1f 01 	sts	0x011F, r24	; 0x80011f <texty>
    44b6:	45 e0       	ldi	r20, 0x05	; 5
    44b8:	6d e7       	ldi	r22, 0x7D	; 125
    44ba:	75 e0       	ldi	r23, 0x05	; 5
    44bc:	80 e0       	ldi	r24, 0x00	; 0
    44be:	0e 94 8b 32 	call	0x6516	; 0x6516 <link>
    44c2:	80 91 59 01 	lds	r24, 0x0159	; 0x800159 <UK_103>
    44c6:	90 91 5a 01 	lds	r25, 0x015A	; 0x80015a <UK_103+0x1>
    44ca:	89 2b       	or	r24, r25
    44cc:	99 f5       	brne	.+102    	; 0x4534 <Start+0x134>
    44ce:	80 91 57 01 	lds	r24, 0x0157	; 0x800157 <UK_203>
    44d2:	90 91 58 01 	lds	r25, 0x0158	; 0x800158 <UK_203+0x1>
    44d6:	89 2b       	or	r24, r25
    44d8:	69 f1       	breq	.+90     	; 0x4534 <Start+0x134>
    44da:	80 91 55 01 	lds	r24, 0x0155	; 0x800155 <UK_303>
    44de:	90 91 56 01 	lds	r25, 0x0156	; 0x800156 <UK_303+0x1>
    44e2:	89 2b       	or	r24, r25
    44e4:	39 f5       	brne	.+78     	; 0x4534 <Start+0x134>
    44e6:	85 e1       	ldi	r24, 0x15	; 21
    44e8:	90 e0       	ldi	r25, 0x00	; 0
    44ea:	90 93 5e 01 	sts	0x015E, r25	; 0x80015e <Time+0x1>
    44ee:	80 93 5d 01 	sts	0x015D, r24	; 0x80015d <Time>
    44f2:	10 92 10 01 	sts	0x0110, r1	; 0x800110 <textx>
    44f6:	83 e0       	ldi	r24, 0x03	; 3
    44f8:	80 93 1f 01 	sts	0x011F, r24	; 0x80011f <texty>
    44fc:	48 e0       	ldi	r20, 0x08	; 8
    44fe:	64 e7       	ldi	r22, 0x74	; 116
    4500:	75 e0       	ldi	r23, 0x05	; 5
    4502:	80 e0       	ldi	r24, 0x00	; 0
    4504:	0e 94 8b 32 	call	0x6516	; 0x6516 <link>
    4508:	10 92 10 01 	sts	0x0110, r1	; 0x800110 <textx>
    450c:	85 e0       	ldi	r24, 0x05	; 5
    450e:	80 93 1f 01 	sts	0x011F, r24	; 0x80011f <texty>
    4512:	46 e0       	ldi	r20, 0x06	; 6
    4514:	63 e8       	ldi	r22, 0x83	; 131
    4516:	75 e0       	ldi	r23, 0x05	; 5
    4518:	80 e0       	ldi	r24, 0x00	; 0
    451a:	0e 94 8b 32 	call	0x6516	; 0x6516 <link>
    451e:	10 92 10 01 	sts	0x0110, r1	; 0x800110 <textx>
    4522:	87 e0       	ldi	r24, 0x07	; 7
    4524:	80 93 1f 01 	sts	0x011F, r24	; 0x80011f <texty>
    4528:	45 e0       	ldi	r20, 0x05	; 5
    452a:	6d e7       	ldi	r22, 0x7D	; 125
    452c:	75 e0       	ldi	r23, 0x05	; 5
    452e:	80 e0       	ldi	r24, 0x00	; 0
    4530:	0e 94 8b 32 	call	0x6516	; 0x6516 <link>
    4534:	80 91 59 01 	lds	r24, 0x0159	; 0x800159 <UK_103>
    4538:	90 91 5a 01 	lds	r25, 0x015A	; 0x80015a <UK_103+0x1>
    453c:	89 2b       	or	r24, r25
    453e:	61 f4       	brne	.+24     	; 0x4558 <Start+0x158>
    4540:	80 91 57 01 	lds	r24, 0x0157	; 0x800157 <UK_203>
    4544:	90 91 58 01 	lds	r25, 0x0158	; 0x800158 <UK_203+0x1>
    4548:	89 2b       	or	r24, r25
    454a:	31 f4       	brne	.+12     	; 0x4558 <Start+0x158>
    454c:	80 91 55 01 	lds	r24, 0x0155	; 0x800155 <UK_303>
    4550:	90 91 56 01 	lds	r25, 0x0156	; 0x800156 <UK_303+0x1>
    4554:	89 2b       	or	r24, r25
    4556:	31 f4       	brne	.+12     	; 0x4564 <Start+0x164>
    4558:	80 91 3f 01 	lds	r24, 0x013F	; 0x80013f <Master>
    455c:	90 91 40 01 	lds	r25, 0x0140	; 0x800140 <Master+0x1>
    4560:	89 2b       	or	r24, r25
    4562:	81 f0       	breq	.+32     	; 0x4584 <Start+0x184>
    4564:	83 e0       	ldi	r24, 0x03	; 3
    4566:	90 e0       	ldi	r25, 0x00	; 0
    4568:	90 93 5e 01 	sts	0x015E, r25	; 0x80015e <Time+0x1>
    456c:	80 93 5d 01 	sts	0x015D, r24	; 0x80015d <Time>
    4570:	10 92 10 01 	sts	0x0110, r1	; 0x800110 <textx>
    4574:	80 93 1f 01 	sts	0x011F, r24	; 0x80011f <texty>
    4578:	46 e0       	ldi	r20, 0x06	; 6
    457a:	6a e8       	ldi	r22, 0x8A	; 138
    457c:	75 e0       	ldi	r23, 0x05	; 5
    457e:	80 e0       	ldi	r24, 0x00	; 0
    4580:	0e 94 8b 32 	call	0x6516	; 0x6516 <link>
    4584:	80 91 3d 01 	lds	r24, 0x013D	; 0x80013d <Slave>
    4588:	90 91 3e 01 	lds	r25, 0x013E	; 0x80013e <Slave+0x1>
    458c:	01 97       	sbiw	r24, 0x01	; 1
    458e:	02 97       	sbiw	r24, 0x02	; 2
    4590:	78 f4       	brcc	.+30     	; 0x45b0 <Start+0x1b0>
    4592:	10 92 5c 01 	sts	0x015C, r1	; 0x80015c <Slave_time+0x1>
    4596:	10 92 5b 01 	sts	0x015B, r1	; 0x80015b <Slave_time>
    459a:	10 92 10 01 	sts	0x0110, r1	; 0x800110 <textx>
    459e:	83 e0       	ldi	r24, 0x03	; 3
    45a0:	80 93 1f 01 	sts	0x011F, r24	; 0x80011f <texty>
    45a4:	40 e1       	ldi	r20, 0x10	; 16
    45a6:	61 e9       	ldi	r22, 0x91	; 145
    45a8:	75 e0       	ldi	r23, 0x05	; 5
    45aa:	80 e0       	ldi	r24, 0x00	; 0
    45ac:	0e 94 8b 32 	call	0x6516	; 0x6516 <link>
    45b0:	08 95       	ret

Disassembly of section .text.Reverse_time:

00005c66 <Reverse_time>:
    5c66:	0f 93       	push	r16
    5c68:	1f 93       	push	r17
    5c6a:	cf 93       	push	r28
    5c6c:	df 93       	push	r29
    5c6e:	00 d0       	rcall	.+0      	; 0x5c70 <Reverse_time+0xa>
    5c70:	0f 92       	push	r0
    5c72:	cd b7       	in	r28, 0x3d	; 61
    5c74:	de b7       	in	r29, 0x3e	; 62
    5c76:	80 91 3d 01 	lds	r24, 0x013D	; 0x80013d <Slave>
    5c7a:	90 91 3e 01 	lds	r25, 0x013E	; 0x80013e <Slave+0x1>
    5c7e:	89 2b       	or	r24, r25
    5c80:	c1 f5       	brne	.+112    	; 0x5cf2 <Reverse_time+0x8c>
    5c82:	19 82       	std	Y+1, r1	; 0x01
    5c84:	1a 82       	std	Y+2, r1	; 0x02
    5c86:	1b 82       	std	Y+3, r1	; 0x03
    5c88:	80 91 5e 01 	lds	r24, 0x015E	; 0x80015e <Time+0x1>
    5c8c:	8f 93       	push	r24
    5c8e:	80 91 5d 01 	lds	r24, 0x015D	; 0x80015d <Time>
    5c92:	8f 93       	push	r24
    5c94:	89 e4       	ldi	r24, 0x49	; 73
    5c96:	94 e0       	ldi	r25, 0x04	; 4
    5c98:	a0 e0       	ldi	r26, 0x00	; 0
    5c9a:	af 93       	push	r26
    5c9c:	9f 93       	push	r25
    5c9e:	8f 93       	push	r24
    5ca0:	8e 01       	movw	r16, r28
    5ca2:	0f 5f       	subi	r16, 0xFF	; 255
    5ca4:	1f 4f       	sbci	r17, 0xFF	; 255
    5ca6:	1f 93       	push	r17
    5ca8:	0f 93       	push	r16
    5caa:	0e 94 b2 37 	call	0x6f64	; 0x6f64 <_sprintf_cdnopuxX>
    5cae:	82 e1       	ldi	r24, 0x12	; 18
    5cb0:	80 93 10 01 	sts	0x0110, r24	; 0x800110 <textx>
    5cb4:	83 e0       	ldi	r24, 0x03	; 3
    5cb6:	80 93 1f 01 	sts	0x011F, r24	; 0x80011f <texty>
    5cba:	b8 01       	movw	r22, r16
    5cbc:	80 e8       	ldi	r24, 0x80	; 128
    5cbe:	43 e0       	ldi	r20, 0x03	; 3
    5cc0:	0e 94 8b 32 	call	0x6516	; 0x6516 <link>
    5cc4:	80 91 5d 01 	lds	r24, 0x015D	; 0x80015d <Time>
    5cc8:	90 91 5e 01 	lds	r25, 0x015E	; 0x80015e <Time+0x1>
    5ccc:	0f b6       	in	r0, 0x3f	; 63
    5cce:	f8 94       	cli
    5cd0:	de bf       	out	0x3e, r29	; 62
    5cd2:	0f be       	out	0x3f, r0	; 63
    5cd4:	cd bf       	out	0x3d, r28	; 61
    5cd6:	09 97       	sbiw	r24, 0x09	; 9
    5cd8:	61 f4       	brne	.+24     	; 0x5cf2 <Reverse_time+0x8c>
    5cda:	83 e1       	ldi	r24, 0x13	; 19
    5cdc:	80 93 10 01 	sts	0x0110, r24	; 0x800110 <textx>
    5ce0:	83 e0       	ldi	r24, 0x03	; 3
    5ce2:	80 93 1f 01 	sts	0x011F, r24	; 0x80011f <texty>
    5ce6:	41 e0       	ldi	r20, 0x01	; 1
    5ce8:	63 e4       	ldi	r22, 0x43	; 67
    5cea:	74 e0       	ldi	r23, 0x04	; 4
    5cec:	80 e0       	ldi	r24, 0x00	; 0
    5cee:	0e 94 8b 32 	call	0x6516	; 0x6516 <link>
    5cf2:	0f 90       	pop	r0
    5cf4:	0f 90       	pop	r0
    5cf6:	0f 90       	pop	r0
    5cf8:	df 91       	pop	r29
    5cfa:	cf 91       	pop	r28
    5cfc:	1f 91       	pop	r17
    5cfe:	0f 91       	pop	r16
    5d00:	08 95       	ret

Disassembly of section .text.Check_box1:

000066b8 <Check_box1>:
    66b8:	40 e1       	ldi	r20, 0x10	; 16
    66ba:	65 e0       	ldi	r22, 0x05	; 5
    66bc:	8d e2       	ldi	r24, 0x2D	; 45
    66be:	0e 94 c5 37 	call	0x6f8a	; 0x6f8a <WriteXY>
    66c2:	60 e1       	ldi	r22, 0x10	; 16
    66c4:	88 e1       	ldi	r24, 0x18	; 24
    66c6:	0e 94 f4 36 	call	0x6de8	; 0x6de8 <WriteData>
    66ca:	60 e1       	ldi	r22, 0x10	; 16
    66cc:	80 e3       	ldi	r24, 0x30	; 48
    66ce:	0e 94 f4 36 	call	0x6de8	; 0x6de8 <WriteData>
    66d2:	60 e1       	ldi	r22, 0x10	; 16
    66d4:	80 e6       	ldi	r24, 0x60	; 96
    66d6:	0e 94 f4 36 	call	0x6de8	; 0x6de8 <WriteData>
    66da:	60 e1       	ldi	r22, 0x10	; 16
    66dc:	80 ec       	ldi	r24, 0xC0	; 192
    66de:	0e 94 f4 36 	call	0x6de8	; 0x6de8 <WriteData>
    66e2:	60 e1       	ldi	r22, 0x10	; 16
    66e4:	80 e3       	ldi	r24, 0x30	; 48
    66e6:	0e 94 f4 36 	call	0x6de8	; 0x6de8 <WriteData>
    66ea:	60 e1       	ldi	r22, 0x10	; 16
    66ec:	8c e0       	ldi	r24, 0x0C	; 12
    66ee:	0e 94 f4 36 	call	0x6de8	; 0x6de8 <WriteData>
    66f2:	60 e1       	ldi	r22, 0x10	; 16
    66f4:	86 e0       	ldi	r24, 0x06	; 6
    66f6:	0e 94 f4 36 	call	0x6de8	; 0x6de8 <WriteData>
    66fa:	60 e1       	ldi	r22, 0x10	; 16
    66fc:	83 e0       	ldi	r24, 0x03	; 3
    66fe:	0e 94 f4 36 	call	0x6de8	; 0x6de8 <WriteData>
    6702:	08 95       	ret

Disassembly of section .text.Check_box2:

00006704 <Check_box2>:
    6704:	40 e1       	ldi	r20, 0x10	; 16
    6706:	67 e0       	ldi	r22, 0x07	; 7
    6708:	8d e2       	ldi	r24, 0x2D	; 45
    670a:	0e 94 c5 37 	call	0x6f8a	; 0x6f8a <WriteXY>
    670e:	60 e1       	ldi	r22, 0x10	; 16
    6710:	88 e1       	ldi	r24, 0x18	; 24
    6712:	0e 94 f4 36 	call	0x6de8	; 0x6de8 <WriteData>
    6716:	60 e1       	ldi	r22, 0x10	; 16
    6718:	80 e3       	ldi	r24, 0x30	; 48
    671a:	0e 94 f4 36 	call	0x6de8	; 0x6de8 <WriteData>
    671e:	60 e1       	ldi	r22, 0x10	; 16
    6720:	80 e6       	ldi	r24, 0x60	; 96
    6722:	0e 94 f4 36 	call	0x6de8	; 0x6de8 <WriteData>
    6726:	60 e1       	ldi	r22, 0x10	; 16
    6728:	80 ec       	ldi	r24, 0xC0	; 192
    672a:	0e 94 f4 36 	call	0x6de8	; 0x6de8 <WriteData>
    672e:	60 e1       	ldi	r22, 0x10	; 16
    6730:	80 e3       	ldi	r24, 0x30	; 48
    6732:	0e 94 f4 36 	call	0x6de8	; 0x6de8 <WriteData>
    6736:	60 e1       	ldi	r22, 0x10	; 16
    6738:	8c e0       	ldi	r24, 0x0C	; 12
    673a:	0e 94 f4 36 	call	0x6de8	; 0x6de8 <WriteData>
    673e:	60 e1       	ldi	r22, 0x10	; 16
    6740:	86 e0       	ldi	r24, 0x06	; 6
    6742:	0e 94 f4 36 	call	0x6de8	; 0x6de8 <WriteData>
    6746:	60 e1       	ldi	r22, 0x10	; 16
    6748:	83 e0       	ldi	r24, 0x03	; 3
    674a:	0e 94 f4 36 	call	0x6de8	; 0x6de8 <WriteData>
    674e:	08 95       	ret

Disassembly of section .text.E1:

0000700e <E1>:



void E1 (void)
{
	clear();
    700e:	0e 94 35 36 	call	0x6c6a	; 0x6c6a <clear>
	textx=6;texty=3;link ("Ошибка Е1",9);       // Уровень
    7012:	86 e0       	ldi	r24, 0x06	; 6
    7014:	80 93 10 01 	sts	0x0110, r24	; 0x800110 <textx>
    7018:	83 e0       	ldi	r24, 0x03	; 3
    701a:	80 93 1f 01 	sts	0x011F, r24	; 0x80011f <texty>
    701e:	49 e0       	ldi	r20, 0x09	; 9
    7020:	62 ea       	ldi	r22, 0xA2	; 162
    7022:	75 e0       	ldi	r23, 0x05	; 5
    7024:	80 e0       	ldi	r24, 0x00	; 0
    7026:	0e 94 8b 32 	call	0x6516	; 0x6516 <link>
    702a:	08 95       	ret

Disassembly of section .text.E2:

00006a18 <E2>:
    6a18:	cf 93       	push	r28
    6a1a:	0e 94 35 36 	call	0x6c6a	; 0x6c6a <clear>
    6a1e:	c6 e0       	ldi	r28, 0x06	; 6
    6a20:	c0 93 10 01 	sts	0x0110, r28	; 0x800110 <textx>
    6a24:	10 92 1f 01 	sts	0x011F, r1	; 0x80011f <texty>
    6a28:	48 e0       	ldi	r20, 0x08	; 8
    6a2a:	6c ea       	ldi	r22, 0xAC	; 172
    6a2c:	75 e0       	ldi	r23, 0x05	; 5
    6a2e:	80 e0       	ldi	r24, 0x00	; 0
    6a30:	0e 94 8b 32 	call	0x6516	; 0x6516 <link>
    6a34:	c0 93 10 01 	sts	0x0110, r28	; 0x800110 <textx>
    6a38:	83 e0       	ldi	r24, 0x03	; 3
    6a3a:	80 93 1f 01 	sts	0x011F, r24	; 0x80011f <texty>
    6a3e:	49 e0       	ldi	r20, 0x09	; 9
    6a40:	65 eb       	ldi	r22, 0xB5	; 181
    6a42:	75 e0       	ldi	r23, 0x05	; 5
    6a44:	80 e0       	ldi	r24, 0x00	; 0
    6a46:	0e 94 8b 32 	call	0x6516	; 0x6516 <link>
    6a4a:	cf 91       	pop	r28
    6a4c:	08 95       	ret

Disassembly of section .text.E3:

00006a4e <E3>:
    6a4e:	cf 93       	push	r28
    6a50:	0e 94 35 36 	call	0x6c6a	; 0x6c6a <clear>
    6a54:	c6 e0       	ldi	r28, 0x06	; 6
    6a56:	c0 93 10 01 	sts	0x0110, r28	; 0x800110 <textx>
    6a5a:	10 92 1f 01 	sts	0x011F, r1	; 0x80011f <texty>
    6a5e:	48 e0       	ldi	r20, 0x08	; 8
    6a60:	6c ea       	ldi	r22, 0xAC	; 172
    6a62:	75 e0       	ldi	r23, 0x05	; 5
    6a64:	80 e0       	ldi	r24, 0x00	; 0
    6a66:	0e 94 8b 32 	call	0x6516	; 0x6516 <link>
    6a6a:	c0 93 10 01 	sts	0x0110, r28	; 0x800110 <textx>
    6a6e:	83 e0       	ldi	r24, 0x03	; 3
    6a70:	80 93 1f 01 	sts	0x011F, r24	; 0x80011f <texty>
    6a74:	49 e0       	ldi	r20, 0x09	; 9
    6a76:	6f eb       	ldi	r22, 0xBF	; 191
    6a78:	75 e0       	ldi	r23, 0x05	; 5
    6a7a:	80 e0       	ldi	r24, 0x00	; 0
    6a7c:	0e 94 8b 32 	call	0x6516	; 0x6516 <link>
    6a80:	cf 91       	pop	r28
    6a82:	08 95       	ret

Disassembly of section .text.E4:

00006a84 <E4>:
    6a84:	cf 93       	push	r28
    6a86:	0e 94 35 36 	call	0x6c6a	; 0x6c6a <clear>
    6a8a:	c6 e0       	ldi	r28, 0x06	; 6
    6a8c:	c0 93 10 01 	sts	0x0110, r28	; 0x800110 <textx>
    6a90:	10 92 1f 01 	sts	0x011F, r1	; 0x80011f <texty>
    6a94:	48 e0       	ldi	r20, 0x08	; 8
    6a96:	6c ea       	ldi	r22, 0xAC	; 172
    6a98:	75 e0       	ldi	r23, 0x05	; 5
    6a9a:	80 e0       	ldi	r24, 0x00	; 0
    6a9c:	0e 94 8b 32 	call	0x6516	; 0x6516 <link>
    6aa0:	c0 93 10 01 	sts	0x0110, r28	; 0x800110 <textx>
    6aa4:	83 e0       	ldi	r24, 0x03	; 3
    6aa6:	80 93 1f 01 	sts	0x011F, r24	; 0x80011f <texty>
    6aaa:	49 e0       	ldi	r20, 0x09	; 9
    6aac:	69 ec       	ldi	r22, 0xC9	; 201
    6aae:	75 e0       	ldi	r23, 0x05	; 5
    6ab0:	80 e0       	ldi	r24, 0x00	; 0
    6ab2:	0e 94 8b 32 	call	0x6516	; 0x6516 <link>
    6ab6:	cf 91       	pop	r28
    6ab8:	08 95       	ret

Disassembly of section .text.E5:

00006aba <E5>:
    6aba:	cf 93       	push	r28
    6abc:	0e 94 35 36 	call	0x6c6a	; 0x6c6a <clear>
    6ac0:	c6 e0       	ldi	r28, 0x06	; 6
    6ac2:	c0 93 10 01 	sts	0x0110, r28	; 0x800110 <textx>
    6ac6:	10 92 1f 01 	sts	0x011F, r1	; 0x80011f <texty>
    6aca:	48 e0       	ldi	r20, 0x08	; 8
    6acc:	6c ea       	ldi	r22, 0xAC	; 172
    6ace:	75 e0       	ldi	r23, 0x05	; 5
    6ad0:	80 e0       	ldi	r24, 0x00	; 0
    6ad2:	0e 94 8b 32 	call	0x6516	; 0x6516 <link>
    6ad6:	c0 93 10 01 	sts	0x0110, r28	; 0x800110 <textx>
    6ada:	83 e0       	ldi	r24, 0x03	; 3
    6adc:	80 93 1f 01 	sts	0x011F, r24	; 0x80011f <texty>
    6ae0:	49 e0       	ldi	r20, 0x09	; 9
    6ae2:	63 ed       	ldi	r22, 0xD3	; 211
    6ae4:	75 e0       	ldi	r23, 0x05	; 5
    6ae6:	80 e0       	ldi	r24, 0x00	; 0
    6ae8:	0e 94 8b 32 	call	0x6516	; 0x6516 <link>
    6aec:	cf 91       	pop	r28
    6aee:	08 95       	ret

Disassembly of section .text.E6:

00006af0 <E6>:
    6af0:	cf 93       	push	r28
    6af2:	0e 94 35 36 	call	0x6c6a	; 0x6c6a <clear>
    6af6:	c6 e0       	ldi	r28, 0x06	; 6
    6af8:	c0 93 10 01 	sts	0x0110, r28	; 0x800110 <textx>
    6afc:	10 92 1f 01 	sts	0x011F, r1	; 0x80011f <texty>
    6b00:	48 e0       	ldi	r20, 0x08	; 8
    6b02:	6c ea       	ldi	r22, 0xAC	; 172
    6b04:	75 e0       	ldi	r23, 0x05	; 5
    6b06:	80 e0       	ldi	r24, 0x00	; 0
    6b08:	0e 94 8b 32 	call	0x6516	; 0x6516 <link>
    6b0c:	c0 93 10 01 	sts	0x0110, r28	; 0x800110 <textx>
    6b10:	83 e0       	ldi	r24, 0x03	; 3
    6b12:	80 93 1f 01 	sts	0x011F, r24	; 0x80011f <texty>
    6b16:	49 e0       	ldi	r20, 0x09	; 9
    6b18:	6d ed       	ldi	r22, 0xDD	; 221
    6b1a:	75 e0       	ldi	r23, 0x05	; 5
    6b1c:	80 e0       	ldi	r24, 0x00	; 0
    6b1e:	0e 94 8b 32 	call	0x6516	; 0x6516 <link>
    6b22:	cf 91       	pop	r28
    6b24:	08 95       	ret

Disassembly of section .text.E7:

00006b26 <E7>:
    6b26:	cf 93       	push	r28
    6b28:	0e 94 35 36 	call	0x6c6a	; 0x6c6a <clear>
    6b2c:	c6 e0       	ldi	r28, 0x06	; 6
    6b2e:	c0 93 10 01 	sts	0x0110, r28	; 0x800110 <textx>
    6b32:	10 92 1f 01 	sts	0x011F, r1	; 0x80011f <texty>
    6b36:	48 e0       	ldi	r20, 0x08	; 8
    6b38:	6c ea       	ldi	r22, 0xAC	; 172
    6b3a:	75 e0       	ldi	r23, 0x05	; 5
    6b3c:	80 e0       	ldi	r24, 0x00	; 0
    6b3e:	0e 94 8b 32 	call	0x6516	; 0x6516 <link>
    6b42:	c0 93 10 01 	sts	0x0110, r28	; 0x800110 <textx>
    6b46:	83 e0       	ldi	r24, 0x03	; 3
    6b48:	80 93 1f 01 	sts	0x011F, r24	; 0x80011f <texty>
    6b4c:	49 e0       	ldi	r20, 0x09	; 9
    6b4e:	67 ee       	ldi	r22, 0xE7	; 231
    6b50:	75 e0       	ldi	r23, 0x05	; 5
    6b52:	80 e0       	ldi	r24, 0x00	; 0
    6b54:	0e 94 8b 32 	call	0x6516	; 0x6516 <link>
    6b58:	cf 91       	pop	r28
    6b5a:	08 95       	ret

Disassembly of section .text.E8:

00006b5c <E8>:
    6b5c:	cf 93       	push	r28
    6b5e:	0e 94 35 36 	call	0x6c6a	; 0x6c6a <clear>
    6b62:	c6 e0       	ldi	r28, 0x06	; 6
    6b64:	c0 93 10 01 	sts	0x0110, r28	; 0x800110 <textx>
    6b68:	10 92 1f 01 	sts	0x011F, r1	; 0x80011f <texty>
    6b6c:	48 e0       	ldi	r20, 0x08	; 8
    6b6e:	6c ea       	ldi	r22, 0xAC	; 172
    6b70:	75 e0       	ldi	r23, 0x05	; 5
    6b72:	80 e0       	ldi	r24, 0x00	; 0
    6b74:	0e 94 8b 32 	call	0x6516	; 0x6516 <link>
    6b78:	c0 93 10 01 	sts	0x0110, r28	; 0x800110 <textx>
    6b7c:	83 e0       	ldi	r24, 0x03	; 3
    6b7e:	80 93 1f 01 	sts	0x011F, r24	; 0x80011f <texty>
    6b82:	49 e0       	ldi	r20, 0x09	; 9
    6b84:	61 ef       	ldi	r22, 0xF1	; 241
    6b86:	75 e0       	ldi	r23, 0x05	; 5
    6b88:	80 e0       	ldi	r24, 0x00	; 0
    6b8a:	0e 94 8b 32 	call	0x6516	; 0x6516 <link>
    6b8e:	cf 91       	pop	r28
    6b90:	08 95       	ret

Disassembly of section .text.E9:

00006b92 <E9>:
    6b92:	cf 93       	push	r28
    6b94:	0e 94 35 36 	call	0x6c6a	; 0x6c6a <clear>
    6b98:	c6 e0       	ldi	r28, 0x06	; 6
    6b9a:	c0 93 10 01 	sts	0x0110, r28	; 0x800110 <textx>
    6b9e:	10 92 1f 01 	sts	0x011F, r1	; 0x80011f <texty>
    6ba2:	48 e0       	ldi	r20, 0x08	; 8
    6ba4:	6c ea       	ldi	r22, 0xAC	; 172
    6ba6:	75 e0       	ldi	r23, 0x05	; 5
    6ba8:	80 e0       	ldi	r24, 0x00	; 0
    6baa:	0e 94 8b 32 	call	0x6516	; 0x6516 <link>
    6bae:	c0 93 10 01 	sts	0x0110, r28	; 0x800110 <textx>
    6bb2:	83 e0       	ldi	r24, 0x03	; 3
    6bb4:	80 93 1f 01 	sts	0x011F, r24	; 0x80011f <texty>
    6bb8:	49 e0       	ldi	r20, 0x09	; 9
    6bba:	6b ef       	ldi	r22, 0xFB	; 251
    6bbc:	75 e0       	ldi	r23, 0x05	; 5
    6bbe:	80 e0       	ldi	r24, 0x00	; 0
    6bc0:	0e 94 8b 32 	call	0x6516	; 0x6516 <link>
    6bc4:	cf 91       	pop	r28
    6bc6:	08 95       	ret

Disassembly of section .text.E10:

00006bc8 <E10>:
    6bc8:	cf 93       	push	r28
    6bca:	0e 94 35 36 	call	0x6c6a	; 0x6c6a <clear>
    6bce:	c6 e0       	ldi	r28, 0x06	; 6
    6bd0:	c0 93 10 01 	sts	0x0110, r28	; 0x800110 <textx>
    6bd4:	10 92 1f 01 	sts	0x011F, r1	; 0x80011f <texty>
    6bd8:	48 e0       	ldi	r20, 0x08	; 8
    6bda:	6c ea       	ldi	r22, 0xAC	; 172
    6bdc:	75 e0       	ldi	r23, 0x05	; 5
    6bde:	80 e0       	ldi	r24, 0x00	; 0
    6be0:	0e 94 8b 32 	call	0x6516	; 0x6516 <link>
    6be4:	c0 93 10 01 	sts	0x0110, r28	; 0x800110 <textx>
    6be8:	83 e0       	ldi	r24, 0x03	; 3
    6bea:	80 93 1f 01 	sts	0x011F, r24	; 0x80011f <texty>
    6bee:	4a e0       	ldi	r20, 0x0A	; 10
    6bf0:	65 e0       	ldi	r22, 0x05	; 5
    6bf2:	76 e0       	ldi	r23, 0x06	; 6
    6bf4:	80 e0       	ldi	r24, 0x00	; 0
    6bf6:	0e 94 8b 32 	call	0x6516	; 0x6516 <link>
    6bfa:	cf 91       	pop	r28
    6bfc:	08 95       	ret

Disassembly of section .text.E11:

00006bfe <E11>:
    6bfe:	cf 93       	push	r28
    6c00:	0e 94 35 36 	call	0x6c6a	; 0x6c6a <clear>
    6c04:	c6 e0       	ldi	r28, 0x06	; 6
    6c06:	c0 93 10 01 	sts	0x0110, r28	; 0x800110 <textx>
    6c0a:	10 92 1f 01 	sts	0x011F, r1	; 0x80011f <texty>
    6c0e:	48 e0       	ldi	r20, 0x08	; 8
    6c10:	6c ea       	ldi	r22, 0xAC	; 172
    6c12:	75 e0       	ldi	r23, 0x05	; 5
    6c14:	80 e0       	ldi	r24, 0x00	; 0
    6c16:	0e 94 8b 32 	call	0x6516	; 0x6516 <link>
    6c1a:	c0 93 10 01 	sts	0x0110, r28	; 0x800110 <textx>
    6c1e:	83 e0       	ldi	r24, 0x03	; 3
    6c20:	80 93 1f 01 	sts	0x011F, r24	; 0x80011f <texty>
    6c24:	4a e0       	ldi	r20, 0x0A	; 10
    6c26:	60 e1       	ldi	r22, 0x10	; 16
    6c28:	76 e0       	ldi	r23, 0x06	; 6
    6c2a:	80 e0       	ldi	r24, 0x00	; 0
    6c2c:	0e 94 8b 32 	call	0x6516	; 0x6516 <link>
    6c30:	cf 91       	pop	r28
    6c32:	08 95       	ret

Disassembly of section .text.fun:

00005fde <fun>:
    5fde:	40 e2       	ldi	r20, 0x20	; 32
    5fe0:	60 e0       	ldi	r22, 0x00	; 0
    5fe2:	81 e0       	ldi	r24, 0x01	; 1
    5fe4:	0e 94 c5 37 	call	0x6f8a	; 0x6f8a <WriteXY>
    5fe8:	60 e2       	ldi	r22, 0x20	; 32
    5fea:	88 e0       	ldi	r24, 0x08	; 8
    5fec:	0e 94 f4 36 	call	0x6de8	; 0x6de8 <WriteData>
    5ff0:	60 e2       	ldi	r22, 0x20	; 32
    5ff2:	8a e2       	ldi	r24, 0x2A	; 42
    5ff4:	0e 94 f4 36 	call	0x6de8	; 0x6de8 <WriteData>
    5ff8:	60 e2       	ldi	r22, 0x20	; 32
    5ffa:	8c e1       	ldi	r24, 0x1C	; 28
    5ffc:	0e 94 f4 36 	call	0x6de8	; 0x6de8 <WriteData>
    6000:	60 e2       	ldi	r22, 0x20	; 32
    6002:	8f e7       	ldi	r24, 0x7F	; 127
    6004:	0e 94 f4 36 	call	0x6de8	; 0x6de8 <WriteData>
    6008:	60 e2       	ldi	r22, 0x20	; 32
    600a:	8c e1       	ldi	r24, 0x1C	; 28
    600c:	0e 94 f4 36 	call	0x6de8	; 0x6de8 <WriteData>
    6010:	60 e2       	ldi	r22, 0x20	; 32
    6012:	8a e2       	ldi	r24, 0x2A	; 42
    6014:	0e 94 f4 36 	call	0x6de8	; 0x6de8 <WriteData>
    6018:	60 e2       	ldi	r22, 0x20	; 32
    601a:	88 e0       	ldi	r24, 0x08	; 8
    601c:	0e 94 f4 36 	call	0x6de8	; 0x6de8 <WriteData>
    6020:	40 e1       	ldi	r20, 0x10	; 16
    6022:	60 e0       	ldi	r22, 0x00	; 0
    6024:	88 e2       	ldi	r24, 0x28	; 40
    6026:	0e 94 c5 37 	call	0x6f8a	; 0x6f8a <WriteXY>
    602a:	60 e1       	ldi	r22, 0x10	; 16
    602c:	81 e7       	ldi	r24, 0x71	; 113
    602e:	0e 94 f4 36 	call	0x6de8	; 0x6de8 <WriteData>
    6032:	60 e1       	ldi	r22, 0x10	; 16
    6034:	8e e8       	ldi	r24, 0x8E	; 142
    6036:	0e 94 f4 36 	call	0x6de8	; 0x6de8 <WriteData>
    603a:	60 e1       	ldi	r22, 0x10	; 16
    603c:	80 e0       	ldi	r24, 0x00	; 0
    603e:	0e 94 f4 36 	call	0x6de8	; 0x6de8 <WriteData>
    6042:	60 e1       	ldi	r22, 0x10	; 16
    6044:	81 e7       	ldi	r24, 0x71	; 113
    6046:	0e 94 f4 36 	call	0x6de8	; 0x6de8 <WriteData>
    604a:	60 e1       	ldi	r22, 0x10	; 16
    604c:	8e e8       	ldi	r24, 0x8E	; 142
    604e:	0e 94 f4 36 	call	0x6de8	; 0x6de8 <WriteData>
    6052:	60 e1       	ldi	r22, 0x10	; 16
    6054:	80 e0       	ldi	r24, 0x00	; 0
    6056:	0e 94 f4 36 	call	0x6de8	; 0x6de8 <WriteData>
    605a:	08 95       	ret

Disassembly of section .text.__vector_16:

00004a2c <__vector_16>:
    4a2c:	1f 92       	push	r1
    4a2e:	0f 92       	push	r0
    4a30:	0f b6       	in	r0, 0x3f	; 63
    4a32:	0f 92       	push	r0
    4a34:	11 24       	eor	r1, r1
    4a36:	2f 93       	push	r18
    4a38:	8f 93       	push	r24
    4a3a:	9f 93       	push	r25
    4a3c:	ef 93       	push	r30
    4a3e:	ff 93       	push	r31
    4a40:	82 b7       	in	r24, 0x32	; 50
    4a42:	88 50       	subi	r24, 0x08	; 8
    4a44:	82 bf       	out	0x32, r24	; 50
    4a46:	80 91 69 01 	lds	r24, 0x0169	; 0x800169 <flag_tx_busy>
    4a4a:	88 23       	and	r24, r24
    4a4c:	89 f1       	breq	.+98     	; 0x4ab0 <__vector_16+0x84>
    4a4e:	80 91 68 01 	lds	r24, 0x0168	; 0x800168 <timer_tx_ctr>
    4a52:	81 50       	subi	r24, 0x01	; 1
    4a54:	80 93 68 01 	sts	0x0168, r24	; 0x800168 <timer_tx_ctr>
    4a58:	80 91 68 01 	lds	r24, 0x0168	; 0x800168 <timer_tx_ctr>
    4a5c:	81 11       	cpse	r24, r1
    4a5e:	28 c0       	rjmp	.+80     	; 0x4ab0 <__vector_16+0x84>
    4a60:	80 91 61 01 	lds	r24, 0x0161	; 0x800161 <internal_tx_buffer>
    4a64:	90 91 62 01 	lds	r25, 0x0162	; 0x800162 <internal_tx_buffer+0x1>
    4a68:	80 ff       	sbrs	r24, 0
    4a6a:	04 c0       	rjmp	.+8      	; 0x4a74 <__vector_16+0x48>
    4a6c:	88 b3       	in	r24, 0x18	; 24
    4a6e:	88 60       	ori	r24, 0x08	; 8
    4a70:	88 bb       	out	0x18, r24	; 24
    4a72:	03 c0       	rjmp	.+6      	; 0x4a7a <__vector_16+0x4e>
    4a74:	88 b3       	in	r24, 0x18	; 24
    4a76:	87 7f       	andi	r24, 0xF7	; 247
    4a78:	88 bb       	out	0x18, r24	; 24
    4a7a:	80 91 61 01 	lds	r24, 0x0161	; 0x800161 <internal_tx_buffer>
    4a7e:	90 91 62 01 	lds	r25, 0x0162	; 0x800162 <internal_tx_buffer+0x1>
    4a82:	96 95       	lsr	r25
    4a84:	87 95       	ror	r24
    4a86:	90 93 62 01 	sts	0x0162, r25	; 0x800162 <internal_tx_buffer+0x1>
    4a8a:	80 93 61 01 	sts	0x0161, r24	; 0x800161 <internal_tx_buffer>
    4a8e:	83 e0       	ldi	r24, 0x03	; 3
    4a90:	80 93 68 01 	sts	0x0168, r24	; 0x800168 <timer_tx_ctr>
    4a94:	80 91 67 01 	lds	r24, 0x0167	; 0x800167 <bits_left_in_tx>
    4a98:	81 50       	subi	r24, 0x01	; 1
    4a9a:	80 93 67 01 	sts	0x0167, r24	; 0x800167 <bits_left_in_tx>
    4a9e:	80 91 67 01 	lds	r24, 0x0167	; 0x800167 <bits_left_in_tx>
    4aa2:	81 11       	cpse	r24, r1
    4aa4:	05 c0       	rjmp	.+10     	; 0x4ab0 <__vector_16+0x84>
    4aa6:	10 92 69 01 	sts	0x0169, r1	; 0x800169 <flag_tx_busy>
    4aaa:	88 b3       	in	r24, 0x18	; 24
    4aac:	88 60       	ori	r24, 0x08	; 8
    4aae:	88 bb       	out	0x18, r24	; 24
    4ab0:	80 91 6d 01 	lds	r24, 0x016D	; 0x80016d <flag_rx_off>
    4ab4:	81 11       	cpse	r24, r1
    4ab6:	5e c0       	rjmp	.+188    	; 0x4b74 <__vector_16+0x148>
    4ab8:	80 91 6e 01 	lds	r24, 0x016E	; 0x80016e <flag_rx_waiting_for_stop_bit>
    4abc:	88 23       	and	r24, r24
    4abe:	f1 f0       	breq	.+60     	; 0x4afc <__vector_16+0xd0>
    4ac0:	80 91 6b 01 	lds	r24, 0x016B	; 0x80016b <timer_rx_ctr>
    4ac4:	81 50       	subi	r24, 0x01	; 1
    4ac6:	80 93 6b 01 	sts	0x016B, r24	; 0x80016b <timer_rx_ctr>
    4aca:	81 11       	cpse	r24, r1
    4acc:	53 c0       	rjmp	.+166    	; 0x4b74 <__vector_16+0x148>
    4ace:	10 92 6e 01 	sts	0x016E, r1	; 0x80016e <flag_rx_waiting_for_stop_bit>
    4ad2:	10 92 6f 01 	sts	0x016F, r1	; 0x80016f <flag_rx_ready>
    4ad6:	80 91 3b 01 	lds	r24, 0x013B	; 0x80013b <internal_rx_buffer.2846>
    4ada:	e0 91 71 01 	lds	r30, 0x0171	; 0x800171 <qin>
    4ade:	f0 e0       	ldi	r31, 0x00	; 0
    4ae0:	ec 5d       	subi	r30, 0xDC	; 220
    4ae2:	fe 4f       	sbci	r31, 0xFE	; 254
    4ae4:	80 83       	st	Z, r24
    4ae6:	80 91 71 01 	lds	r24, 0x0171	; 0x800171 <qin>
    4aea:	8f 5f       	subi	r24, 0xFF	; 255
    4aec:	80 93 71 01 	sts	0x0171, r24	; 0x800171 <qin>
    4af0:	88 30       	cpi	r24, 0x08	; 8
    4af2:	08 f4       	brcc	.+2      	; 0x4af6 <__vector_16+0xca>
    4af4:	3f c0       	rjmp	.+126    	; 0x4b74 <__vector_16+0x148>
    4af6:	10 92 71 01 	sts	0x0171, r1	; 0x800171 <qin>
    4afa:	3c c0       	rjmp	.+120    	; 0x4b74 <__vector_16+0x148>
    4afc:	80 91 6f 01 	lds	r24, 0x016F	; 0x80016f <flag_rx_ready>
    4b00:	81 11       	cpse	r24, r1
    4b02:	12 c0       	rjmp	.+36     	; 0x4b28 <__vector_16+0xfc>
    4b04:	b0 99       	sbic	0x16, 0	; 22
    4b06:	36 c0       	rjmp	.+108    	; 0x4b74 <__vector_16+0x148>
    4b08:	81 e0       	ldi	r24, 0x01	; 1
    4b0a:	80 93 6f 01 	sts	0x016F, r24	; 0x80016f <flag_rx_ready>
    4b0e:	10 92 3c 01 	sts	0x013C, r1	; 0x80013c <internal_rx_buffer.2846+0x1>
    4b12:	10 92 3b 01 	sts	0x013B, r1	; 0x80013b <internal_rx_buffer.2846>
    4b16:	94 e0       	ldi	r25, 0x04	; 4
    4b18:	90 93 6b 01 	sts	0x016B, r25	; 0x80016b <timer_rx_ctr>
    4b1c:	9a e0       	ldi	r25, 0x0A	; 10
    4b1e:	90 93 6a 01 	sts	0x016A, r25	; 0x80016a <bits_left_in_rx>
    4b22:	80 93 6c 01 	sts	0x016C, r24	; 0x80016c <rx_mask>
    4b26:	26 c0       	rjmp	.+76     	; 0x4b74 <__vector_16+0x148>
    4b28:	80 91 6b 01 	lds	r24, 0x016B	; 0x80016b <timer_rx_ctr>
    4b2c:	81 50       	subi	r24, 0x01	; 1
    4b2e:	80 93 6b 01 	sts	0x016B, r24	; 0x80016b <timer_rx_ctr>
    4b32:	81 11       	cpse	r24, r1
    4b34:	1f c0       	rjmp	.+62     	; 0x4b74 <__vector_16+0x148>
    4b36:	83 e0       	ldi	r24, 0x03	; 3
    4b38:	80 93 6b 01 	sts	0x016B, r24	; 0x80016b <timer_rx_ctr>
    4b3c:	b0 9b       	sbis	0x16, 0	; 22
    4b3e:	0b c0       	rjmp	.+22     	; 0x4b56 <__vector_16+0x12a>
    4b40:	20 91 6c 01 	lds	r18, 0x016C	; 0x80016c <rx_mask>
    4b44:	80 91 3b 01 	lds	r24, 0x013B	; 0x80013b <internal_rx_buffer.2846>
    4b48:	90 91 3c 01 	lds	r25, 0x013C	; 0x80013c <internal_rx_buffer.2846+0x1>
    4b4c:	82 2b       	or	r24, r18
    4b4e:	90 93 3c 01 	sts	0x013C, r25	; 0x80013c <internal_rx_buffer.2846+0x1>
    4b52:	80 93 3b 01 	sts	0x013B, r24	; 0x80013b <internal_rx_buffer.2846>
    4b56:	80 91 6c 01 	lds	r24, 0x016C	; 0x80016c <rx_mask>
    4b5a:	88 0f       	add	r24, r24
    4b5c:	80 93 6c 01 	sts	0x016C, r24	; 0x80016c <rx_mask>
    4b60:	80 91 6a 01 	lds	r24, 0x016A	; 0x80016a <bits_left_in_rx>
    4b64:	81 50       	subi	r24, 0x01	; 1
    4b66:	80 93 6a 01 	sts	0x016A, r24	; 0x80016a <bits_left_in_rx>
    4b6a:	81 11       	cpse	r24, r1
    4b6c:	03 c0       	rjmp	.+6      	; 0x4b74 <__vector_16+0x148>
    4b6e:	81 e0       	ldi	r24, 0x01	; 1
    4b70:	80 93 6e 01 	sts	0x016E, r24	; 0x80016e <flag_rx_waiting_for_stop_bit>
    4b74:	ff 91       	pop	r31
    4b76:	ef 91       	pop	r30
    4b78:	9f 91       	pop	r25
    4b7a:	8f 91       	pop	r24
    4b7c:	2f 91       	pop	r18
    4b7e:	0f 90       	pop	r0
    4b80:	0f be       	out	0x3f, r0	; 63
    4b82:	0f 90       	pop	r0
    4b84:	1f 90       	pop	r1
    4b86:	18 95       	reti

Disassembly of section .text.SUART_Init:

000069a8 <SUART_Init>:
    69a8:	10 92 69 01 	sts	0x0169, r1	; 0x800169 <flag_tx_busy>
    69ac:	10 92 6f 01 	sts	0x016F, r1	; 0x80016f <flag_rx_ready>
    69b0:	10 92 6e 01 	sts	0x016E, r1	; 0x80016e <flag_rx_waiting_for_stop_bit>
    69b4:	10 92 6d 01 	sts	0x016D, r1	; 0x80016d <flag_rx_off>
    69b8:	87 b3       	in	r24, 0x17	; 23
    69ba:	8e 7f       	andi	r24, 0xFE	; 254
    69bc:	87 bb       	out	0x17, r24	; 23
    69be:	88 b3       	in	r24, 0x18	; 24
    69c0:	81 60       	ori	r24, 0x01	; 1
    69c2:	88 bb       	out	0x18, r24	; 24
    69c4:	87 b3       	in	r24, 0x17	; 23
    69c6:	88 60       	ori	r24, 0x08	; 8
    69c8:	87 bb       	out	0x17, r24	; 23
    69ca:	88 b3       	in	r24, 0x18	; 24
    69cc:	88 60       	ori	r24, 0x08	; 8
    69ce:	88 bb       	out	0x18, r24	; 24
    69d0:	82 e0       	ldi	r24, 0x02	; 2
    69d2:	83 bf       	out	0x33, r24	; 51
    69d4:	88 ef       	ldi	r24, 0xF8	; 248
    69d6:	82 bf       	out	0x32, r24	; 50
    69d8:	87 b7       	in	r24, 0x37	; 55
    69da:	81 60       	ori	r24, 0x01	; 1
    69dc:	87 bf       	out	0x37, r24	; 55
    69de:	08 95       	ret

Disassembly of section .text.SUART_FlushInBuf:

000071ec <SUART_FlushInBuf>:
}


void SUART_FlushInBuf(void)
{
   qin = 0;
    71ec:	10 92 71 01 	sts	0x0171, r1	; 0x800171 <qin>
   qout = 0;
    71f0:	10 92 70 01 	sts	0x0170, r1	; 0x800170 <qout>
    71f4:	08 95       	ret

Disassembly of section .text.SUART_PutChar:

00006e40 <SUART_PutChar>:



void SUART_PutChar(char ch)
{
   while(flag_tx_busy){};
    6e40:	90 91 69 01 	lds	r25, 0x0169	; 0x800169 <flag_tx_busy>
    6e44:	91 11       	cpse	r25, r1
    6e46:	fc cf       	rjmp	.-8      	; 0x6e40 <SUART_PutChar>
   timer_tx_ctr = NUM_OF_CYCLES;
    6e48:	93 e0       	ldi	r25, 0x03	; 3
    6e4a:	90 93 68 01 	sts	0x0168, r25	; 0x800168 <timer_tx_ctr>
   bits_left_in_tx = TX_NUM_OF_BITS;
    6e4e:	9a e0       	ldi	r25, 0x0A	; 10
    6e50:	90 93 67 01 	sts	0x0167, r25	; 0x800167 <bits_left_in_tx>
   internal_tx_buffer = ((uint16_t)ch<<1) | 0x200;
    6e54:	90 e0       	ldi	r25, 0x00	; 0
    6e56:	88 0f       	add	r24, r24
    6e58:	99 1f       	adc	r25, r25
    6e5a:	92 60       	ori	r25, 0x02	; 2
    6e5c:	90 93 62 01 	sts	0x0162, r25	; 0x800162 <internal_tx_buffer+0x1>
    6e60:	80 93 61 01 	sts	0x0161, r24	; 0x800161 <internal_tx_buffer>
   flag_tx_busy = TRUE;
    6e64:	81 e0       	ldi	r24, 0x01	; 1
    6e66:	80 93 69 01 	sts	0x0169, r24	; 0x800169 <flag_tx_busy>
    6e6a:	08 95       	ret

Disassembly of section .text.SUART_PutStr:

00006e6c <SUART_PutStr>:
}

void SUART_PutStr(const char *str)
{  
    6e6c:	cf 92       	push	r12
    6e6e:	df 92       	push	r13
    6e70:	ef 92       	push	r14
    6e72:	6b 01       	movw	r12, r22
    6e74:	e8 2e       	mov	r14, r24
   char ch;
   while (*str)
    6e76:	06 c0       	rjmp	.+12     	; 0x6e84 <SUART_PutStr+0x18>
   {
      ch = *str++;
    6e78:	9f ef       	ldi	r25, 0xFF	; 255
    6e7a:	c9 1a       	sub	r12, r25
    6e7c:	d9 0a       	sbc	r13, r25
    6e7e:	e9 0a       	sbc	r14, r25
      SUART_PutChar(ch);
    6e80:	0e 94 20 37 	call	0x6e40	; 0x6e40 <SUART_PutChar>
}

void SUART_PutStr(const char *str)
{  
   char ch;
   while (*str)
    6e84:	f6 01       	movw	r30, r12
    6e86:	84 91       	lpm	r24, Z
    6e88:	e7 fc       	sbrc	r14, 7
    6e8a:	80 81       	ld	r24, Z
    6e8c:	81 11       	cpse	r24, r1
    6e8e:	f4 cf       	rjmp	.-24     	; 0x6e78 <SUART_PutStr+0xc>
   {
      ch = *str++;
      SUART_PutChar(ch);
   }
}
    6e90:	ef 90       	pop	r14
    6e92:	df 90       	pop	r13
    6e94:	cf 90       	pop	r12
    6e96:	08 95       	ret

Disassembly of section .text.CursorLan1:

000061ba <CursorLan1>:
   flag_rx_off = FALSE;
}

void SUART_TurnRxOff(void)
{
   flag_rx_off = TRUE;
    61ba:	1f 93       	push	r17
    61bc:	cf 93       	push	r28
    61be:	df 93       	push	r29
    61c0:	c3 e0       	ldi	r28, 0x03	; 3
    61c2:	c0 93 10 01 	sts	0x0110, r28	; 0x800110 <textx>
    61c6:	12 e0       	ldi	r17, 0x02	; 2
    61c8:	10 93 1f 01 	sts	0x011F, r17	; 0x80011f <texty>
    61cc:	41 e0       	ldi	r20, 0x01	; 1
    61ce:	61 e5       	ldi	r22, 0x51	; 81
    61d0:	74 e0       	ldi	r23, 0x04	; 4
    61d2:	80 e0       	ldi	r24, 0x00	; 0
    61d4:	0e 94 8b 32 	call	0x6516	; 0x6516 <link>
    61d8:	d1 e1       	ldi	r29, 0x11	; 17
    61da:	d0 93 10 01 	sts	0x0110, r29	; 0x800110 <textx>
    61de:	10 93 1f 01 	sts	0x011F, r17	; 0x80011f <texty>
    61e2:	41 e0       	ldi	r20, 0x01	; 1
    61e4:	6f e4       	ldi	r22, 0x4F	; 79
    61e6:	74 e0       	ldi	r23, 0x04	; 4
    61e8:	80 e0       	ldi	r24, 0x00	; 0
    61ea:	0e 94 8b 32 	call	0x6516	; 0x6516 <link>
    61ee:	c0 93 10 01 	sts	0x0110, r28	; 0x800110 <textx>
    61f2:	c4 e0       	ldi	r28, 0x04	; 4
    61f4:	c0 93 1f 01 	sts	0x011F, r28	; 0x80011f <texty>
    61f8:	41 e0       	ldi	r20, 0x01	; 1
    61fa:	63 e4       	ldi	r22, 0x43	; 67
    61fc:	74 e0       	ldi	r23, 0x04	; 4
    61fe:	80 e0       	ldi	r24, 0x00	; 0
    6200:	0e 94 8b 32 	call	0x6516	; 0x6516 <link>
    6204:	d0 93 10 01 	sts	0x0110, r29	; 0x800110 <textx>
    6208:	c0 93 1f 01 	sts	0x011F, r28	; 0x80011f <texty>
    620c:	41 e0       	ldi	r20, 0x01	; 1
    620e:	63 e4       	ldi	r22, 0x43	; 67
    6210:	74 e0       	ldi	r23, 0x04	; 4
    6212:	80 e0       	ldi	r24, 0x00	; 0
    6214:	0e 94 8b 32 	call	0x6516	; 0x6516 <link>
    6218:	81 e0       	ldi	r24, 0x01	; 1
    621a:	90 e0       	ldi	r25, 0x00	; 0
    621c:	90 93 50 01 	sts	0x0150, r25	; 0x800150 <cursor_lan+0x1>
    6220:	80 93 4f 01 	sts	0x014F, r24	; 0x80014f <cursor_lan>
    6224:	df 91       	pop	r29
    6226:	cf 91       	pop	r28
    6228:	1f 91       	pop	r17
    622a:	08 95       	ret

Disassembly of section .text.CursorLan2:

00005d02 <CursorLan2>:
    5d02:	1f 93       	push	r17
    5d04:	cf 93       	push	r28
    5d06:	df 93       	push	r29
    5d08:	d3 e0       	ldi	r29, 0x03	; 3
    5d0a:	d0 93 10 01 	sts	0x0110, r29	; 0x800110 <textx>
    5d0e:	14 e0       	ldi	r17, 0x04	; 4
    5d10:	10 93 1f 01 	sts	0x011F, r17	; 0x80011f <texty>
    5d14:	41 e0       	ldi	r20, 0x01	; 1
    5d16:	61 e5       	ldi	r22, 0x51	; 81
    5d18:	74 e0       	ldi	r23, 0x04	; 4
    5d1a:	80 e0       	ldi	r24, 0x00	; 0
    5d1c:	0e 94 8b 32 	call	0x6516	; 0x6516 <link>
    5d20:	c1 e1       	ldi	r28, 0x11	; 17
    5d22:	c0 93 10 01 	sts	0x0110, r28	; 0x800110 <textx>
    5d26:	10 93 1f 01 	sts	0x011F, r17	; 0x80011f <texty>
    5d2a:	41 e0       	ldi	r20, 0x01	; 1
    5d2c:	6f e4       	ldi	r22, 0x4F	; 79
    5d2e:	74 e0       	ldi	r23, 0x04	; 4
    5d30:	80 e0       	ldi	r24, 0x00	; 0
    5d32:	0e 94 8b 32 	call	0x6516	; 0x6516 <link>
    5d36:	d0 93 10 01 	sts	0x0110, r29	; 0x800110 <textx>
    5d3a:	12 e0       	ldi	r17, 0x02	; 2
    5d3c:	10 93 1f 01 	sts	0x011F, r17	; 0x80011f <texty>
    5d40:	41 e0       	ldi	r20, 0x01	; 1
    5d42:	63 e4       	ldi	r22, 0x43	; 67
    5d44:	74 e0       	ldi	r23, 0x04	; 4
    5d46:	80 e0       	ldi	r24, 0x00	; 0
    5d48:	0e 94 8b 32 	call	0x6516	; 0x6516 <link>
    5d4c:	c0 93 10 01 	sts	0x0110, r28	; 0x800110 <textx>
    5d50:	10 93 1f 01 	sts	0x011F, r17	; 0x80011f <texty>
    5d54:	41 e0       	ldi	r20, 0x01	; 1
    5d56:	63 e4       	ldi	r22, 0x43	; 67
    5d58:	74 e0       	ldi	r23, 0x04	; 4
    5d5a:	80 e0       	ldi	r24, 0x00	; 0
    5d5c:	0e 94 8b 32 	call	0x6516	; 0x6516 <link>
    5d60:	d0 93 10 01 	sts	0x0110, r29	; 0x800110 <textx>
    5d64:	d5 e0       	ldi	r29, 0x05	; 5
    5d66:	d0 93 1f 01 	sts	0x011F, r29	; 0x80011f <texty>
    5d6a:	41 e0       	ldi	r20, 0x01	; 1
    5d6c:	63 e4       	ldi	r22, 0x43	; 67
    5d6e:	74 e0       	ldi	r23, 0x04	; 4
    5d70:	80 e0       	ldi	r24, 0x00	; 0
    5d72:	0e 94 8b 32 	call	0x6516	; 0x6516 <link>
    5d76:	c0 93 10 01 	sts	0x0110, r28	; 0x800110 <textx>
    5d7a:	d0 93 1f 01 	sts	0x011F, r29	; 0x80011f <texty>
    5d7e:	41 e0       	ldi	r20, 0x01	; 1
    5d80:	63 e4       	ldi	r22, 0x43	; 67
    5d82:	74 e0       	ldi	r23, 0x04	; 4
    5d84:	80 e0       	ldi	r24, 0x00	; 0
    5d86:	0e 94 8b 32 	call	0x6516	; 0x6516 <link>
    5d8a:	82 e0       	ldi	r24, 0x02	; 2
    5d8c:	90 e0       	ldi	r25, 0x00	; 0
    5d8e:	90 93 50 01 	sts	0x0150, r25	; 0x800150 <cursor_lan+0x1>
    5d92:	80 93 4f 01 	sts	0x014F, r24	; 0x80014f <cursor_lan>
    5d96:	df 91       	pop	r29
    5d98:	cf 91       	pop	r28
    5d9a:	1f 91       	pop	r17
    5d9c:	08 95       	ret

Disassembly of section .text.CursorLan3:

00005d9e <CursorLan3>:
    5d9e:	1f 93       	push	r17
    5da0:	cf 93       	push	r28
    5da2:	df 93       	push	r29
    5da4:	d3 e0       	ldi	r29, 0x03	; 3
    5da6:	d0 93 10 01 	sts	0x0110, r29	; 0x800110 <textx>
    5daa:	15 e0       	ldi	r17, 0x05	; 5
    5dac:	10 93 1f 01 	sts	0x011F, r17	; 0x80011f <texty>
    5db0:	41 e0       	ldi	r20, 0x01	; 1
    5db2:	61 e5       	ldi	r22, 0x51	; 81
    5db4:	74 e0       	ldi	r23, 0x04	; 4
    5db6:	80 e0       	ldi	r24, 0x00	; 0
    5db8:	0e 94 8b 32 	call	0x6516	; 0x6516 <link>
    5dbc:	c1 e1       	ldi	r28, 0x11	; 17
    5dbe:	c0 93 10 01 	sts	0x0110, r28	; 0x800110 <textx>
    5dc2:	10 93 1f 01 	sts	0x011F, r17	; 0x80011f <texty>
    5dc6:	41 e0       	ldi	r20, 0x01	; 1
    5dc8:	6f e4       	ldi	r22, 0x4F	; 79
    5dca:	74 e0       	ldi	r23, 0x04	; 4
    5dcc:	80 e0       	ldi	r24, 0x00	; 0
    5dce:	0e 94 8b 32 	call	0x6516	; 0x6516 <link>
    5dd2:	d0 93 10 01 	sts	0x0110, r29	; 0x800110 <textx>
    5dd6:	14 e0       	ldi	r17, 0x04	; 4
    5dd8:	10 93 1f 01 	sts	0x011F, r17	; 0x80011f <texty>
    5ddc:	41 e0       	ldi	r20, 0x01	; 1
    5dde:	63 e4       	ldi	r22, 0x43	; 67
    5de0:	74 e0       	ldi	r23, 0x04	; 4
    5de2:	80 e0       	ldi	r24, 0x00	; 0
    5de4:	0e 94 8b 32 	call	0x6516	; 0x6516 <link>
    5de8:	c0 93 10 01 	sts	0x0110, r28	; 0x800110 <textx>
    5dec:	10 93 1f 01 	sts	0x011F, r17	; 0x80011f <texty>
    5df0:	41 e0       	ldi	r20, 0x01	; 1
    5df2:	63 e4       	ldi	r22, 0x43	; 67
    5df4:	74 e0       	ldi	r23, 0x04	; 4
    5df6:	80 e0       	ldi	r24, 0x00	; 0
    5df8:	0e 94 8b 32 	call	0x6516	; 0x6516 <link>
    5dfc:	d0 93 10 01 	sts	0x0110, r29	; 0x800110 <textx>
    5e00:	d6 e0       	ldi	r29, 0x06	; 6
    5e02:	d0 93 1f 01 	sts	0x011F, r29	; 0x80011f <texty>
    5e06:	41 e0       	ldi	r20, 0x01	; 1
    5e08:	63 e4       	ldi	r22, 0x43	; 67
    5e0a:	74 e0       	ldi	r23, 0x04	; 4
    5e0c:	80 e0       	ldi	r24, 0x00	; 0
    5e0e:	0e 94 8b 32 	call	0x6516	; 0x6516 <link>
    5e12:	c0 93 10 01 	sts	0x0110, r28	; 0x800110 <textx>
    5e16:	d0 93 1f 01 	sts	0x011F, r29	; 0x80011f <texty>
    5e1a:	41 e0       	ldi	r20, 0x01	; 1
    5e1c:	63 e4       	ldi	r22, 0x43	; 67
    5e1e:	74 e0       	ldi	r23, 0x04	; 4
    5e20:	80 e0       	ldi	r24, 0x00	; 0
    5e22:	0e 94 8b 32 	call	0x6516	; 0x6516 <link>
    5e26:	83 e0       	ldi	r24, 0x03	; 3
    5e28:	90 e0       	ldi	r25, 0x00	; 0
    5e2a:	90 93 50 01 	sts	0x0150, r25	; 0x800150 <cursor_lan+0x1>
    5e2e:	80 93 4f 01 	sts	0x014F, r24	; 0x80014f <cursor_lan>
    5e32:	df 91       	pop	r29
    5e34:	cf 91       	pop	r28
    5e36:	1f 91       	pop	r17
    5e38:	08 95       	ret

Disassembly of section .text.WindowLan:

0000622c <WindowLan>:
    622c:	cf 93       	push	r28
    622e:	df 93       	push	r29
    6230:	85 e0       	ldi	r24, 0x05	; 5
    6232:	90 e0       	ldi	r25, 0x00	; 0
    6234:	90 93 54 01 	sts	0x0154, r25	; 0x800154 <window+0x1>
    6238:	80 93 53 01 	sts	0x0153, r24	; 0x800153 <window>
    623c:	88 e0       	ldi	r24, 0x08	; 8
    623e:	80 93 10 01 	sts	0x0110, r24	; 0x800110 <textx>
    6242:	10 92 1f 01 	sts	0x011F, r1	; 0x80011f <texty>
    6246:	44 e0       	ldi	r20, 0x04	; 4
    6248:	6b e1       	ldi	r22, 0x1B	; 27
    624a:	76 e0       	ldi	r23, 0x06	; 6
    624c:	80 e0       	ldi	r24, 0x00	; 0
    624e:	0e 94 8b 32 	call	0x6516	; 0x6516 <link>
    6252:	d5 e0       	ldi	r29, 0x05	; 5
    6254:	d0 93 10 01 	sts	0x0110, r29	; 0x800110 <textx>
    6258:	82 e0       	ldi	r24, 0x02	; 2
    625a:	80 93 1f 01 	sts	0x011F, r24	; 0x80011f <texty>
    625e:	4b e0       	ldi	r20, 0x0B	; 11
    6260:	60 e2       	ldi	r22, 0x20	; 32
    6262:	76 e0       	ldi	r23, 0x06	; 6
    6264:	80 e0       	ldi	r24, 0x00	; 0
    6266:	0e 94 8b 32 	call	0x6516	; 0x6516 <link>
    626a:	c4 e0       	ldi	r28, 0x04	; 4
    626c:	c0 93 10 01 	sts	0x0110, r28	; 0x800110 <textx>
    6270:	c0 93 1f 01 	sts	0x011F, r28	; 0x80011f <texty>
    6274:	4d e0       	ldi	r20, 0x0D	; 13
    6276:	6c e2       	ldi	r22, 0x2C	; 44
    6278:	76 e0       	ldi	r23, 0x06	; 6
    627a:	80 e0       	ldi	r24, 0x00	; 0
    627c:	0e 94 8b 32 	call	0x6516	; 0x6516 <link>
    6280:	c0 93 10 01 	sts	0x0110, r28	; 0x800110 <textx>
    6284:	d0 93 1f 01 	sts	0x011F, r29	; 0x80011f <texty>
    6288:	4d e0       	ldi	r20, 0x0D	; 13
    628a:	6a e3       	ldi	r22, 0x3A	; 58
    628c:	76 e0       	ldi	r23, 0x06	; 6
    628e:	80 e0       	ldi	r24, 0x00	; 0
    6290:	0e 94 8b 32 	call	0x6516	; 0x6516 <link>
    6294:	df 91       	pop	r29
    6296:	cf 91       	pop	r28
    6298:	08 95       	ret

Disassembly of section .text.__vector_12:

00005738 <__vector_12>:
    5738:	1f 92       	push	r1
    573a:	0f 92       	push	r0
    573c:	0f b6       	in	r0, 0x3f	; 63
    573e:	0f 92       	push	r0
    5740:	11 24       	eor	r1, r1
    5742:	2f 93       	push	r18
    5744:	3f 93       	push	r19
    5746:	4f 93       	push	r20
    5748:	5f 93       	push	r21
    574a:	6f 93       	push	r22
    574c:	7f 93       	push	r23
    574e:	8f 93       	push	r24
    5750:	9f 93       	push	r25
    5752:	af 93       	push	r26
    5754:	bf 93       	push	r27
    5756:	ef 93       	push	r30
    5758:	ff 93       	push	r31
    575a:	0e 94 95 2d 	call	0x5b2a	; 0x5b2a <SendAirTemp>
    575e:	0e 94 c4 1b 	call	0x3788	; 0x3788 <SendWaterTemp>
    5762:	80 91 5d 01 	lds	r24, 0x015D	; 0x80015d <Time>
    5766:	90 91 5e 01 	lds	r25, 0x015E	; 0x80015e <Time+0x1>
    576a:	01 97       	sbiw	r24, 0x01	; 1
    576c:	90 93 5e 01 	sts	0x015E, r25	; 0x80015e <Time+0x1>
    5770:	80 93 5d 01 	sts	0x015D, r24	; 0x80015d <Time>
    5774:	89 2b       	or	r24, r25
    5776:	31 f4       	brne	.+12     	; 0x5784 <__vector_12+0x4c>
    5778:	87 e1       	ldi	r24, 0x17	; 23
    577a:	90 e0       	ldi	r25, 0x00	; 0
    577c:	90 93 5e 01 	sts	0x015E, r25	; 0x80015e <Time+0x1>
    5780:	80 93 5d 01 	sts	0x015D, r24	; 0x80015d <Time>
    5784:	80 91 13 01 	lds	r24, 0x0113	; 0x800113 <Start_stop>
    5788:	90 91 14 01 	lds	r25, 0x0114	; 0x800114 <Start_stop+0x1>
    578c:	89 2b       	or	r24, r25
    578e:	71 f0       	breq	.+28     	; 0x57ac <__vector_12+0x74>
    5790:	80 91 41 01 	lds	r24, 0x0141	; 0x800141 <Flag_Temp>
    5794:	90 91 42 01 	lds	r25, 0x0142	; 0x800142 <Flag_Temp+0x1>
    5798:	89 2b       	or	r24, r25
    579a:	41 f0       	breq	.+16     	; 0x57ac <__vector_12+0x74>
    579c:	80 91 5f 01 	lds	r24, 0x015F	; 0x80015f <Work>
    57a0:	90 91 60 01 	lds	r25, 0x0160	; 0x800160 <Work+0x1>
    57a4:	89 2b       	or	r24, r25
    57a6:	11 f0       	breq	.+4      	; 0x57ac <__vector_12+0x74>
    57a8:	0e 94 33 2e 	call	0x5c66	; 0x5c66 <Reverse_time>
    57ac:	80 91 5b 01 	lds	r24, 0x015B	; 0x80015b <Slave_time>
    57b0:	90 91 5c 01 	lds	r25, 0x015C	; 0x80015c <Slave_time+0x1>
    57b4:	01 96       	adiw	r24, 0x01	; 1
    57b6:	90 93 5c 01 	sts	0x015C, r25	; 0x80015c <Slave_time+0x1>
    57ba:	80 93 5b 01 	sts	0x015B, r24	; 0x80015b <Slave_time>
    57be:	80 31       	cpi	r24, 0x10	; 16
    57c0:	9e 40       	sbci	r25, 0x0E	; 14
    57c2:	30 f0       	brcs	.+12     	; 0x57d0 <__vector_12+0x98>
    57c4:	80 e1       	ldi	r24, 0x10	; 16
    57c6:	9e e0       	ldi	r25, 0x0E	; 14
    57c8:	90 93 5c 01 	sts	0x015C, r25	; 0x80015c <Slave_time+0x1>
    57cc:	80 93 5b 01 	sts	0x015B, r24	; 0x80015b <Slave_time>
    57d0:	ff 91       	pop	r31
    57d2:	ef 91       	pop	r30
    57d4:	bf 91       	pop	r27
    57d6:	af 91       	pop	r26
    57d8:	9f 91       	pop	r25
    57da:	8f 91       	pop	r24
    57dc:	7f 91       	pop	r23
    57de:	6f 91       	pop	r22
    57e0:	5f 91       	pop	r21
    57e2:	4f 91       	pop	r20
    57e4:	3f 91       	pop	r19
    57e6:	2f 91       	pop	r18
    57e8:	0f 90       	pop	r0
    57ea:	0f be       	out	0x3f, r0	; 63
    57ec:	0f 90       	pop	r0
    57ee:	1f 90       	pop	r1
    57f0:	18 95       	reti

Disassembly of section .text.WorkStop:

00006572 <WorkStop>:
    6572:	82 b3       	in	r24, 0x12	; 18
    6574:	8b 7f       	andi	r24, 0xFB	; 251
    6576:	82 bb       	out	0x12, r24	; 18
    6578:	82 b3       	in	r24, 0x12	; 18
    657a:	87 7f       	andi	r24, 0xF7	; 247
    657c:	82 bb       	out	0x12, r24	; 18
    657e:	82 b3       	in	r24, 0x12	; 18
    6580:	8f 7e       	andi	r24, 0xEF	; 239
    6582:	82 bb       	out	0x12, r24	; 18
    6584:	82 b3       	in	r24, 0x12	; 18
    6586:	8f 7d       	andi	r24, 0xDF	; 223
    6588:	82 bb       	out	0x12, r24	; 18
    658a:	82 b3       	in	r24, 0x12	; 18
    658c:	8f 7b       	andi	r24, 0xBF	; 191
    658e:	82 bb       	out	0x12, r24	; 18
    6590:	82 b3       	in	r24, 0x12	; 18
    6592:	8f 77       	andi	r24, 0x7F	; 127
    6594:	82 bb       	out	0x12, r24	; 18
    6596:	10 92 4a 01 	sts	0x014A, r1	; 0x80014a <Flag_Fire+0x1>
    659a:	10 92 49 01 	sts	0x0149, r1	; 0x800149 <Flag_Fire>
    659e:	10 92 48 01 	sts	0x0148, r1	; 0x800148 <Flag_Fire_Test+0x1>
    65a2:	10 92 47 01 	sts	0x0147, r1	; 0x800147 <Flag_Fire_Test>
    65a6:	10 92 46 01 	sts	0x0146, r1	; 0x800146 <Flag_Clapan+0x1>
    65aa:	10 92 45 01 	sts	0x0145, r1	; 0x800145 <Flag_Clapan>
    65ae:	10 92 44 01 	sts	0x0144, r1	; 0x800144 <Flag_Clapan_Test+0x1>
    65b2:	10 92 43 01 	sts	0x0143, r1	; 0x800143 <Flag_Clapan_Test>
    65b6:	10 92 42 01 	sts	0x0142, r1	; 0x800142 <Flag_Temp+0x1>
    65ba:	10 92 41 01 	sts	0x0141, r1	; 0x800141 <Flag_Temp>
    65be:	10 92 5c 01 	sts	0x015C, r1	; 0x80015c <Slave_time+0x1>
    65c2:	10 92 5b 01 	sts	0x015B, r1	; 0x80015b <Slave_time>
    65c6:	08 95       	ret

Disassembly of section .text.main:

00000682 <main>:
     682:	cf 93       	push	r28
     684:	df 93       	push	r29
     686:	cd b7       	in	r28, 0x3d	; 61
     688:	de b7       	in	r29, 0x3e	; 62
     68a:	28 97       	sbiw	r28, 0x08	; 8
     68c:	0f b6       	in	r0, 0x3f	; 63
     68e:	f8 94       	cli
     690:	de bf       	out	0x3e, r29	; 62
     692:	0f be       	out	0x3f, r0	; 63
     694:	cd bf       	out	0x3d, r28	; 61
     696:	83 e8       	ldi	r24, 0x83	; 131
     698:	82 b9       	out	0x02, r24	; 2
     69a:	83 b9       	out	0x03, r24	; 3
     69c:	8f ef       	ldi	r24, 0xFF	; 255
     69e:	81 bb       	out	0x11, r24	; 17
     6a0:	12 ba       	out	0x12, r1	; 18
     6a2:	10 92 61 00 	sts	0x0061, r1	; 0x800061 <__TEXT_REGION_LENGTH__+0x7f0061>
     6a6:	99 ef       	ldi	r25, 0xF9	; 249
     6a8:	90 93 62 00 	sts	0x0062, r25	; 0x800062 <__TEXT_REGION_LENGTH__+0x7f0062>
     6ac:	84 bb       	out	0x14, r24	; 20
     6ae:	8a bb       	out	0x1a, r24	; 26
     6b0:	0e 94 b0 36 	call	0x6d60	; 0x6d60 <init_lcd>
     6b4:	83 ec       	ldi	r24, 0xC3	; 195
     6b6:	99 e0       	ldi	r25, 0x09	; 9
     6b8:	01 97       	sbiw	r24, 0x01	; 1
     6ba:	f1 f7       	brne	.-4      	; 0x6b8 <main+0x36>
     6bc:	00 c0       	rjmp	.+0      	; 0x6be <main+0x3c>
     6be:	00 00       	nop
     6c0:	0e 94 4e 36 	call	0x6c9c	; 0x6c9c <clearInit>
     6c4:	83 ed       	ldi	r24, 0xD3	; 211
     6c6:	90 e3       	ldi	r25, 0x30	; 48
     6c8:	01 97       	sbiw	r24, 0x01	; 1
     6ca:	f1 f7       	brne	.-4      	; 0x6c8 <main+0x46>
     6cc:	00 c0       	rjmp	.+0      	; 0x6ce <main+0x4c>
     6ce:	00 00       	nop
     6d0:	17 ba       	out	0x17, r1	; 23
     6d2:	80 e8       	ldi	r24, 0x80	; 128
     6d4:	88 bb       	out	0x18, r24	; 24
     6d6:	10 92 64 00 	sts	0x0064, r1	; 0x800064 <__TEXT_REGION_LENGTH__+0x7f0064>
     6da:	88 e1       	ldi	r24, 0x18	; 24
     6dc:	80 93 65 00 	sts	0x0065, r24	; 0x800065 <__TEXT_REGION_LENGTH__+0x7f0065>
     6e0:	b7 99       	sbic	0x16, 7	; 22
     6e2:	06 c0       	rjmp	.+12     	; 0x6f0 <main+0x6e>
     6e4:	81 e0       	ldi	r24, 0x01	; 1
     6e6:	90 e0       	ldi	r25, 0x00	; 0
     6e8:	90 93 5a 01 	sts	0x015A, r25	; 0x80015a <UK_103+0x1>
     6ec:	80 93 59 01 	sts	0x0159, r24	; 0x800159 <UK_103>
     6f0:	80 91 63 00 	lds	r24, 0x0063	; 0x800063 <__TEXT_REGION_LENGTH__+0x7f0063>
     6f4:	83 fd       	sbrc	r24, 3
     6f6:	06 c0       	rjmp	.+12     	; 0x704 <main+0x82>
     6f8:	81 e0       	ldi	r24, 0x01	; 1
     6fa:	90 e0       	ldi	r25, 0x00	; 0
     6fc:	90 93 58 01 	sts	0x0158, r25	; 0x800158 <UK_203+0x1>
     700:	80 93 57 01 	sts	0x0157, r24	; 0x800157 <UK_203>
     704:	80 91 63 00 	lds	r24, 0x0063	; 0x800063 <__TEXT_REGION_LENGTH__+0x7f0063>
     708:	84 fd       	sbrc	r24, 4
     70a:	06 c0       	rjmp	.+12     	; 0x718 <main+0x96>
     70c:	81 e0       	ldi	r24, 0x01	; 1
     70e:	90 e0       	ldi	r25, 0x00	; 0
     710:	90 93 56 01 	sts	0x0156, r25	; 0x800156 <UK_303+0x1>
     714:	80 93 55 01 	sts	0x0155, r24	; 0x800155 <UK_303>
     718:	80 91 59 01 	lds	r24, 0x0159	; 0x800159 <UK_103>
     71c:	90 91 5a 01 	lds	r25, 0x015A	; 0x80015a <UK_103+0x1>
     720:	00 97       	sbiw	r24, 0x00	; 0
     722:	71 f0       	breq	.+28     	; 0x740 <main+0xbe>
     724:	20 91 57 01 	lds	r18, 0x0157	; 0x800157 <UK_203>
     728:	30 91 58 01 	lds	r19, 0x0158	; 0x800158 <UK_203+0x1>
     72c:	23 2b       	or	r18, r19
     72e:	41 f0       	breq	.+16     	; 0x740 <main+0xbe>
     730:	20 91 55 01 	lds	r18, 0x0155	; 0x800155 <UK_303>
     734:	30 91 56 01 	lds	r19, 0x0156	; 0x800156 <UK_303+0x1>
     738:	23 2b       	or	r18, r19
     73a:	11 f4       	brne	.+4      	; 0x740 <main+0xbe>
     73c:	0e 94 56 34 	call	0x68ac	; 0x68ac <ErrorInit.2940>
     740:	00 97       	sbiw	r24, 0x00	; 0
     742:	71 f0       	breq	.+28     	; 0x760 <main+0xde>
     744:	20 91 55 01 	lds	r18, 0x0155	; 0x800155 <UK_303>
     748:	30 91 56 01 	lds	r19, 0x0156	; 0x800156 <UK_303+0x1>
     74c:	23 2b       	or	r18, r19
     74e:	41 f0       	breq	.+16     	; 0x760 <main+0xde>
     750:	20 91 57 01 	lds	r18, 0x0157	; 0x800157 <UK_203>
     754:	30 91 58 01 	lds	r19, 0x0158	; 0x800158 <UK_203+0x1>
     758:	23 2b       	or	r18, r19
     75a:	11 f4       	brne	.+4      	; 0x760 <main+0xde>
     75c:	0e 94 56 34 	call	0x68ac	; 0x68ac <ErrorInit.2940>
     760:	20 91 57 01 	lds	r18, 0x0157	; 0x800157 <UK_203>
     764:	30 91 58 01 	lds	r19, 0x0158	; 0x800158 <UK_203+0x1>
     768:	23 2b       	or	r18, r19
     76a:	51 f0       	breq	.+20     	; 0x780 <main+0xfe>
     76c:	20 91 55 01 	lds	r18, 0x0155	; 0x800155 <UK_303>
     770:	30 91 56 01 	lds	r19, 0x0156	; 0x800156 <UK_303+0x1>
     774:	23 2b       	or	r18, r19
     776:	21 f0       	breq	.+8      	; 0x780 <main+0xfe>
     778:	89 2b       	or	r24, r25
     77a:	11 f4       	brne	.+4      	; 0x780 <main+0xfe>
     77c:	0e 94 56 34 	call	0x68ac	; 0x68ac <ErrorInit.2940>
     780:	8e b5       	in	r24, 0x2e	; 46
     782:	88 60       	ori	r24, 0x08	; 8
     784:	8e bd       	out	0x2e, r24	; 46
     786:	87 b7       	in	r24, 0x37	; 55
     788:	80 61       	ori	r24, 0x10	; 16
     78a:	87 bf       	out	0x37, r24	; 55
     78c:	80 e0       	ldi	r24, 0x00	; 0
     78e:	90 e8       	ldi	r25, 0x80	; 128
     790:	9b bd       	out	0x2b, r25	; 43
     792:	8a bd       	out	0x2a, r24	; 42
     794:	8e b5       	in	r24, 0x2e	; 46
     796:	84 60       	ori	r24, 0x04	; 4
     798:	8e bd       	out	0x2e, r24	; 46
     79a:	65 e0       	ldi	r22, 0x05	; 5
     79c:	70 e0       	ldi	r23, 0x00	; 0
     79e:	80 e8       	ldi	r24, 0x80	; 128
     7a0:	0e 94 9b 38 	call	0x7136	; 0x7136 <eeprom_read_byte>
     7a4:	90 e0       	ldi	r25, 0x00	; 0
     7a6:	90 93 02 01 	sts	0x0102, r25	; 0x800102 <WaterLoad+0x1>
     7aa:	80 93 01 01 	sts	0x0101, r24	; 0x800101 <WaterLoad>
     7ae:	8f 3f       	cpi	r24, 0xFF	; 255
     7b0:	91 05       	cpc	r25, r1
     7b2:	31 f4       	brne	.+12     	; 0x7c0 <main+0x13e>
     7b4:	82 e3       	ldi	r24, 0x32	; 50
     7b6:	90 e0       	ldi	r25, 0x00	; 0
     7b8:	90 93 02 01 	sts	0x0102, r25	; 0x800102 <WaterLoad+0x1>
     7bc:	80 93 01 01 	sts	0x0101, r24	; 0x800101 <WaterLoad>
     7c0:	64 e0       	ldi	r22, 0x04	; 4
     7c2:	70 e0       	ldi	r23, 0x00	; 0
     7c4:	80 e8       	ldi	r24, 0x80	; 128
     7c6:	0e 94 9b 38 	call	0x7136	; 0x7136 <eeprom_read_byte>
     7ca:	90 e0       	ldi	r25, 0x00	; 0
     7cc:	90 93 14 01 	sts	0x0114, r25	; 0x800114 <Start_stop+0x1>
     7d0:	80 93 13 01 	sts	0x0113, r24	; 0x800113 <Start_stop>
     7d4:	8f 3f       	cpi	r24, 0xFF	; 255
     7d6:	91 05       	cpc	r25, r1
     7d8:	21 f4       	brne	.+8      	; 0x7e2 <main+0x160>
     7da:	10 92 14 01 	sts	0x0114, r1	; 0x800114 <Start_stop+0x1>
     7de:	10 92 13 01 	sts	0x0113, r1	; 0x800113 <Start_stop>
     7e2:	63 e0       	ldi	r22, 0x03	; 3
     7e4:	70 e0       	ldi	r23, 0x00	; 0
     7e6:	80 e8       	ldi	r24, 0x80	; 128
     7e8:	0e 94 9b 38 	call	0x7136	; 0x7136 <eeprom_read_byte>
     7ec:	90 e0       	ldi	r25, 0x00	; 0
     7ee:	90 93 08 01 	sts	0x0108, r25	; 0x800108 <Weather_dependence+0x1>
     7f2:	80 93 07 01 	sts	0x0107, r24	; 0x800107 <Weather_dependence>
     7f6:	8f 3f       	cpi	r24, 0xFF	; 255
     7f8:	91 05       	cpc	r25, r1
     7fa:	21 f4       	brne	.+8      	; 0x804 <__EEPROM_REGION_LENGTH__+0x4>
     7fc:	10 92 08 01 	sts	0x0108, r1	; 0x800108 <Weather_dependence+0x1>
     800:	10 92 07 01 	sts	0x0107, r1	; 0x800107 <Weather_dependence>
     804:	62 e0       	ldi	r22, 0x02	; 2
     806:	70 e0       	ldi	r23, 0x00	; 0
     808:	80 e8       	ldi	r24, 0x80	; 128
     80a:	0e 94 9b 38 	call	0x7136	; 0x7136 <eeprom_read_byte>
     80e:	90 e0       	ldi	r25, 0x00	; 0
     810:	90 93 0f 01 	sts	0x010F, r25	; 0x80010f <Weather_dependence_Mode+0x1>
     814:	80 93 0e 01 	sts	0x010E, r24	; 0x80010e <Weather_dependence_Mode>
     818:	8f 3f       	cpi	r24, 0xFF	; 255
     81a:	91 05       	cpc	r25, r1
     81c:	31 f4       	brne	.+12     	; 0x82a <__EEPROM_REGION_LENGTH__+0x2a>
     81e:	81 e0       	ldi	r24, 0x01	; 1
     820:	90 e0       	ldi	r25, 0x00	; 0
     822:	90 93 0f 01 	sts	0x010F, r25	; 0x80010f <Weather_dependence_Mode+0x1>
     826:	80 93 0e 01 	sts	0x010E, r24	; 0x80010e <Weather_dependence_Mode>
     82a:	61 e0       	ldi	r22, 0x01	; 1
     82c:	70 e0       	ldi	r23, 0x00	; 0
     82e:	80 e8       	ldi	r24, 0x80	; 128
     830:	0e 94 9b 38 	call	0x7136	; 0x7136 <eeprom_read_byte>
     834:	90 e0       	ldi	r25, 0x00	; 0
     836:	90 93 40 01 	sts	0x0140, r25	; 0x800140 <Master+0x1>
     83a:	80 93 3f 01 	sts	0x013F, r24	; 0x80013f <Master>
     83e:	8f 3f       	cpi	r24, 0xFF	; 255
     840:	91 05       	cpc	r25, r1
     842:	21 f4       	brne	.+8      	; 0x84c <__EEPROM_REGION_LENGTH__+0x4c>
     844:	10 92 40 01 	sts	0x0140, r1	; 0x800140 <Master+0x1>
     848:	10 92 3f 01 	sts	0x013F, r1	; 0x80013f <Master>
     84c:	60 e0       	ldi	r22, 0x00	; 0
     84e:	70 e0       	ldi	r23, 0x00	; 0
     850:	80 e8       	ldi	r24, 0x80	; 128
     852:	0e 94 9b 38 	call	0x7136	; 0x7136 <eeprom_read_byte>
     856:	90 e0       	ldi	r25, 0x00	; 0
     858:	90 93 3e 01 	sts	0x013E, r25	; 0x80013e <Slave+0x1>
     85c:	80 93 3d 01 	sts	0x013D, r24	; 0x80013d <Slave>
     860:	8f 3f       	cpi	r24, 0xFF	; 255
     862:	91 05       	cpc	r25, r1
     864:	21 f4       	brne	.+8      	; 0x86e <__EEPROM_REGION_LENGTH__+0x6e>
     866:	10 92 3e 01 	sts	0x013E, r1	; 0x80013e <Slave+0x1>
     86a:	10 92 3d 01 	sts	0x013D, r1	; 0x80013d <Slave>
     86e:	0e 94 05 39 	call	0x720a	; 0x720a <ADC_Init>
     872:	0e 94 d4 34 	call	0x69a8	; 0x69a8 <SUART_Init>
     876:	78 94       	sei
     878:	9f ed       	ldi	r25, 0xDF	; 223
     87a:	23 e9       	ldi	r18, 0x93	; 147
     87c:	64 e0       	ldi	r22, 0x04	; 4
     87e:	91 50       	subi	r25, 0x01	; 1
     880:	20 40       	sbci	r18, 0x00	; 0
     882:	60 40       	sbci	r22, 0x00	; 0
     884:	e1 f7       	brne	.-8      	; 0x87e <__EEPROM_REGION_LENGTH__+0x7e>
     886:	00 c0       	rjmp	.+0      	; 0x888 <__EEPROM_REGION_LENGTH__+0x88>
     888:	00 00       	nop
     88a:	80 91 59 01 	lds	r24, 0x0159	; 0x800159 <UK_103>
     88e:	90 91 5a 01 	lds	r25, 0x015A	; 0x80015a <UK_103+0x1>
     892:	00 97       	sbiw	r24, 0x00	; 0
     894:	31 f0       	breq	.+12     	; 0x8a2 <__EEPROM_REGION_LENGTH__+0xa2>
     896:	20 91 57 01 	lds	r18, 0x0157	; 0x800157 <UK_203>
     89a:	30 91 58 01 	lds	r19, 0x0158	; 0x800158 <UK_203+0x1>
     89e:	23 2b       	or	r18, r19
     8a0:	41 f0       	breq	.+16     	; 0x8b2 <__EEPROM_REGION_LENGTH__+0xb2>
     8a2:	00 97       	sbiw	r24, 0x00	; 0
     8a4:	61 f4       	brne	.+24     	; 0x8be <__EEPROM_REGION_LENGTH__+0xbe>
     8a6:	20 91 57 01 	lds	r18, 0x0157	; 0x800157 <UK_203>
     8aa:	30 91 58 01 	lds	r19, 0x0158	; 0x800158 <UK_203+0x1>
     8ae:	23 2b       	or	r18, r19
     8b0:	31 f0       	breq	.+12     	; 0x8be <__EEPROM_REGION_LENGTH__+0xbe>
     8b2:	20 91 55 01 	lds	r18, 0x0155	; 0x800155 <UK_303>
     8b6:	30 91 56 01 	lds	r19, 0x0156	; 0x800156 <UK_303+0x1>
     8ba:	23 2b       	or	r18, r19
     8bc:	71 f0       	breq	.+28     	; 0x8da <__EEPROM_REGION_LENGTH__+0xda>
     8be:	89 2b       	or	r24, r25
     8c0:	a1 f4       	brne	.+40     	; 0x8ea <__EEPROM_REGION_LENGTH__+0xea>
     8c2:	80 91 57 01 	lds	r24, 0x0157	; 0x800157 <UK_203>
     8c6:	90 91 58 01 	lds	r25, 0x0158	; 0x800158 <UK_203+0x1>
     8ca:	89 2b       	or	r24, r25
     8cc:	71 f4       	brne	.+28     	; 0x8ea <__EEPROM_REGION_LENGTH__+0xea>
     8ce:	80 91 55 01 	lds	r24, 0x0155	; 0x800155 <UK_303>
     8d2:	90 91 56 01 	lds	r25, 0x0156	; 0x800156 <UK_303+0x1>
     8d6:	89 2b       	or	r24, r25
     8d8:	41 f0       	breq	.+16     	; 0x8ea <__EEPROM_REGION_LENGTH__+0xea>
     8da:	10 92 4e 01 	sts	0x014E, r1	; 0x80014e <Lan+0x1>
     8de:	10 92 4d 01 	sts	0x014D, r1	; 0x80014d <Lan>
     8e2:	0e 94 e2 17 	call	0x2fc4	; 0x2fc4 <Window1>
     8e6:	0e 94 4d 31 	call	0x629a	; 0x629a <Cursor1>
     8ea:	80 91 3f 01 	lds	r24, 0x013F	; 0x80013f <Master>
     8ee:	90 91 40 01 	lds	r25, 0x0140	; 0x800140 <Master+0x1>
     8f2:	01 97       	sbiw	r24, 0x01	; 1
     8f4:	49 f0       	breq	.+18     	; 0x908 <__EEPROM_REGION_LENGTH__+0x108>
     8f6:	80 91 3d 01 	lds	r24, 0x013D	; 0x80013d <Slave>
     8fa:	90 91 3e 01 	lds	r25, 0x013E	; 0x80013e <Slave+0x1>
     8fe:	81 30       	cpi	r24, 0x01	; 1
     900:	91 05       	cpc	r25, r1
     902:	11 f0       	breq	.+4      	; 0x908 <__EEPROM_REGION_LENGTH__+0x108>
     904:	02 97       	sbiw	r24, 0x02	; 2
     906:	51 f4       	brne	.+20     	; 0x91c <__EEPROM_REGION_LENGTH__+0x11c>
     908:	81 e0       	ldi	r24, 0x01	; 1
     90a:	90 e0       	ldi	r25, 0x00	; 0
     90c:	90 93 4e 01 	sts	0x014E, r25	; 0x80014e <Lan+0x1>
     910:	80 93 4d 01 	sts	0x014D, r24	; 0x80014d <Lan>
     914:	0e 94 e2 17 	call	0x2fc4	; 0x2fc4 <Window1>
     918:	0e 94 4d 31 	call	0x629a	; 0x629a <Cursor1>
     91c:	80 91 59 01 	lds	r24, 0x0159	; 0x800159 <UK_103>
     920:	90 91 5a 01 	lds	r25, 0x015A	; 0x80015a <UK_103+0x1>
     924:	89 2b       	or	r24, r25
     926:	11 f1       	breq	.+68     	; 0x96c <__EEPROM_REGION_LENGTH__+0x16c>
     928:	80 91 55 01 	lds	r24, 0x0155	; 0x800155 <UK_303>
     92c:	90 91 56 01 	lds	r25, 0x0156	; 0x800156 <UK_303+0x1>
     930:	89 2b       	or	r24, r25
     932:	e1 f0       	breq	.+56     	; 0x96c <__EEPROM_REGION_LENGTH__+0x16c>
     934:	80 91 57 01 	lds	r24, 0x0157	; 0x800157 <UK_203>
     938:	90 91 58 01 	lds	r25, 0x0158	; 0x800158 <UK_203+0x1>
     93c:	89 2b       	or	r24, r25
     93e:	b1 f0       	breq	.+44     	; 0x96c <__EEPROM_REGION_LENGTH__+0x16c>
     940:	80 91 3f 01 	lds	r24, 0x013F	; 0x80013f <Master>
     944:	90 91 40 01 	lds	r25, 0x0140	; 0x800140 <Master+0x1>
     948:	89 2b       	or	r24, r25
     94a:	81 f4       	brne	.+32     	; 0x96c <__EEPROM_REGION_LENGTH__+0x16c>
     94c:	80 91 3d 01 	lds	r24, 0x013D	; 0x80013d <Slave>
     950:	90 91 3e 01 	lds	r25, 0x013E	; 0x80013e <Slave+0x1>
     954:	89 2b       	or	r24, r25
     956:	51 f4       	brne	.+20     	; 0x96c <__EEPROM_REGION_LENGTH__+0x16c>
     958:	81 e0       	ldi	r24, 0x01	; 1
     95a:	90 e0       	ldi	r25, 0x00	; 0
     95c:	90 93 4e 01 	sts	0x014E, r25	; 0x80014e <Lan+0x1>
     960:	80 93 4d 01 	sts	0x014D, r24	; 0x80014d <Lan>
     964:	0e 94 16 31 	call	0x622c	; 0x622c <WindowLan>
     968:	0e 94 dd 30 	call	0x61ba	; 0x61ba <CursorLan1>
     96c:	0e 94 ef 2f 	call	0x5fde	; 0x5fde <fun>
     970:	80 91 53 01 	lds	r24, 0x0153	; 0x800153 <window>
     974:	90 91 54 01 	lds	r25, 0x0154	; 0x800154 <window+0x1>
     978:	01 97       	sbiw	r24, 0x01	; 1
     97a:	61 f4       	brne	.+24     	; 0x994 <__EEPROM_REGION_LENGTH__+0x194>
     97c:	80 91 51 01 	lds	r24, 0x0151	; 0x800151 <cursor>
     980:	90 91 52 01 	lds	r25, 0x0152	; 0x800152 <cursor+0x1>
     984:	02 97       	sbiw	r24, 0x02	; 2
     986:	31 f4       	brne	.+12     	; 0x994 <__EEPROM_REGION_LENGTH__+0x194>
     988:	0e 9b       	sbis	0x01, 6	; 1
     98a:	04 c0       	rjmp	.+8      	; 0x994 <__EEPROM_REGION_LENGTH__+0x194>
     98c:	0e 94 d9 22 	call	0x45b2	; 0x45b2 <Window2_1>
     990:	0e 99       	sbic	0x01, 6	; 1
     992:	fe cf       	rjmp	.-4      	; 0x990 <__EEPROM_REGION_LENGTH__+0x190>
     994:	0d 9b       	sbis	0x01, 5	; 1
     996:	08 c0       	rjmp	.+16     	; 0x9a8 <__EEPROM_REGION_LENGTH__+0x1a8>
     998:	80 91 53 01 	lds	r24, 0x0153	; 0x800153 <window>
     99c:	90 91 54 01 	lds	r25, 0x0154	; 0x800154 <window+0x1>
     9a0:	01 97       	sbiw	r24, 0x01	; 1
     9a2:	11 f4       	brne	.+4      	; 0x9a8 <__EEPROM_REGION_LENGTH__+0x1a8>
     9a4:	0e 94 83 31 	call	0x6306	; 0x6306 <Cursor2>
     9a8:	0c 9b       	sbis	0x01, 4	; 1
     9aa:	08 c0       	rjmp	.+16     	; 0x9bc <__EEPROM_REGION_LENGTH__+0x1bc>
     9ac:	80 91 53 01 	lds	r24, 0x0153	; 0x800153 <window>
     9b0:	90 91 54 01 	lds	r25, 0x0154	; 0x800154 <window+0x1>
     9b4:	01 97       	sbiw	r24, 0x01	; 1
     9b6:	11 f4       	brne	.+4      	; 0x9bc <__EEPROM_REGION_LENGTH__+0x1bc>
     9b8:	0e 94 4d 31 	call	0x629a	; 0x629a <Cursor1>
     9bc:	80 91 53 01 	lds	r24, 0x0153	; 0x800153 <window>
     9c0:	90 91 54 01 	lds	r25, 0x0154	; 0x800154 <window+0x1>
     9c4:	02 97       	sbiw	r24, 0x02	; 2
     9c6:	61 f4       	brne	.+24     	; 0x9e0 <__EEPROM_REGION_LENGTH__+0x1e0>
     9c8:	0e 9b       	sbis	0x01, 6	; 1
     9ca:	0a c0       	rjmp	.+20     	; 0x9e0 <__EEPROM_REGION_LENGTH__+0x1e0>
     9cc:	80 91 51 01 	lds	r24, 0x0151	; 0x800151 <cursor>
     9d0:	90 91 52 01 	lds	r25, 0x0152	; 0x800152 <cursor+0x1>
     9d4:	01 97       	sbiw	r24, 0x01	; 1
     9d6:	21 f4       	brne	.+8      	; 0x9e0 <__EEPROM_REGION_LENGTH__+0x1e0>
     9d8:	0e 94 e2 17 	call	0x2fc4	; 0x2fc4 <Window1>
     9dc:	0e 99       	sbic	0x01, 6	; 1
     9de:	fe cf       	rjmp	.-4      	; 0x9dc <__EEPROM_REGION_LENGTH__+0x1dc>
     9e0:	80 91 53 01 	lds	r24, 0x0153	; 0x800153 <window>
     9e4:	90 91 54 01 	lds	r25, 0x0154	; 0x800154 <window+0x1>
     9e8:	02 97       	sbiw	r24, 0x02	; 2
     9ea:	51 f5       	brne	.+84     	; 0xa40 <__EEPROM_REGION_LENGTH__+0x240>
     9ec:	0b 9b       	sbis	0x01, 3	; 1
     9ee:	28 c0       	rjmp	.+80     	; 0xa40 <__EEPROM_REGION_LENGTH__+0x240>
     9f0:	80 91 51 01 	lds	r24, 0x0151	; 0x800151 <cursor>
     9f4:	90 91 52 01 	lds	r25, 0x0152	; 0x800152 <cursor+0x1>
     9f8:	01 97       	sbiw	r24, 0x01	; 1
     9fa:	11 f5       	brne	.+68     	; 0xa40 <__EEPROM_REGION_LENGTH__+0x240>
     9fc:	80 91 07 01 	lds	r24, 0x0107	; 0x800107 <Weather_dependence>
     a00:	90 91 08 01 	lds	r25, 0x0108	; 0x800108 <Weather_dependence+0x1>
     a04:	89 2b       	or	r24, r25
     a06:	e1 f4       	brne	.+56     	; 0xa40 <__EEPROM_REGION_LENGTH__+0x240>
     a08:	60 91 01 01 	lds	r22, 0x0101	; 0x800101 <WaterLoad>
     a0c:	70 91 02 01 	lds	r23, 0x0102	; 0x800102 <WaterLoad+0x1>
     a10:	65 35       	cpi	r22, 0x55	; 85
     a12:	71 05       	cpc	r23, r1
     a14:	a8 f4       	brcc	.+42     	; 0xa40 <__EEPROM_REGION_LENGTH__+0x240>
     a16:	6f 5f       	subi	r22, 0xFF	; 255
     a18:	7f 4f       	sbci	r23, 0xFF	; 255
     a1a:	70 93 02 01 	sts	0x0102, r23	; 0x800102 <WaterLoad+0x1>
     a1e:	60 93 01 01 	sts	0x0101, r22	; 0x800101 <WaterLoad>
     a22:	85 e0       	ldi	r24, 0x05	; 5
     a24:	90 e0       	ldi	r25, 0x00	; 0
     a26:	0e 94 4e 38 	call	0x709c	; 0x709c <eeprom_write_byte>
     a2a:	0e 94 e4 32 	call	0x65c8	; 0x65c8 <Window2_1_WaterLoad>
     a2e:	7f e5       	ldi	r23, 0x5F	; 95
     a30:	8a ee       	ldi	r24, 0xEA	; 234
     a32:	90 e0       	ldi	r25, 0x00	; 0
     a34:	71 50       	subi	r23, 0x01	; 1
     a36:	80 40       	sbci	r24, 0x00	; 0
     a38:	90 40       	sbci	r25, 0x00	; 0
     a3a:	e1 f7       	brne	.-8      	; 0xa34 <__EEPROM_REGION_LENGTH__+0x234>
     a3c:	00 c0       	rjmp	.+0      	; 0xa3e <__EEPROM_REGION_LENGTH__+0x23e>
     a3e:	00 00       	nop
     a40:	80 91 53 01 	lds	r24, 0x0153	; 0x800153 <window>
     a44:	90 91 54 01 	lds	r25, 0x0154	; 0x800154 <window+0x1>
     a48:	02 97       	sbiw	r24, 0x02	; 2
     a4a:	51 f5       	brne	.+84     	; 0xaa0 <__EEPROM_REGION_LENGTH__+0x2a0>
     a4c:	0a 9b       	sbis	0x01, 2	; 1
     a4e:	28 c0       	rjmp	.+80     	; 0xaa0 <__EEPROM_REGION_LENGTH__+0x2a0>
     a50:	80 91 51 01 	lds	r24, 0x0151	; 0x800151 <cursor>
     a54:	90 91 52 01 	lds	r25, 0x0152	; 0x800152 <cursor+0x1>
     a58:	01 97       	sbiw	r24, 0x01	; 1
     a5a:	11 f5       	brne	.+68     	; 0xaa0 <__EEPROM_REGION_LENGTH__+0x2a0>
     a5c:	80 91 07 01 	lds	r24, 0x0107	; 0x800107 <Weather_dependence>
     a60:	90 91 08 01 	lds	r25, 0x0108	; 0x800108 <Weather_dependence+0x1>
     a64:	89 2b       	or	r24, r25
     a66:	e1 f4       	brne	.+56     	; 0xaa0 <__EEPROM_REGION_LENGTH__+0x2a0>
     a68:	60 91 01 01 	lds	r22, 0x0101	; 0x800101 <WaterLoad>
     a6c:	70 91 02 01 	lds	r23, 0x0102	; 0x800102 <WaterLoad+0x1>
     a70:	6a 31       	cpi	r22, 0x1A	; 26
     a72:	71 05       	cpc	r23, r1
     a74:	a8 f0       	brcs	.+42     	; 0xaa0 <__EEPROM_REGION_LENGTH__+0x2a0>
     a76:	61 50       	subi	r22, 0x01	; 1
     a78:	71 09       	sbc	r23, r1
     a7a:	70 93 02 01 	sts	0x0102, r23	; 0x800102 <WaterLoad+0x1>
     a7e:	60 93 01 01 	sts	0x0101, r22	; 0x800101 <WaterLoad>
     a82:	85 e0       	ldi	r24, 0x05	; 5
     a84:	90 e0       	ldi	r25, 0x00	; 0
     a86:	0e 94 4e 38 	call	0x709c	; 0x709c <eeprom_write_byte>
     a8a:	0e 94 e4 32 	call	0x65c8	; 0x65c8 <Window2_1_WaterLoad>
     a8e:	2f e5       	ldi	r18, 0x5F	; 95
     a90:	6a ee       	ldi	r22, 0xEA	; 234
     a92:	70 e0       	ldi	r23, 0x00	; 0
     a94:	21 50       	subi	r18, 0x01	; 1
     a96:	60 40       	sbci	r22, 0x00	; 0
     a98:	70 40       	sbci	r23, 0x00	; 0
     a9a:	e1 f7       	brne	.-8      	; 0xa94 <__EEPROM_REGION_LENGTH__+0x294>
     a9c:	00 c0       	rjmp	.+0      	; 0xa9e <__EEPROM_REGION_LENGTH__+0x29e>
     a9e:	00 00       	nop
     aa0:	80 91 17 01 	lds	r24, 0x0117	; 0x800117 <AirTemp>
     aa4:	90 91 18 01 	lds	r25, 0x0118	; 0x800118 <AirTemp+0x1>
     aa8:	80 35       	cpi	r24, 0x50	; 80
     aaa:	91 05       	cpc	r25, r1
     aac:	7c f4       	brge	.+30     	; 0xacc <__EEPROM_REGION_LENGTH__+0x2cc>
     aae:	80 91 53 01 	lds	r24, 0x0153	; 0x800153 <window>
     ab2:	90 91 54 01 	lds	r25, 0x0154	; 0x800154 <window+0x1>
     ab6:	02 97       	sbiw	r24, 0x02	; 2
     ab8:	49 f4       	brne	.+18     	; 0xacc <__EEPROM_REGION_LENGTH__+0x2cc>
     aba:	80 91 51 01 	lds	r24, 0x0151	; 0x800151 <cursor>
     abe:	90 91 52 01 	lds	r25, 0x0152	; 0x800152 <cursor+0x1>
     ac2:	01 97       	sbiw	r24, 0x01	; 1
     ac4:	19 f4       	brne	.+6      	; 0xacc <__EEPROM_REGION_LENGTH__+0x2cc>
     ac6:	0d 99       	sbic	0x01, 5	; 1
     ac8:	0e 94 a4 30 	call	0x6148	; 0x6148 <cursor2_2>
     acc:	80 91 17 01 	lds	r24, 0x0117	; 0x800117 <AirTemp>
     ad0:	90 91 18 01 	lds	r25, 0x0118	; 0x800118 <AirTemp+0x1>
     ad4:	80 35       	cpi	r24, 0x50	; 80
     ad6:	91 05       	cpc	r25, r1
     ad8:	7c f4       	brge	.+30     	; 0xaf8 <__EEPROM_REGION_LENGTH__+0x2f8>
     ada:	80 91 53 01 	lds	r24, 0x0153	; 0x800153 <window>
     ade:	90 91 54 01 	lds	r25, 0x0154	; 0x800154 <window+0x1>
     ae2:	02 97       	sbiw	r24, 0x02	; 2
     ae4:	49 f4       	brne	.+18     	; 0xaf8 <__EEPROM_REGION_LENGTH__+0x2f8>
     ae6:	80 91 51 01 	lds	r24, 0x0151	; 0x800151 <cursor>
     aea:	90 91 52 01 	lds	r25, 0x0152	; 0x800152 <cursor+0x1>
     aee:	02 97       	sbiw	r24, 0x02	; 2
     af0:	19 f4       	brne	.+6      	; 0xaf8 <__EEPROM_REGION_LENGTH__+0x2f8>
     af2:	0c 99       	sbic	0x01, 4	; 1
     af4:	0e 94 6b 30 	call	0x60d6	; 0x60d6 <cursor2_1>
     af8:	80 91 17 01 	lds	r24, 0x0117	; 0x800117 <AirTemp>
     afc:	90 91 18 01 	lds	r25, 0x0118	; 0x800118 <AirTemp+0x1>
     b00:	80 35       	cpi	r24, 0x50	; 80
     b02:	91 05       	cpc	r25, r1
     b04:	8c f5       	brge	.+98     	; 0xb68 <__EEPROM_REGION_LENGTH__+0x368>
     b06:	80 91 53 01 	lds	r24, 0x0153	; 0x800153 <window>
     b0a:	90 91 54 01 	lds	r25, 0x0154	; 0x800154 <window+0x1>
     b0e:	02 97       	sbiw	r24, 0x02	; 2
     b10:	59 f5       	brne	.+86     	; 0xb68 <__EEPROM_REGION_LENGTH__+0x368>
     b12:	80 91 51 01 	lds	r24, 0x0151	; 0x800151 <cursor>
     b16:	90 91 52 01 	lds	r25, 0x0152	; 0x800152 <cursor+0x1>
     b1a:	02 97       	sbiw	r24, 0x02	; 2
     b1c:	29 f5       	brne	.+74     	; 0xb68 <__EEPROM_REGION_LENGTH__+0x368>
     b1e:	80 91 07 01 	lds	r24, 0x0107	; 0x800107 <Weather_dependence>
     b22:	90 91 08 01 	lds	r25, 0x0108	; 0x800108 <Weather_dependence+0x1>
     b26:	89 2b       	or	r24, r25
     b28:	f9 f4       	brne	.+62     	; 0xb68 <__EEPROM_REGION_LENGTH__+0x368>
     b2a:	0e 9b       	sbis	0x01, 6	; 1
     b2c:	1d c0       	rjmp	.+58     	; 0xb68 <__EEPROM_REGION_LENGTH__+0x368>
     b2e:	81 e0       	ldi	r24, 0x01	; 1
     b30:	90 e0       	ldi	r25, 0x00	; 0
     b32:	90 93 08 01 	sts	0x0108, r25	; 0x800108 <Weather_dependence+0x1>
     b36:	80 93 07 01 	sts	0x0107, r24	; 0x800107 <Weather_dependence>
     b3a:	61 e0       	ldi	r22, 0x01	; 1
     b3c:	83 e0       	ldi	r24, 0x03	; 3
     b3e:	90 e0       	ldi	r25, 0x00	; 0
     b40:	0e 94 4e 38 	call	0x709c	; 0x709c <eeprom_write_byte>
     b44:	86 e0       	ldi	r24, 0x06	; 6
     b46:	80 93 10 01 	sts	0x0110, r24	; 0x800110 <textx>
     b4a:	87 e0       	ldi	r24, 0x07	; 7
     b4c:	80 93 1f 01 	sts	0x011F, r24	; 0x80011f <texty>
     b50:	49 e0       	ldi	r20, 0x09	; 9
     b52:	63 e6       	ldi	r22, 0x63	; 99
     b54:	75 e0       	ldi	r23, 0x05	; 5
     b56:	80 e0       	ldi	r24, 0x00	; 0
     b58:	0e 94 8b 32 	call	0x6516	; 0x6516 <link>
     b5c:	0e 94 6b 30 	call	0x60d6	; 0x60d6 <cursor2_1>
     b60:	0e 94 d9 22 	call	0x45b2	; 0x45b2 <Window2_1>
     b64:	0e 99       	sbic	0x01, 6	; 1
     b66:	fe cf       	rjmp	.-4      	; 0xb64 <__EEPROM_REGION_LENGTH__+0x364>
     b68:	80 91 17 01 	lds	r24, 0x0117	; 0x800117 <AirTemp>
     b6c:	90 91 18 01 	lds	r25, 0x0118	; 0x800118 <AirTemp+0x1>
     b70:	80 35       	cpi	r24, 0x50	; 80
     b72:	91 05       	cpc	r25, r1
     b74:	7c f5       	brge	.+94     	; 0xbd4 <__EEPROM_REGION_LENGTH__+0x3d4>
     b76:	80 91 53 01 	lds	r24, 0x0153	; 0x800153 <window>
     b7a:	90 91 54 01 	lds	r25, 0x0154	; 0x800154 <window+0x1>
     b7e:	02 97       	sbiw	r24, 0x02	; 2
     b80:	49 f5       	brne	.+82     	; 0xbd4 <__EEPROM_REGION_LENGTH__+0x3d4>
     b82:	80 91 51 01 	lds	r24, 0x0151	; 0x800151 <cursor>
     b86:	90 91 52 01 	lds	r25, 0x0152	; 0x800152 <cursor+0x1>
     b8a:	02 97       	sbiw	r24, 0x02	; 2
     b8c:	19 f5       	brne	.+70     	; 0xbd4 <__EEPROM_REGION_LENGTH__+0x3d4>
     b8e:	80 91 07 01 	lds	r24, 0x0107	; 0x800107 <Weather_dependence>
     b92:	90 91 08 01 	lds	r25, 0x0108	; 0x800108 <Weather_dependence+0x1>
     b96:	01 97       	sbiw	r24, 0x01	; 1
     b98:	e9 f4       	brne	.+58     	; 0xbd4 <__EEPROM_REGION_LENGTH__+0x3d4>
     b9a:	0e 9b       	sbis	0x01, 6	; 1
     b9c:	1b c0       	rjmp	.+54     	; 0xbd4 <__EEPROM_REGION_LENGTH__+0x3d4>
     b9e:	10 92 08 01 	sts	0x0108, r1	; 0x800108 <Weather_dependence+0x1>
     ba2:	10 92 07 01 	sts	0x0107, r1	; 0x800107 <Weather_dependence>
     ba6:	60 e0       	ldi	r22, 0x00	; 0
     ba8:	83 e0       	ldi	r24, 0x03	; 3
     baa:	90 e0       	ldi	r25, 0x00	; 0
     bac:	0e 94 4e 38 	call	0x709c	; 0x709c <eeprom_write_byte>
     bb0:	86 e0       	ldi	r24, 0x06	; 6
     bb2:	80 93 10 01 	sts	0x0110, r24	; 0x800110 <textx>
     bb6:	87 e0       	ldi	r24, 0x07	; 7
     bb8:	80 93 1f 01 	sts	0x011F, r24	; 0x80011f <texty>
     bbc:	49 e0       	ldi	r20, 0x09	; 9
     bbe:	69 e5       	ldi	r22, 0x59	; 89
     bc0:	75 e0       	ldi	r23, 0x05	; 5
     bc2:	80 e0       	ldi	r24, 0x00	; 0
     bc4:	0e 94 8b 32 	call	0x6516	; 0x6516 <link>
     bc8:	0e 94 6b 30 	call	0x60d6	; 0x60d6 <cursor2_1>
     bcc:	0e 94 d9 22 	call	0x45b2	; 0x45b2 <Window2_1>
     bd0:	0e 99       	sbic	0x01, 6	; 1
     bd2:	fe cf       	rjmp	.-4      	; 0xbd0 <__EEPROM_REGION_LENGTH__+0x3d0>
     bd4:	80 91 53 01 	lds	r24, 0x0153	; 0x800153 <window>
     bd8:	90 91 54 01 	lds	r25, 0x0154	; 0x800154 <window+0x1>
     bdc:	02 97       	sbiw	r24, 0x02	; 2
     bde:	19 f5       	brne	.+70     	; 0xc26 <__EEPROM_REGION_LENGTH__+0x426>
     be0:	80 91 51 01 	lds	r24, 0x0151	; 0x800151 <cursor>
     be4:	90 91 52 01 	lds	r25, 0x0152	; 0x800152 <cursor+0x1>
     be8:	01 97       	sbiw	r24, 0x01	; 1
     bea:	e9 f4       	brne	.+58     	; 0xc26 <__EEPROM_REGION_LENGTH__+0x426>
     bec:	80 91 07 01 	lds	r24, 0x0107	; 0x800107 <Weather_dependence>
     bf0:	90 91 08 01 	lds	r25, 0x0108	; 0x800108 <Weather_dependence+0x1>
     bf4:	01 97       	sbiw	r24, 0x01	; 1
     bf6:	b9 f4       	brne	.+46     	; 0xc26 <__EEPROM_REGION_LENGTH__+0x426>
     bf8:	80 91 0e 01 	lds	r24, 0x010E	; 0x80010e <Weather_dependence_Mode>
     bfc:	90 91 0f 01 	lds	r25, 0x010F	; 0x80010f <Weather_dependence_Mode+0x1>
     c00:	01 97       	sbiw	r24, 0x01	; 1
     c02:	89 f4       	brne	.+34     	; 0xc26 <__EEPROM_REGION_LENGTH__+0x426>
     c04:	0b 9b       	sbis	0x01, 3	; 1
     c06:	0f c0       	rjmp	.+30     	; 0xc26 <__EEPROM_REGION_LENGTH__+0x426>
     c08:	82 e0       	ldi	r24, 0x02	; 2
     c0a:	90 e0       	ldi	r25, 0x00	; 0
     c0c:	90 93 0f 01 	sts	0x010F, r25	; 0x80010f <Weather_dependence_Mode+0x1>
     c10:	80 93 0e 01 	sts	0x010E, r24	; 0x80010e <Weather_dependence_Mode>
     c14:	62 e0       	ldi	r22, 0x02	; 2
     c16:	82 e0       	ldi	r24, 0x02	; 2
     c18:	90 e0       	ldi	r25, 0x00	; 0
     c1a:	0e 94 4e 38 	call	0x709c	; 0x709c <eeprom_write_byte>
     c1e:	0e 94 d9 22 	call	0x45b2	; 0x45b2 <Window2_1>
     c22:	0b 99       	sbic	0x01, 3	; 1
     c24:	fe cf       	rjmp	.-4      	; 0xc22 <__EEPROM_REGION_LENGTH__+0x422>
     c26:	80 91 53 01 	lds	r24, 0x0153	; 0x800153 <window>
     c2a:	90 91 54 01 	lds	r25, 0x0154	; 0x800154 <window+0x1>
     c2e:	02 97       	sbiw	r24, 0x02	; 2
     c30:	19 f5       	brne	.+70     	; 0xc78 <__EEPROM_REGION_LENGTH__+0x478>
     c32:	80 91 51 01 	lds	r24, 0x0151	; 0x800151 <cursor>
     c36:	90 91 52 01 	lds	r25, 0x0152	; 0x800152 <cursor+0x1>
     c3a:	01 97       	sbiw	r24, 0x01	; 1
     c3c:	e9 f4       	brne	.+58     	; 0xc78 <__EEPROM_REGION_LENGTH__+0x478>
     c3e:	80 91 07 01 	lds	r24, 0x0107	; 0x800107 <Weather_dependence>
     c42:	90 91 08 01 	lds	r25, 0x0108	; 0x800108 <Weather_dependence+0x1>
     c46:	01 97       	sbiw	r24, 0x01	; 1
     c48:	b9 f4       	brne	.+46     	; 0xc78 <__EEPROM_REGION_LENGTH__+0x478>
     c4a:	80 91 0e 01 	lds	r24, 0x010E	; 0x80010e <Weather_dependence_Mode>
     c4e:	90 91 0f 01 	lds	r25, 0x010F	; 0x80010f <Weather_dependence_Mode+0x1>
     c52:	02 97       	sbiw	r24, 0x02	; 2
     c54:	89 f4       	brne	.+34     	; 0xc78 <__EEPROM_REGION_LENGTH__+0x478>
     c56:	0b 9b       	sbis	0x01, 3	; 1
     c58:	0f c0       	rjmp	.+30     	; 0xc78 <__EEPROM_REGION_LENGTH__+0x478>
     c5a:	83 e0       	ldi	r24, 0x03	; 3
     c5c:	90 e0       	ldi	r25, 0x00	; 0
     c5e:	90 93 0f 01 	sts	0x010F, r25	; 0x80010f <Weather_dependence_Mode+0x1>
     c62:	80 93 0e 01 	sts	0x010E, r24	; 0x80010e <Weather_dependence_Mode>
     c66:	63 e0       	ldi	r22, 0x03	; 3
     c68:	82 e0       	ldi	r24, 0x02	; 2
     c6a:	90 e0       	ldi	r25, 0x00	; 0
     c6c:	0e 94 4e 38 	call	0x709c	; 0x709c <eeprom_write_byte>
     c70:	0e 94 d9 22 	call	0x45b2	; 0x45b2 <Window2_1>
     c74:	0b 99       	sbic	0x01, 3	; 1
     c76:	fe cf       	rjmp	.-4      	; 0xc74 <__EEPROM_REGION_LENGTH__+0x474>
     c78:	80 91 53 01 	lds	r24, 0x0153	; 0x800153 <window>
     c7c:	90 91 54 01 	lds	r25, 0x0154	; 0x800154 <window+0x1>
     c80:	02 97       	sbiw	r24, 0x02	; 2
     c82:	19 f5       	brne	.+70     	; 0xcca <__EEPROM_REGION_LENGTH__+0x4ca>
     c84:	80 91 51 01 	lds	r24, 0x0151	; 0x800151 <cursor>
     c88:	90 91 52 01 	lds	r25, 0x0152	; 0x800152 <cursor+0x1>
     c8c:	01 97       	sbiw	r24, 0x01	; 1
     c8e:	e9 f4       	brne	.+58     	; 0xcca <__EEPROM_REGION_LENGTH__+0x4ca>
     c90:	80 91 07 01 	lds	r24, 0x0107	; 0x800107 <Weather_dependence>
     c94:	90 91 08 01 	lds	r25, 0x0108	; 0x800108 <Weather_dependence+0x1>
     c98:	01 97       	sbiw	r24, 0x01	; 1
     c9a:	b9 f4       	brne	.+46     	; 0xcca <__EEPROM_REGION_LENGTH__+0x4ca>
     c9c:	80 91 0e 01 	lds	r24, 0x010E	; 0x80010e <Weather_dependence_Mode>
     ca0:	90 91 0f 01 	lds	r25, 0x010F	; 0x80010f <Weather_dependence_Mode+0x1>
     ca4:	03 97       	sbiw	r24, 0x03	; 3
     ca6:	89 f4       	brne	.+34     	; 0xcca <__EEPROM_REGION_LENGTH__+0x4ca>
     ca8:	0a 9b       	sbis	0x01, 2	; 1
     caa:	0f c0       	rjmp	.+30     	; 0xcca <__EEPROM_REGION_LENGTH__+0x4ca>
     cac:	82 e0       	ldi	r24, 0x02	; 2
     cae:	90 e0       	ldi	r25, 0x00	; 0
     cb0:	90 93 0f 01 	sts	0x010F, r25	; 0x80010f <Weather_dependence_Mode+0x1>
     cb4:	80 93 0e 01 	sts	0x010E, r24	; 0x80010e <Weather_dependence_Mode>
     cb8:	62 e0       	ldi	r22, 0x02	; 2
     cba:	82 e0       	ldi	r24, 0x02	; 2
     cbc:	90 e0       	ldi	r25, 0x00	; 0
     cbe:	0e 94 4e 38 	call	0x709c	; 0x709c <eeprom_write_byte>
     cc2:	0e 94 d9 22 	call	0x45b2	; 0x45b2 <Window2_1>
     cc6:	0a 99       	sbic	0x01, 2	; 1
     cc8:	fe cf       	rjmp	.-4      	; 0xcc6 <__EEPROM_REGION_LENGTH__+0x4c6>
     cca:	80 91 53 01 	lds	r24, 0x0153	; 0x800153 <window>
     cce:	90 91 54 01 	lds	r25, 0x0154	; 0x800154 <window+0x1>
     cd2:	02 97       	sbiw	r24, 0x02	; 2
     cd4:	19 f5       	brne	.+70     	; 0xd1c <__EEPROM_REGION_LENGTH__+0x51c>
     cd6:	80 91 51 01 	lds	r24, 0x0151	; 0x800151 <cursor>
     cda:	90 91 52 01 	lds	r25, 0x0152	; 0x800152 <cursor+0x1>
     cde:	01 97       	sbiw	r24, 0x01	; 1
     ce0:	e9 f4       	brne	.+58     	; 0xd1c <__EEPROM_REGION_LENGTH__+0x51c>
     ce2:	80 91 07 01 	lds	r24, 0x0107	; 0x800107 <Weather_dependence>
     ce6:	90 91 08 01 	lds	r25, 0x0108	; 0x800108 <Weather_dependence+0x1>
     cea:	01 97       	sbiw	r24, 0x01	; 1
     cec:	b9 f4       	brne	.+46     	; 0xd1c <__EEPROM_REGION_LENGTH__+0x51c>
     cee:	80 91 0e 01 	lds	r24, 0x010E	; 0x80010e <Weather_dependence_Mode>
     cf2:	90 91 0f 01 	lds	r25, 0x010F	; 0x80010f <Weather_dependence_Mode+0x1>
     cf6:	02 97       	sbiw	r24, 0x02	; 2
     cf8:	89 f4       	brne	.+34     	; 0xd1c <__EEPROM_REGION_LENGTH__+0x51c>
     cfa:	0a 9b       	sbis	0x01, 2	; 1
     cfc:	0f c0       	rjmp	.+30     	; 0xd1c <__EEPROM_REGION_LENGTH__+0x51c>
     cfe:	81 e0       	ldi	r24, 0x01	; 1
     d00:	90 e0       	ldi	r25, 0x00	; 0
     d02:	90 93 0f 01 	sts	0x010F, r25	; 0x80010f <Weather_dependence_Mode+0x1>
     d06:	80 93 0e 01 	sts	0x010E, r24	; 0x80010e <Weather_dependence_Mode>
     d0a:	61 e0       	ldi	r22, 0x01	; 1
     d0c:	82 e0       	ldi	r24, 0x02	; 2
     d0e:	90 e0       	ldi	r25, 0x00	; 0
     d10:	0e 94 4e 38 	call	0x709c	; 0x709c <eeprom_write_byte>
     d14:	0e 94 d9 22 	call	0x45b2	; 0x45b2 <Window2_1>
     d18:	0a 99       	sbic	0x01, 2	; 1
     d1a:	fe cf       	rjmp	.-4      	; 0xd18 <__EEPROM_REGION_LENGTH__+0x518>
     d1c:	80 91 53 01 	lds	r24, 0x0153	; 0x800153 <window>
     d20:	90 91 54 01 	lds	r25, 0x0154	; 0x800154 <window+0x1>
     d24:	01 97       	sbiw	r24, 0x01	; 1
     d26:	c1 f4       	brne	.+48     	; 0xd58 <__EEPROM_REGION_LENGTH__+0x558>
     d28:	80 91 51 01 	lds	r24, 0x0151	; 0x800151 <cursor>
     d2c:	90 91 52 01 	lds	r25, 0x0152	; 0x800152 <cursor+0x1>
     d30:	01 97       	sbiw	r24, 0x01	; 1
     d32:	91 f4       	brne	.+36     	; 0xd58 <__EEPROM_REGION_LENGTH__+0x558>
     d34:	80 91 13 01 	lds	r24, 0x0113	; 0x800113 <Start_stop>
     d38:	90 91 14 01 	lds	r25, 0x0114	; 0x800114 <Start_stop+0x1>
     d3c:	89 2b       	or	r24, r25
     d3e:	61 f4       	brne	.+24     	; 0xd58 <__EEPROM_REGION_LENGTH__+0x558>
     d40:	80 91 41 01 	lds	r24, 0x0141	; 0x800141 <Flag_Temp>
     d44:	90 91 42 01 	lds	r25, 0x0142	; 0x800142 <Flag_Temp+0x1>
     d48:	01 97       	sbiw	r24, 0x01	; 1
     d4a:	31 f4       	brne	.+12     	; 0xd58 <__EEPROM_REGION_LENGTH__+0x558>
     d4c:	0e 9b       	sbis	0x01, 6	; 1
     d4e:	04 c0       	rjmp	.+8      	; 0xd58 <__EEPROM_REGION_LENGTH__+0x558>
     d50:	0e 94 00 22 	call	0x4400	; 0x4400 <Start>
     d54:	0e 99       	sbic	0x01, 6	; 1
     d56:	fe cf       	rjmp	.-4      	; 0xd54 <__EEPROM_REGION_LENGTH__+0x554>
     d58:	80 91 53 01 	lds	r24, 0x0153	; 0x800153 <window>
     d5c:	90 91 54 01 	lds	r25, 0x0154	; 0x800154 <window+0x1>
     d60:	01 97       	sbiw	r24, 0x01	; 1
     d62:	f1 f4       	brne	.+60     	; 0xda0 <__EEPROM_REGION_LENGTH__+0x5a0>
     d64:	80 91 51 01 	lds	r24, 0x0151	; 0x800151 <cursor>
     d68:	90 91 52 01 	lds	r25, 0x0152	; 0x800152 <cursor+0x1>
     d6c:	01 97       	sbiw	r24, 0x01	; 1
     d6e:	c1 f4       	brne	.+48     	; 0xda0 <__EEPROM_REGION_LENGTH__+0x5a0>
     d70:	80 91 13 01 	lds	r24, 0x0113	; 0x800113 <Start_stop>
     d74:	90 91 14 01 	lds	r25, 0x0114	; 0x800114 <Start_stop+0x1>
     d78:	89 2b       	or	r24, r25
     d7a:	91 f4       	brne	.+36     	; 0xda0 <__EEPROM_REGION_LENGTH__+0x5a0>
     d7c:	80 91 41 01 	lds	r24, 0x0141	; 0x800141 <Flag_Temp>
     d80:	90 91 42 01 	lds	r25, 0x0142	; 0x800142 <Flag_Temp+0x1>
     d84:	89 2b       	or	r24, r25
     d86:	61 f4       	brne	.+24     	; 0xda0 <__EEPROM_REGION_LENGTH__+0x5a0>
     d88:	0e 9b       	sbis	0x01, 6	; 1
     d8a:	0a c0       	rjmp	.+20     	; 0xda0 <__EEPROM_REGION_LENGTH__+0x5a0>
     d8c:	81 e0       	ldi	r24, 0x01	; 1
     d8e:	90 e0       	ldi	r25, 0x00	; 0
     d90:	90 93 14 01 	sts	0x0114, r25	; 0x800114 <Start_stop+0x1>
     d94:	80 93 13 01 	sts	0x0113, r24	; 0x800113 <Start_stop>
     d98:	0e 94 e2 17 	call	0x2fc4	; 0x2fc4 <Window1>
     d9c:	0e 99       	sbic	0x01, 6	; 1
     d9e:	fe cf       	rjmp	.-4      	; 0xd9c <__EEPROM_REGION_LENGTH__+0x59c>
     da0:	80 91 53 01 	lds	r24, 0x0153	; 0x800153 <window>
     da4:	90 91 54 01 	lds	r25, 0x0154	; 0x800154 <window+0x1>
     da8:	01 97       	sbiw	r24, 0x01	; 1
     daa:	c1 f4       	brne	.+48     	; 0xddc <__EEPROM_REGION_LENGTH__+0x5dc>
     dac:	80 91 51 01 	lds	r24, 0x0151	; 0x800151 <cursor>
     db0:	90 91 52 01 	lds	r25, 0x0152	; 0x800152 <cursor+0x1>
     db4:	01 97       	sbiw	r24, 0x01	; 1
     db6:	91 f4       	brne	.+36     	; 0xddc <__EEPROM_REGION_LENGTH__+0x5dc>
     db8:	80 91 13 01 	lds	r24, 0x0113	; 0x800113 <Start_stop>
     dbc:	90 91 14 01 	lds	r25, 0x0114	; 0x800114 <Start_stop+0x1>
     dc0:	01 97       	sbiw	r24, 0x01	; 1
     dc2:	61 f4       	brne	.+24     	; 0xddc <__EEPROM_REGION_LENGTH__+0x5dc>
     dc4:	0e 9b       	sbis	0x01, 6	; 1
     dc6:	0a c0       	rjmp	.+20     	; 0xddc <__EEPROM_REGION_LENGTH__+0x5dc>
     dc8:	10 92 14 01 	sts	0x0114, r1	; 0x800114 <Start_stop+0x1>
     dcc:	10 92 13 01 	sts	0x0113, r1	; 0x800113 <Start_stop>
     dd0:	0e 94 e2 17 	call	0x2fc4	; 0x2fc4 <Window1>
     dd4:	0e 94 b9 32 	call	0x6572	; 0x6572 <WorkStop>
     dd8:	0e 99       	sbic	0x01, 6	; 1
     dda:	fe cf       	rjmp	.-4      	; 0xdd8 <__EEPROM_REGION_LENGTH__+0x5d8>
     ddc:	80 91 53 01 	lds	r24, 0x0153	; 0x800153 <window>
     de0:	90 91 54 01 	lds	r25, 0x0154	; 0x800154 <window+0x1>
     de4:	03 97       	sbiw	r24, 0x03	; 3
     de6:	02 97       	sbiw	r24, 0x02	; 2
     de8:	90 f4       	brcc	.+36     	; 0xe0e <__EEPROM_REGION_LENGTH__+0x60e>
     dea:	80 91 13 01 	lds	r24, 0x0113	; 0x800113 <Start_stop>
     dee:	90 91 14 01 	lds	r25, 0x0114	; 0x800114 <Start_stop+0x1>
     df2:	01 97       	sbiw	r24, 0x01	; 1
     df4:	61 f4       	brne	.+24     	; 0xe0e <__EEPROM_REGION_LENGTH__+0x60e>
     df6:	0e 9b       	sbis	0x01, 6	; 1
     df8:	0a c0       	rjmp	.+20     	; 0xe0e <__EEPROM_REGION_LENGTH__+0x60e>
     dfa:	10 92 14 01 	sts	0x0114, r1	; 0x800114 <Start_stop+0x1>
     dfe:	10 92 13 01 	sts	0x0113, r1	; 0x800113 <Start_stop>
     e02:	0e 94 e2 17 	call	0x2fc4	; 0x2fc4 <Window1>
     e06:	0e 94 b9 32 	call	0x6572	; 0x6572 <WorkStop>
     e0a:	0e 99       	sbic	0x01, 6	; 1
     e0c:	fe cf       	rjmp	.-4      	; 0xe0a <__EEPROM_REGION_LENGTH__+0x60a>
     e0e:	60 91 13 01 	lds	r22, 0x0113	; 0x800113 <Start_stop>
     e12:	70 91 14 01 	lds	r23, 0x0114	; 0x800114 <Start_stop+0x1>
     e16:	80 91 09 01 	lds	r24, 0x0109	; 0x800109 <Start_stop_compare>
     e1a:	90 91 0a 01 	lds	r25, 0x010A	; 0x80010a <Start_stop_compare+0x1>
     e1e:	68 17       	cp	r22, r24
     e20:	79 07       	cpc	r23, r25
     e22:	41 f0       	breq	.+16     	; 0xe34 <__EEPROM_REGION_LENGTH__+0x634>
     e24:	70 93 0a 01 	sts	0x010A, r23	; 0x80010a <Start_stop_compare+0x1>
     e28:	60 93 09 01 	sts	0x0109, r22	; 0x800109 <Start_stop_compare>
     e2c:	84 e0       	ldi	r24, 0x04	; 4
     e2e:	90 e0       	ldi	r25, 0x00	; 0
     e30:	0e 94 4e 38 	call	0x709c	; 0x709c <eeprom_write_byte>
     e34:	80 91 07 01 	lds	r24, 0x0107	; 0x800107 <Weather_dependence>
     e38:	90 91 08 01 	lds	r25, 0x0108	; 0x800108 <Weather_dependence+0x1>
     e3c:	89 2b       	or	r24, r25
     e3e:	c1 f0       	breq	.+48     	; 0xe70 <__EEPROM_REGION_LENGTH__+0x670>
     e40:	80 91 17 01 	lds	r24, 0x0117	; 0x800117 <AirTemp>
     e44:	90 91 18 01 	lds	r25, 0x0118	; 0x800118 <AirTemp+0x1>
     e48:	81 35       	cpi	r24, 0x51	; 81
     e4a:	91 05       	cpc	r25, r1
     e4c:	8c f0       	brlt	.+34     	; 0xe70 <__EEPROM_REGION_LENGTH__+0x670>
     e4e:	80 91 13 01 	lds	r24, 0x0113	; 0x800113 <Start_stop>
     e52:	90 91 14 01 	lds	r25, 0x0114	; 0x800114 <Start_stop+0x1>
     e56:	89 2b       	or	r24, r25
     e58:	59 f0       	breq	.+22     	; 0xe70 <__EEPROM_REGION_LENGTH__+0x670>
     e5a:	10 92 08 01 	sts	0x0108, r1	; 0x800108 <Weather_dependence+0x1>
     e5e:	10 92 07 01 	sts	0x0107, r1	; 0x800107 <Weather_dependence>
     e62:	60 e0       	ldi	r22, 0x00	; 0
     e64:	83 e0       	ldi	r24, 0x03	; 3
     e66:	90 e0       	ldi	r25, 0x00	; 0
     e68:	0e 94 4e 38 	call	0x709c	; 0x709c <eeprom_write_byte>
     e6c:	0e 94 e2 17 	call	0x2fc4	; 0x2fc4 <Window1>
     e70:	03 99       	sbic	0x00, 3	; 0
     e72:	3f c0       	rjmp	.+126    	; 0xef2 <__EEPROM_REGION_LENGTH__+0x6f2>
     e74:	80 91 13 01 	lds	r24, 0x0113	; 0x800113 <Start_stop>
     e78:	90 91 14 01 	lds	r25, 0x0114	; 0x800114 <Start_stop+0x1>
     e7c:	89 2b       	or	r24, r25
     e7e:	c9 f1       	breq	.+114    	; 0xef2 <__EEPROM_REGION_LENGTH__+0x6f2>
     e80:	0e 94 b9 32 	call	0x6572	; 0x6572 <WorkStop>
     e84:	0e 94 07 38 	call	0x700e	; 0x700e <E1>
     e88:	81 e0       	ldi	r24, 0x01	; 1
     e8a:	90 e0       	ldi	r25, 0x00	; 0
     e8c:	90 93 4c 01 	sts	0x014C, r25	; 0x80014c <Flag_E1+0x1>
     e90:	80 93 4b 01 	sts	0x014B, r24	; 0x80014b <Flag_E1>
     e94:	10 92 60 01 	sts	0x0160, r1	; 0x800160 <Work+0x1>
     e98:	10 92 5f 01 	sts	0x015F, r1	; 0x80015f <Work>
     e9c:	80 91 53 01 	lds	r24, 0x0153	; 0x800153 <window>
     ea0:	90 91 54 01 	lds	r25, 0x0154	; 0x800154 <window+0x1>
     ea4:	03 97       	sbiw	r24, 0x03	; 3
     ea6:	e1 f4       	brne	.+56     	; 0xee0 <__EEPROM_REGION_LENGTH__+0x6e0>
     ea8:	80 91 51 01 	lds	r24, 0x0151	; 0x800151 <cursor>
     eac:	90 91 52 01 	lds	r25, 0x0152	; 0x800152 <cursor+0x1>
     eb0:	01 97       	sbiw	r24, 0x01	; 1
     eb2:	b1 f4       	brne	.+44     	; 0xee0 <__EEPROM_REGION_LENGTH__+0x6e0>
     eb4:	80 91 13 01 	lds	r24, 0x0113	; 0x800113 <Start_stop>
     eb8:	90 91 14 01 	lds	r25, 0x0114	; 0x800114 <Start_stop+0x1>
     ebc:	01 97       	sbiw	r24, 0x01	; 1
     ebe:	81 f4       	brne	.+32     	; 0xee0 <__EEPROM_REGION_LENGTH__+0x6e0>
     ec0:	0e 9b       	sbis	0x01, 6	; 1
     ec2:	0e c0       	rjmp	.+28     	; 0xee0 <__EEPROM_REGION_LENGTH__+0x6e0>
     ec4:	10 92 14 01 	sts	0x0114, r1	; 0x800114 <Start_stop+0x1>
     ec8:	10 92 13 01 	sts	0x0113, r1	; 0x800113 <Start_stop>
     ecc:	10 92 60 01 	sts	0x0160, r1	; 0x800160 <Work+0x1>
     ed0:	10 92 5f 01 	sts	0x015F, r1	; 0x80015f <Work>
     ed4:	0e 94 b9 32 	call	0x6572	; 0x6572 <WorkStop>
     ed8:	0e 94 e2 17 	call	0x2fc4	; 0x2fc4 <Window1>
     edc:	0e 99       	sbic	0x01, 6	; 1
     ede:	fe cf       	rjmp	.-4      	; 0xedc <__EEPROM_REGION_LENGTH__+0x6dc>
     ee0:	03 99       	sbic	0x00, 3	; 0
     ee2:	21 c0       	rjmp	.+66     	; 0xf26 <__EEPROM_REGION_LENGTH__+0x726>
     ee4:	80 91 13 01 	lds	r24, 0x0113	; 0x800113 <Start_stop>
     ee8:	90 91 14 01 	lds	r25, 0x0114	; 0x800114 <Start_stop+0x1>
     eec:	89 2b       	or	r24, r25
     eee:	b1 f6       	brne	.-84     	; 0xe9c <__EEPROM_REGION_LENGTH__+0x69c>
     ef0:	1a c0       	rjmp	.+52     	; 0xf26 <__EEPROM_REGION_LENGTH__+0x726>
     ef2:	80 91 4b 01 	lds	r24, 0x014B	; 0x80014b <Flag_E1>
     ef6:	90 91 4c 01 	lds	r25, 0x014C	; 0x80014c <Flag_E1+0x1>
     efa:	89 2b       	or	r24, r25
     efc:	a1 f0       	breq	.+40     	; 0xf26 <__EEPROM_REGION_LENGTH__+0x726>
     efe:	03 9b       	sbis	0x00, 3	; 0
     f00:	12 c0       	rjmp	.+36     	; 0xf26 <__EEPROM_REGION_LENGTH__+0x726>
     f02:	80 91 13 01 	lds	r24, 0x0113	; 0x800113 <Start_stop>
     f06:	90 91 14 01 	lds	r25, 0x0114	; 0x800114 <Start_stop+0x1>
     f0a:	89 2b       	or	r24, r25
     f0c:	61 f0       	breq	.+24     	; 0xf26 <__EEPROM_REGION_LENGTH__+0x726>
     f0e:	10 92 4c 01 	sts	0x014C, r1	; 0x80014c <Flag_E1+0x1>
     f12:	10 92 4b 01 	sts	0x014B, r1	; 0x80014b <Flag_E1>
     f16:	81 e0       	ldi	r24, 0x01	; 1
     f18:	90 e0       	ldi	r25, 0x00	; 0
     f1a:	90 93 60 01 	sts	0x0160, r25	; 0x800160 <Work+0x1>
     f1e:	80 93 5f 01 	sts	0x015F, r24	; 0x80015f <Work>
     f22:	0e 94 e2 17 	call	0x2fc4	; 0x2fc4 <Window1>
     f26:	05 99       	sbic	0x00, 5	; 0
     f28:	0b c0       	rjmp	.+22     	; 0xf40 <__EEPROM_REGION_LENGTH__+0x740>
     f2a:	80 91 13 01 	lds	r24, 0x0113	; 0x800113 <Start_stop>
     f2e:	90 91 14 01 	lds	r25, 0x0114	; 0x800114 <Start_stop+0x1>
     f32:	89 2b       	or	r24, r25
     f34:	29 f0       	breq	.+10     	; 0xf40 <__EEPROM_REGION_LENGTH__+0x740>
     f36:	0e 94 b9 32 	call	0x6572	; 0x6572 <WorkStop>
     f3a:	0e 94 0c 35 	call	0x6a18	; 0x6a18 <E2>
     f3e:	ff cf       	rjmp	.-2      	; 0xf3e <__EEPROM_REGION_LENGTH__+0x73e>
     f40:	80 91 59 01 	lds	r24, 0x0159	; 0x800159 <UK_103>
     f44:	90 91 5a 01 	lds	r25, 0x015A	; 0x80015a <UK_103+0x1>
     f48:	00 97       	sbiw	r24, 0x00	; 0
     f4a:	41 f1       	breq	.+80     	; 0xf9c <__EEPROM_REGION_LENGTH__+0x79c>
     f4c:	20 91 57 01 	lds	r18, 0x0157	; 0x800157 <UK_203>
     f50:	30 91 58 01 	lds	r19, 0x0158	; 0x800158 <UK_203+0x1>
     f54:	23 2b       	or	r18, r19
     f56:	11 f5       	brne	.+68     	; 0xf9c <__EEPROM_REGION_LENGTH__+0x79c>
     f58:	20 91 55 01 	lds	r18, 0x0155	; 0x800155 <UK_303>
     f5c:	30 91 56 01 	lds	r19, 0x0156	; 0x800156 <UK_303+0x1>
     f60:	23 2b       	or	r18, r19
     f62:	e1 f4       	brne	.+56     	; 0xf9c <__EEPROM_REGION_LENGTH__+0x79c>
     f64:	20 91 13 01 	lds	r18, 0x0113	; 0x800113 <Start_stop>
     f68:	30 91 14 01 	lds	r19, 0x0114	; 0x800114 <Start_stop+0x1>
     f6c:	23 2b       	or	r18, r19
     f6e:	b1 f0       	breq	.+44     	; 0xf9c <__EEPROM_REGION_LENGTH__+0x79c>
     f70:	07 9b       	sbis	0x00, 7	; 0
     f72:	14 c0       	rjmp	.+40     	; 0xf9c <__EEPROM_REGION_LENGTH__+0x79c>
     f74:	20 91 47 01 	lds	r18, 0x0147	; 0x800147 <Flag_Fire_Test>
     f78:	30 91 48 01 	lds	r19, 0x0148	; 0x800148 <Flag_Fire_Test+0x1>
     f7c:	23 2b       	or	r18, r19
     f7e:	71 f0       	breq	.+28     	; 0xf9c <__EEPROM_REGION_LENGTH__+0x79c>
     f80:	0e 94 b9 32 	call	0x6572	; 0x6572 <WorkStop>
     f84:	0e 94 27 35 	call	0x6a4e	; 0x6a4e <E3>
     f88:	10 92 60 01 	sts	0x0160, r1	; 0x800160 <Work+0x1>
     f8c:	10 92 5f 01 	sts	0x015F, r1	; 0x80015f <Work>
     f90:	60 e0       	ldi	r22, 0x00	; 0
     f92:	84 e0       	ldi	r24, 0x04	; 4
     f94:	90 e0       	ldi	r25, 0x00	; 0
     f96:	0e 94 4e 38 	call	0x709c	; 0x709c <eeprom_write_byte>
     f9a:	ff cf       	rjmp	.-2      	; 0xf9a <__EEPROM_REGION_LENGTH__+0x79a>
     f9c:	00 97       	sbiw	r24, 0x00	; 0
     f9e:	41 f1       	breq	.+80     	; 0xff0 <__EEPROM_REGION_LENGTH__+0x7f0>
     fa0:	20 91 57 01 	lds	r18, 0x0157	; 0x800157 <UK_203>
     fa4:	30 91 58 01 	lds	r19, 0x0158	; 0x800158 <UK_203+0x1>
     fa8:	23 2b       	or	r18, r19
     faa:	11 f5       	brne	.+68     	; 0xff0 <__EEPROM_REGION_LENGTH__+0x7f0>
     fac:	20 91 55 01 	lds	r18, 0x0155	; 0x800155 <UK_303>
     fb0:	30 91 56 01 	lds	r19, 0x0156	; 0x800156 <UK_303+0x1>
     fb4:	23 2b       	or	r18, r19
     fb6:	e1 f4       	brne	.+56     	; 0xff0 <__EEPROM_REGION_LENGTH__+0x7f0>
     fb8:	20 91 13 01 	lds	r18, 0x0113	; 0x800113 <Start_stop>
     fbc:	30 91 14 01 	lds	r19, 0x0114	; 0x800114 <Start_stop+0x1>
     fc0:	23 2b       	or	r18, r19
     fc2:	b1 f0       	breq	.+44     	; 0xff0 <__EEPROM_REGION_LENGTH__+0x7f0>
     fc4:	07 99       	sbic	0x00, 7	; 0
     fc6:	14 c0       	rjmp	.+40     	; 0xff0 <__EEPROM_REGION_LENGTH__+0x7f0>
     fc8:	20 91 49 01 	lds	r18, 0x0149	; 0x800149 <Flag_Fire>
     fcc:	30 91 4a 01 	lds	r19, 0x014A	; 0x80014a <Flag_Fire+0x1>
     fd0:	23 2b       	or	r18, r19
     fd2:	71 f0       	breq	.+28     	; 0xff0 <__EEPROM_REGION_LENGTH__+0x7f0>
     fd4:	0e 94 b9 32 	call	0x6572	; 0x6572 <WorkStop>
     fd8:	0e 94 42 35 	call	0x6a84	; 0x6a84 <E4>
     fdc:	10 92 60 01 	sts	0x0160, r1	; 0x800160 <Work+0x1>
     fe0:	10 92 5f 01 	sts	0x015F, r1	; 0x80015f <Work>
     fe4:	60 e0       	ldi	r22, 0x00	; 0
     fe6:	84 e0       	ldi	r24, 0x04	; 4
     fe8:	90 e0       	ldi	r25, 0x00	; 0
     fea:	0e 94 4e 38 	call	0x709c	; 0x709c <eeprom_write_byte>
     fee:	ff cf       	rjmp	.-2      	; 0xfee <__EEPROM_REGION_LENGTH__+0x7ee>
     ff0:	00 97       	sbiw	r24, 0x00	; 0
     ff2:	41 f5       	brne	.+80     	; 0x1044 <__DATA_REGION_LENGTH__+0x44>
     ff4:	20 91 57 01 	lds	r18, 0x0157	; 0x800157 <UK_203>
     ff8:	30 91 58 01 	lds	r19, 0x0158	; 0x800158 <UK_203+0x1>
     ffc:	23 2b       	or	r18, r19
     ffe:	11 f1       	breq	.+68     	; 0x1044 <__DATA_REGION_LENGTH__+0x44>
    1000:	20 91 55 01 	lds	r18, 0x0155	; 0x800155 <UK_303>
    1004:	30 91 56 01 	lds	r19, 0x0156	; 0x800156 <UK_303+0x1>
    1008:	23 2b       	or	r18, r19
    100a:	e1 f4       	brne	.+56     	; 0x1044 <__DATA_REGION_LENGTH__+0x44>
    100c:	20 91 13 01 	lds	r18, 0x0113	; 0x800113 <Start_stop>
    1010:	30 91 14 01 	lds	r19, 0x0114	; 0x800114 <Start_stop+0x1>
    1014:	23 2b       	or	r18, r19
    1016:	b1 f0       	breq	.+44     	; 0x1044 <__DATA_REGION_LENGTH__+0x44>
    1018:	04 9b       	sbis	0x00, 4	; 0
    101a:	14 c0       	rjmp	.+40     	; 0x1044 <__DATA_REGION_LENGTH__+0x44>
    101c:	20 91 47 01 	lds	r18, 0x0147	; 0x800147 <Flag_Fire_Test>
    1020:	30 91 48 01 	lds	r19, 0x0148	; 0x800148 <Flag_Fire_Test+0x1>
    1024:	23 2b       	or	r18, r19
    1026:	71 f0       	breq	.+28     	; 0x1044 <__DATA_REGION_LENGTH__+0x44>
    1028:	0e 94 b9 32 	call	0x6572	; 0x6572 <WorkStop>
    102c:	0e 94 5d 35 	call	0x6aba	; 0x6aba <E5>
    1030:	10 92 60 01 	sts	0x0160, r1	; 0x800160 <Work+0x1>
    1034:	10 92 5f 01 	sts	0x015F, r1	; 0x80015f <Work>
    1038:	60 e0       	ldi	r22, 0x00	; 0
    103a:	84 e0       	ldi	r24, 0x04	; 4
    103c:	90 e0       	ldi	r25, 0x00	; 0
    103e:	0e 94 4e 38 	call	0x709c	; 0x709c <eeprom_write_byte>
    1042:	ff cf       	rjmp	.-2      	; 0x1042 <__DATA_REGION_LENGTH__+0x42>
    1044:	00 97       	sbiw	r24, 0x00	; 0
    1046:	41 f5       	brne	.+80     	; 0x1098 <__DATA_REGION_LENGTH__+0x98>
    1048:	20 91 57 01 	lds	r18, 0x0157	; 0x800157 <UK_203>
    104c:	30 91 58 01 	lds	r19, 0x0158	; 0x800158 <UK_203+0x1>
    1050:	23 2b       	or	r18, r19
    1052:	11 f1       	breq	.+68     	; 0x1098 <__DATA_REGION_LENGTH__+0x98>
    1054:	20 91 55 01 	lds	r18, 0x0155	; 0x800155 <UK_303>
    1058:	30 91 56 01 	lds	r19, 0x0156	; 0x800156 <UK_303+0x1>
    105c:	23 2b       	or	r18, r19
    105e:	e1 f4       	brne	.+56     	; 0x1098 <__DATA_REGION_LENGTH__+0x98>
    1060:	20 91 13 01 	lds	r18, 0x0113	; 0x800113 <Start_stop>
    1064:	30 91 14 01 	lds	r19, 0x0114	; 0x800114 <Start_stop+0x1>
    1068:	23 2b       	or	r18, r19
    106a:	b1 f0       	breq	.+44     	; 0x1098 <__DATA_REGION_LENGTH__+0x98>
    106c:	04 99       	sbic	0x00, 4	; 0
    106e:	14 c0       	rjmp	.+40     	; 0x1098 <__DATA_REGION_LENGTH__+0x98>
    1070:	20 91 49 01 	lds	r18, 0x0149	; 0x800149 <Flag_Fire>
    1074:	30 91 4a 01 	lds	r19, 0x014A	; 0x80014a <Flag_Fire+0x1>
    1078:	23 2b       	or	r18, r19
    107a:	71 f0       	breq	.+28     	; 0x1098 <__DATA_REGION_LENGTH__+0x98>
    107c:	0e 94 b9 32 	call	0x6572	; 0x6572 <WorkStop>
    1080:	0e 94 78 35 	call	0x6af0	; 0x6af0 <E6>
    1084:	10 92 60 01 	sts	0x0160, r1	; 0x800160 <Work+0x1>
    1088:	10 92 5f 01 	sts	0x015F, r1	; 0x80015f <Work>
    108c:	60 e0       	ldi	r22, 0x00	; 0
    108e:	84 e0       	ldi	r24, 0x04	; 4
    1090:	90 e0       	ldi	r25, 0x00	; 0
    1092:	0e 94 4e 38 	call	0x709c	; 0x709c <eeprom_write_byte>
    1096:	ff cf       	rjmp	.-2      	; 0x1096 <__DATA_REGION_LENGTH__+0x96>
    1098:	00 97       	sbiw	r24, 0x00	; 0
    109a:	41 f5       	brne	.+80     	; 0x10ec <__DATA_REGION_LENGTH__+0xec>
    109c:	20 91 57 01 	lds	r18, 0x0157	; 0x800157 <UK_203>
    10a0:	30 91 58 01 	lds	r19, 0x0158	; 0x800158 <UK_203+0x1>
    10a4:	23 2b       	or	r18, r19
    10a6:	11 f1       	breq	.+68     	; 0x10ec <__DATA_REGION_LENGTH__+0xec>
    10a8:	20 91 55 01 	lds	r18, 0x0155	; 0x800155 <UK_303>
    10ac:	30 91 56 01 	lds	r19, 0x0156	; 0x800156 <UK_303+0x1>
    10b0:	23 2b       	or	r18, r19
    10b2:	e1 f4       	brne	.+56     	; 0x10ec <__DATA_REGION_LENGTH__+0xec>
    10b4:	20 91 13 01 	lds	r18, 0x0113	; 0x800113 <Start_stop>
    10b8:	30 91 14 01 	lds	r19, 0x0114	; 0x800114 <Start_stop+0x1>
    10bc:	23 2b       	or	r18, r19
    10be:	b1 f0       	breq	.+44     	; 0x10ec <__DATA_REGION_LENGTH__+0xec>
    10c0:	06 9b       	sbis	0x00, 6	; 0
    10c2:	14 c0       	rjmp	.+40     	; 0x10ec <__DATA_REGION_LENGTH__+0xec>
    10c4:	20 91 43 01 	lds	r18, 0x0143	; 0x800143 <Flag_Clapan_Test>
    10c8:	30 91 44 01 	lds	r19, 0x0144	; 0x800144 <Flag_Clapan_Test+0x1>
    10cc:	23 2b       	or	r18, r19
    10ce:	71 f0       	breq	.+28     	; 0x10ec <__DATA_REGION_LENGTH__+0xec>
    10d0:	0e 94 b9 32 	call	0x6572	; 0x6572 <WorkStop>
    10d4:	0e 94 93 35 	call	0x6b26	; 0x6b26 <E7>
    10d8:	10 92 60 01 	sts	0x0160, r1	; 0x800160 <Work+0x1>
    10dc:	10 92 5f 01 	sts	0x015F, r1	; 0x80015f <Work>
    10e0:	60 e0       	ldi	r22, 0x00	; 0
    10e2:	84 e0       	ldi	r24, 0x04	; 4
    10e4:	90 e0       	ldi	r25, 0x00	; 0
    10e6:	0e 94 4e 38 	call	0x709c	; 0x709c <eeprom_write_byte>
    10ea:	ff cf       	rjmp	.-2      	; 0x10ea <__DATA_REGION_LENGTH__+0xea>
    10ec:	00 97       	sbiw	r24, 0x00	; 0
    10ee:	41 f5       	brne	.+80     	; 0x1140 <__stack+0x41>
    10f0:	20 91 57 01 	lds	r18, 0x0157	; 0x800157 <UK_203>
    10f4:	30 91 58 01 	lds	r19, 0x0158	; 0x800158 <UK_203+0x1>
    10f8:	23 2b       	or	r18, r19
    10fa:	11 f1       	breq	.+68     	; 0x1140 <__stack+0x41>
    10fc:	20 91 55 01 	lds	r18, 0x0155	; 0x800155 <UK_303>
    1100:	30 91 56 01 	lds	r19, 0x0156	; 0x800156 <UK_303+0x1>
    1104:	23 2b       	or	r18, r19
    1106:	e1 f4       	brne	.+56     	; 0x1140 <__stack+0x41>
    1108:	20 91 13 01 	lds	r18, 0x0113	; 0x800113 <Start_stop>
    110c:	30 91 14 01 	lds	r19, 0x0114	; 0x800114 <Start_stop+0x1>
    1110:	23 2b       	or	r18, r19
    1112:	b1 f0       	breq	.+44     	; 0x1140 <__stack+0x41>
    1114:	06 99       	sbic	0x00, 6	; 0
    1116:	14 c0       	rjmp	.+40     	; 0x1140 <__stack+0x41>
    1118:	20 91 45 01 	lds	r18, 0x0145	; 0x800145 <Flag_Clapan>
    111c:	30 91 46 01 	lds	r19, 0x0146	; 0x800146 <Flag_Clapan+0x1>
    1120:	23 2b       	or	r18, r19
    1122:	71 f0       	breq	.+28     	; 0x1140 <__stack+0x41>
    1124:	0e 94 b9 32 	call	0x6572	; 0x6572 <WorkStop>
    1128:	0e 94 ae 35 	call	0x6b5c	; 0x6b5c <E8>
    112c:	10 92 60 01 	sts	0x0160, r1	; 0x800160 <Work+0x1>
    1130:	10 92 5f 01 	sts	0x015F, r1	; 0x80015f <Work>
    1134:	60 e0       	ldi	r22, 0x00	; 0
    1136:	84 e0       	ldi	r24, 0x04	; 4
    1138:	90 e0       	ldi	r25, 0x00	; 0
    113a:	0e 94 4e 38 	call	0x709c	; 0x709c <eeprom_write_byte>
    113e:	ff cf       	rjmp	.-2      	; 0x113e <__stack+0x3f>
    1140:	00 97       	sbiw	r24, 0x00	; 0
    1142:	61 f4       	brne	.+24     	; 0x115c <__stack+0x5d>
    1144:	20 91 57 01 	lds	r18, 0x0157	; 0x800157 <UK_203>
    1148:	30 91 58 01 	lds	r19, 0x0158	; 0x800158 <UK_203+0x1>
    114c:	23 2b       	or	r18, r19
    114e:	31 f4       	brne	.+12     	; 0x115c <__stack+0x5d>
    1150:	20 91 55 01 	lds	r18, 0x0155	; 0x800155 <UK_303>
    1154:	30 91 56 01 	lds	r19, 0x0156	; 0x800156 <UK_303+0x1>
    1158:	23 2b       	or	r18, r19
    115a:	31 f4       	brne	.+12     	; 0x1168 <__stack+0x69>
    115c:	20 91 4d 01 	lds	r18, 0x014D	; 0x80014d <Lan>
    1160:	30 91 4e 01 	lds	r19, 0x014E	; 0x80014e <Lan+0x1>
    1164:	23 2b       	or	r18, r19
    1166:	e1 f0       	breq	.+56     	; 0x11a0 <__stack+0xa1>
    1168:	20 91 13 01 	lds	r18, 0x0113	; 0x800113 <Start_stop>
    116c:	30 91 14 01 	lds	r19, 0x0114	; 0x800114 <Start_stop+0x1>
    1170:	23 2b       	or	r18, r19
    1172:	b1 f0       	breq	.+44     	; 0x11a0 <__stack+0xa1>
    1174:	06 9b       	sbis	0x00, 6	; 0
    1176:	14 c0       	rjmp	.+40     	; 0x11a0 <__stack+0xa1>
    1178:	20 91 43 01 	lds	r18, 0x0143	; 0x800143 <Flag_Clapan_Test>
    117c:	30 91 44 01 	lds	r19, 0x0144	; 0x800144 <Flag_Clapan_Test+0x1>
    1180:	23 2b       	or	r18, r19
    1182:	71 f0       	breq	.+28     	; 0x11a0 <__stack+0xa1>
    1184:	0e 94 b9 32 	call	0x6572	; 0x6572 <WorkStop>
    1188:	0e 94 e4 35 	call	0x6bc8	; 0x6bc8 <E10>
    118c:	10 92 60 01 	sts	0x0160, r1	; 0x800160 <Work+0x1>
    1190:	10 92 5f 01 	sts	0x015F, r1	; 0x80015f <Work>
    1194:	60 e0       	ldi	r22, 0x00	; 0
    1196:	84 e0       	ldi	r24, 0x04	; 4
    1198:	90 e0       	ldi	r25, 0x00	; 0
    119a:	0e 94 4e 38 	call	0x709c	; 0x709c <eeprom_write_byte>
    119e:	ff cf       	rjmp	.-2      	; 0x119e <__stack+0x9f>
    11a0:	89 2b       	or	r24, r25
    11a2:	61 f4       	brne	.+24     	; 0x11bc <__stack+0xbd>
    11a4:	80 91 57 01 	lds	r24, 0x0157	; 0x800157 <UK_203>
    11a8:	90 91 58 01 	lds	r25, 0x0158	; 0x800158 <UK_203+0x1>
    11ac:	89 2b       	or	r24, r25
    11ae:	31 f4       	brne	.+12     	; 0x11bc <__stack+0xbd>
    11b0:	80 91 55 01 	lds	r24, 0x0155	; 0x800155 <UK_303>
    11b4:	90 91 56 01 	lds	r25, 0x0156	; 0x800156 <UK_303+0x1>
    11b8:	89 2b       	or	r24, r25
    11ba:	31 f4       	brne	.+12     	; 0x11c8 <__stack+0xc9>
    11bc:	80 91 4d 01 	lds	r24, 0x014D	; 0x80014d <Lan>
    11c0:	90 91 4e 01 	lds	r25, 0x014E	; 0x80014e <Lan+0x1>
    11c4:	89 2b       	or	r24, r25
    11c6:	e1 f0       	breq	.+56     	; 0x1200 <__stack+0x101>
    11c8:	80 91 13 01 	lds	r24, 0x0113	; 0x800113 <Start_stop>
    11cc:	90 91 14 01 	lds	r25, 0x0114	; 0x800114 <Start_stop+0x1>
    11d0:	89 2b       	or	r24, r25
    11d2:	b1 f0       	breq	.+44     	; 0x1200 <__stack+0x101>
    11d4:	06 99       	sbic	0x00, 6	; 0
    11d6:	14 c0       	rjmp	.+40     	; 0x1200 <__stack+0x101>
    11d8:	80 91 45 01 	lds	r24, 0x0145	; 0x800145 <Flag_Clapan>
    11dc:	90 91 46 01 	lds	r25, 0x0146	; 0x800146 <Flag_Clapan+0x1>
    11e0:	89 2b       	or	r24, r25
    11e2:	71 f0       	breq	.+28     	; 0x1200 <__stack+0x101>
    11e4:	0e 94 b9 32 	call	0x6572	; 0x6572 <WorkStop>
    11e8:	0e 94 ff 35 	call	0x6bfe	; 0x6bfe <E11>
    11ec:	10 92 60 01 	sts	0x0160, r1	; 0x800160 <Work+0x1>
    11f0:	10 92 5f 01 	sts	0x015F, r1	; 0x80015f <Work>
    11f4:	60 e0       	ldi	r22, 0x00	; 0
    11f6:	84 e0       	ldi	r24, 0x04	; 4
    11f8:	90 e0       	ldi	r25, 0x00	; 0
    11fa:	0e 94 4e 38 	call	0x709c	; 0x709c <eeprom_write_byte>
    11fe:	ff cf       	rjmp	.-2      	; 0x11fe <__stack+0xff>
    1200:	80 91 11 01 	lds	r24, 0x0111	; 0x800111 <WaterTemp>
    1204:	90 91 12 01 	lds	r25, 0x0112	; 0x800112 <WaterTemp+0x1>
    1208:	84 36       	cpi	r24, 0x64	; 100
    120a:	91 05       	cpc	r25, r1
    120c:	80 f0       	brcs	.+32     	; 0x122e <__stack+0x12f>
    120e:	20 91 13 01 	lds	r18, 0x0113	; 0x800113 <Start_stop>
    1212:	30 91 14 01 	lds	r19, 0x0114	; 0x800114 <Start_stop+0x1>
    1216:	23 2b       	or	r18, r19
    1218:	51 f0       	breq	.+20     	; 0x122e <__stack+0x12f>
    121a:	0e 94 b9 32 	call	0x6572	; 0x6572 <WorkStop>
    121e:	0e 94 c9 35 	call	0x6b92	; 0x6b92 <E9>
    1222:	60 e0       	ldi	r22, 0x00	; 0
    1224:	84 e0       	ldi	r24, 0x04	; 4
    1226:	90 e0       	ldi	r25, 0x00	; 0
    1228:	0e 94 4e 38 	call	0x709c	; 0x709c <eeprom_write_byte>
    122c:	ff cf       	rjmp	.-2      	; 0x122c <__stack+0x12d>
    122e:	20 91 07 01 	lds	r18, 0x0107	; 0x800107 <Weather_dependence>
    1232:	30 91 08 01 	lds	r19, 0x0108	; 0x800108 <Weather_dependence+0x1>
    1236:	23 2b       	or	r18, r19
    1238:	79 f5       	brne	.+94     	; 0x1298 <__stack+0x199>
    123a:	20 91 01 01 	lds	r18, 0x0101	; 0x800101 <WaterLoad>
    123e:	30 91 02 01 	lds	r19, 0x0102	; 0x800102 <WaterLoad+0x1>
    1242:	a9 01       	movw	r20, r18
    1244:	4a 50       	subi	r20, 0x0A	; 10
    1246:	51 09       	sbc	r21, r1
    1248:	48 17       	cp	r20, r24
    124a:	59 07       	cpc	r21, r25
    124c:	a0 f0       	brcs	.+40     	; 0x1276 <__stack+0x177>
    124e:	40 91 41 01 	lds	r20, 0x0141	; 0x800141 <Flag_Temp>
    1252:	50 91 42 01 	lds	r21, 0x0142	; 0x800142 <Flag_Temp+0x1>
    1256:	45 2b       	or	r20, r21
    1258:	71 f4       	brne	.+28     	; 0x1276 <__stack+0x177>
    125a:	41 e0       	ldi	r20, 0x01	; 1
    125c:	50 e0       	ldi	r21, 0x00	; 0
    125e:	50 93 42 01 	sts	0x0142, r21	; 0x800142 <Flag_Temp+0x1>
    1262:	40 93 41 01 	sts	0x0141, r20	; 0x800141 <Flag_Temp>
    1266:	50 93 60 01 	sts	0x0160, r21	; 0x800160 <Work+0x1>
    126a:	40 93 5f 01 	sts	0x015F, r20	; 0x80015f <Work>
    126e:	10 92 5c 01 	sts	0x015C, r1	; 0x80015c <Slave_time+0x1>
    1272:	10 92 5b 01 	sts	0x015B, r1	; 0x80015b <Slave_time>
    1276:	82 17       	cp	r24, r18
    1278:	93 07       	cpc	r25, r19
    127a:	70 f0       	brcs	.+28     	; 0x1298 <__stack+0x199>
    127c:	80 91 41 01 	lds	r24, 0x0141	; 0x800141 <Flag_Temp>
    1280:	90 91 42 01 	lds	r25, 0x0142	; 0x800142 <Flag_Temp+0x1>
    1284:	89 2b       	or	r24, r25
    1286:	41 f0       	breq	.+16     	; 0x1298 <__stack+0x199>
    1288:	10 92 42 01 	sts	0x0142, r1	; 0x800142 <Flag_Temp+0x1>
    128c:	10 92 41 01 	sts	0x0141, r1	; 0x800141 <Flag_Temp>
    1290:	0e 94 b9 32 	call	0x6572	; 0x6572 <WorkStop>
    1294:	0e 94 e2 17 	call	0x2fc4	; 0x2fc4 <Window1>
    1298:	60 91 11 01 	lds	r22, 0x0111	; 0x800111 <WaterTemp>
    129c:	70 91 12 01 	lds	r23, 0x0112	; 0x800112 <WaterTemp+0x1>
    12a0:	80 e0       	ldi	r24, 0x00	; 0
    12a2:	90 e0       	ldi	r25, 0x00	; 0
    12a4:	0e 94 2e 30 	call	0x605c	; 0x605c <__floatunsisf>
    12a8:	6b 01       	movw	r12, r22
    12aa:	7c 01       	movw	r14, r24
    12ac:	60 91 01 01 	lds	r22, 0x0101	; 0x800101 <WaterLoad>
    12b0:	70 91 02 01 	lds	r23, 0x0102	; 0x800102 <WaterLoad+0x1>
    12b4:	80 e0       	ldi	r24, 0x00	; 0
    12b6:	90 e0       	ldi	r25, 0x00	; 0
    12b8:	0e 94 2e 30 	call	0x605c	; 0x605c <__floatunsisf>
    12bc:	2d ec       	ldi	r18, 0xCD	; 205
    12be:	3c ec       	ldi	r19, 0xCC	; 204
    12c0:	4c e8       	ldi	r20, 0x8C	; 140
    12c2:	5f e3       	ldi	r21, 0x3F	; 63
    12c4:	0e 94 09 39 	call	0x7212	; 0x7212 <__divsf3>
    12c8:	9b 01       	movw	r18, r22
    12ca:	ac 01       	movw	r20, r24
    12cc:	c7 01       	movw	r24, r14
    12ce:	b6 01       	movw	r22, r12
    12d0:	0e 94 00 39 	call	0x7200	; 0x7200 <__gesf2>
    12d4:	88 23       	and	r24, r24
    12d6:	1c f0       	brlt	.+6      	; 0x12de <__stack+0x1df>
    12d8:	82 b3       	in	r24, 0x12	; 18
    12da:	80 62       	ori	r24, 0x20	; 32
    12dc:	82 bb       	out	0x12, r24	; 18
    12de:	60 91 11 01 	lds	r22, 0x0111	; 0x800111 <WaterTemp>
    12e2:	70 91 12 01 	lds	r23, 0x0112	; 0x800112 <WaterTemp+0x1>
    12e6:	80 e0       	ldi	r24, 0x00	; 0
    12e8:	90 e0       	ldi	r25, 0x00	; 0
    12ea:	0e 94 2e 30 	call	0x605c	; 0x605c <__floatunsisf>
    12ee:	6b 01       	movw	r12, r22
    12f0:	7c 01       	movw	r14, r24
    12f2:	60 91 01 01 	lds	r22, 0x0101	; 0x800101 <WaterLoad>
    12f6:	70 91 02 01 	lds	r23, 0x0102	; 0x800102 <WaterLoad+0x1>
    12fa:	80 e0       	ldi	r24, 0x00	; 0
    12fc:	90 e0       	ldi	r25, 0x00	; 0
    12fe:	0e 94 2e 30 	call	0x605c	; 0x605c <__floatunsisf>
    1302:	2a e9       	ldi	r18, 0x9A	; 154
    1304:	39 e9       	ldi	r19, 0x99	; 153
    1306:	49 e9       	ldi	r20, 0x99	; 153
    1308:	5f e3       	ldi	r21, 0x3F	; 63
    130a:	0e 94 09 39 	call	0x7212	; 0x7212 <__divsf3>
    130e:	9b 01       	movw	r18, r22
    1310:	ac 01       	movw	r20, r24
    1312:	c7 01       	movw	r24, r14
    1314:	b6 01       	movw	r22, r12
    1316:	0e 94 fb 38 	call	0x71f6	; 0x71f6 <__cmpsf2>
    131a:	18 16       	cp	r1, r24
    131c:	1c f0       	brlt	.+6      	; 0x1324 <__stack+0x225>
    131e:	82 b3       	in	r24, 0x12	; 18
    1320:	8f 7d       	andi	r24, 0xDF	; 223
    1322:	82 bb       	out	0x12, r24	; 18
    1324:	80 91 07 01 	lds	r24, 0x0107	; 0x800107 <Weather_dependence>
    1328:	90 91 08 01 	lds	r25, 0x0108	; 0x800108 <Weather_dependence+0x1>
    132c:	89 2b       	or	r24, r25
    132e:	09 f4       	brne	.+2      	; 0x1332 <__stack+0x233>
    1330:	99 c0       	rjmp	.+306    	; 0x1464 <__stack+0x365>
    1332:	80 91 0e 01 	lds	r24, 0x010E	; 0x80010e <Weather_dependence_Mode>
    1336:	90 91 0f 01 	lds	r25, 0x010F	; 0x80010f <Weather_dependence_Mode+0x1>
    133a:	01 97       	sbiw	r24, 0x01	; 1
    133c:	09 f0       	breq	.+2      	; 0x1340 <__stack+0x241>
    133e:	92 c0       	rjmp	.+292    	; 0x1464 <__stack+0x365>
    1340:	40 91 17 01 	lds	r20, 0x0117	; 0x800117 <AirTemp>
    1344:	50 91 18 01 	lds	r21, 0x0118	; 0x800118 <AirTemp+0x1>
    1348:	ca 01       	movw	r24, r20
    134a:	0f 97       	sbiw	r24, 0x0f	; 15
    134c:	20 e0       	ldi	r18, 0x00	; 0
    134e:	30 e0       	ldi	r19, 0x00	; 0
    1350:	b9 01       	movw	r22, r18
    1352:	68 1b       	sub	r22, r24
    1354:	79 0b       	sbc	r23, r25
    1356:	cb 01       	movw	r24, r22
    1358:	88 0f       	add	r24, r24
    135a:	99 1f       	adc	r25, r25
    135c:	44 51       	subi	r20, 0x14	; 20
    135e:	51 09       	sbc	r21, r1
    1360:	24 1b       	sub	r18, r20
    1362:	35 0b       	sbc	r19, r21
    1364:	b9 01       	movw	r22, r18
    1366:	66 0f       	add	r22, r22
    1368:	77 1f       	adc	r23, r23
    136a:	8b 01       	movw	r16, r22
    136c:	66 35       	cpi	r22, 0x56	; 86
    136e:	71 05       	cpc	r23, r1
    1370:	14 f0       	brlt	.+4      	; 0x1376 <__stack+0x277>
    1372:	05 e5       	ldi	r16, 0x55	; 85
    1374:	10 e0       	ldi	r17, 0x00	; 0
    1376:	0e 30       	cpi	r16, 0x0E	; 14
    1378:	11 05       	cpc	r17, r1
    137a:	14 f4       	brge	.+4      	; 0x1380 <__stack+0x281>
    137c:	0f e0       	ldi	r16, 0x0F	; 15
    137e:	10 e0       	ldi	r17, 0x00	; 0
    1380:	8b 34       	cpi	r24, 0x4B	; 75
    1382:	91 05       	cpc	r25, r1
    1384:	14 f0       	brlt	.+4      	; 0x138a <__stack+0x28b>
    1386:	8b e4       	ldi	r24, 0x4B	; 75
    1388:	90 e0       	ldi	r25, 0x00	; 0
    138a:	89 31       	cpi	r24, 0x19	; 25
    138c:	91 05       	cpc	r25, r1
    138e:	14 f4       	brge	.+4      	; 0x1394 <__stack+0x295>
    1390:	89 e1       	ldi	r24, 0x19	; 25
    1392:	90 e0       	ldi	r25, 0x00	; 0
    1394:	20 91 11 01 	lds	r18, 0x0111	; 0x800111 <WaterTemp>
    1398:	30 91 12 01 	lds	r19, 0x0112	; 0x800112 <WaterTemp+0x1>
    139c:	82 17       	cp	r24, r18
    139e:	93 07       	cpc	r25, r19
    13a0:	80 f0       	brcs	.+32     	; 0x13c2 <__stack+0x2c3>
    13a2:	80 91 41 01 	lds	r24, 0x0141	; 0x800141 <Flag_Temp>
    13a6:	90 91 42 01 	lds	r25, 0x0142	; 0x800142 <Flag_Temp+0x1>
    13aa:	89 2b       	or	r24, r25
    13ac:	51 f4       	brne	.+20     	; 0x13c2 <__stack+0x2c3>
    13ae:	81 e0       	ldi	r24, 0x01	; 1
    13b0:	90 e0       	ldi	r25, 0x00	; 0
    13b2:	90 93 42 01 	sts	0x0142, r25	; 0x800142 <Flag_Temp+0x1>
    13b6:	80 93 41 01 	sts	0x0141, r24	; 0x800141 <Flag_Temp>
    13ba:	90 93 60 01 	sts	0x0160, r25	; 0x800160 <Work+0x1>
    13be:	80 93 5f 01 	sts	0x015F, r24	; 0x80015f <Work>
    13c2:	20 17       	cp	r18, r16
    13c4:	31 07       	cpc	r19, r17
    13c6:	70 f0       	brcs	.+28     	; 0x13e4 <__stack+0x2e5>
    13c8:	80 91 41 01 	lds	r24, 0x0141	; 0x800141 <Flag_Temp>
    13cc:	90 91 42 01 	lds	r25, 0x0142	; 0x800142 <Flag_Temp+0x1>
    13d0:	89 2b       	or	r24, r25
    13d2:	41 f0       	breq	.+16     	; 0x13e4 <__stack+0x2e5>
    13d4:	10 92 42 01 	sts	0x0142, r1	; 0x800142 <Flag_Temp+0x1>
    13d8:	10 92 41 01 	sts	0x0141, r1	; 0x800141 <Flag_Temp>
    13dc:	0e 94 b9 32 	call	0x6572	; 0x6572 <WorkStop>
    13e0:	0e 94 e2 17 	call	0x2fc4	; 0x2fc4 <Window1>
    13e4:	60 91 11 01 	lds	r22, 0x0111	; 0x800111 <WaterTemp>
    13e8:	70 91 12 01 	lds	r23, 0x0112	; 0x800112 <WaterTemp+0x1>
    13ec:	80 e0       	ldi	r24, 0x00	; 0
    13ee:	90 e0       	ldi	r25, 0x00	; 0
    13f0:	0e 94 2e 30 	call	0x605c	; 0x605c <__floatunsisf>
    13f4:	4b 01       	movw	r8, r22
    13f6:	5c 01       	movw	r10, r24
    13f8:	b8 01       	movw	r22, r16
    13fa:	11 0f       	add	r17, r17
    13fc:	88 0b       	sbc	r24, r24
    13fe:	99 0b       	sbc	r25, r25
    1400:	0e 94 30 30 	call	0x6060	; 0x6060 <__floatsisf>
    1404:	6b 01       	movw	r12, r22
    1406:	7c 01       	movw	r14, r24
    1408:	2d ec       	ldi	r18, 0xCD	; 205
    140a:	3c ec       	ldi	r19, 0xCC	; 204
    140c:	4c e8       	ldi	r20, 0x8C	; 140
    140e:	5f e3       	ldi	r21, 0x3F	; 63
    1410:	0e 94 09 39 	call	0x7212	; 0x7212 <__divsf3>
    1414:	9b 01       	movw	r18, r22
    1416:	ac 01       	movw	r20, r24
    1418:	c5 01       	movw	r24, r10
    141a:	b4 01       	movw	r22, r8
    141c:	0e 94 00 39 	call	0x7200	; 0x7200 <__gesf2>
    1420:	88 23       	and	r24, r24
    1422:	1c f0       	brlt	.+6      	; 0x142a <__stack+0x32b>
    1424:	82 b3       	in	r24, 0x12	; 18
    1426:	80 62       	ori	r24, 0x20	; 32
    1428:	82 bb       	out	0x12, r24	; 18
    142a:	60 91 11 01 	lds	r22, 0x0111	; 0x800111 <WaterTemp>
    142e:	70 91 12 01 	lds	r23, 0x0112	; 0x800112 <WaterTemp+0x1>
    1432:	80 e0       	ldi	r24, 0x00	; 0
    1434:	90 e0       	ldi	r25, 0x00	; 0
    1436:	0e 94 2e 30 	call	0x605c	; 0x605c <__floatunsisf>
    143a:	4b 01       	movw	r8, r22
    143c:	5c 01       	movw	r10, r24
    143e:	2a e9       	ldi	r18, 0x9A	; 154
    1440:	39 e9       	ldi	r19, 0x99	; 153
    1442:	49 e9       	ldi	r20, 0x99	; 153
    1444:	5f e3       	ldi	r21, 0x3F	; 63
    1446:	c7 01       	movw	r24, r14
    1448:	b6 01       	movw	r22, r12
    144a:	0e 94 09 39 	call	0x7212	; 0x7212 <__divsf3>
    144e:	9b 01       	movw	r18, r22
    1450:	ac 01       	movw	r20, r24
    1452:	c5 01       	movw	r24, r10
    1454:	b4 01       	movw	r22, r8
    1456:	0e 94 fb 38 	call	0x71f6	; 0x71f6 <__cmpsf2>
    145a:	18 16       	cp	r1, r24
    145c:	1c f0       	brlt	.+6      	; 0x1464 <__stack+0x365>
    145e:	82 b3       	in	r24, 0x12	; 18
    1460:	8f 7d       	andi	r24, 0xDF	; 223
    1462:	82 bb       	out	0x12, r24	; 18
    1464:	80 91 07 01 	lds	r24, 0x0107	; 0x800107 <Weather_dependence>
    1468:	90 91 08 01 	lds	r25, 0x0108	; 0x800108 <Weather_dependence+0x1>
    146c:	89 2b       	or	r24, r25
    146e:	09 f4       	brne	.+2      	; 0x1472 <__stack+0x373>
    1470:	93 c0       	rjmp	.+294    	; 0x1598 <__stack+0x499>
    1472:	80 91 0e 01 	lds	r24, 0x010E	; 0x80010e <Weather_dependence_Mode>
    1476:	90 91 0f 01 	lds	r25, 0x010F	; 0x80010f <Weather_dependence_Mode+0x1>
    147a:	02 97       	sbiw	r24, 0x02	; 2
    147c:	09 f0       	breq	.+2      	; 0x1480 <__stack+0x381>
    147e:	8c c0       	rjmp	.+280    	; 0x1598 <__stack+0x499>
    1480:	60 91 17 01 	lds	r22, 0x0117	; 0x800117 <AirTemp>
    1484:	70 91 18 01 	lds	r23, 0x0118	; 0x800118 <AirTemp+0x1>
    1488:	6f 50       	subi	r22, 0x0F	; 15
    148a:	71 09       	sbc	r23, r1
    148c:	71 95       	neg	r23
    148e:	61 95       	neg	r22
    1490:	71 09       	sbc	r23, r1
    1492:	66 0f       	add	r22, r22
    1494:	77 1f       	adc	r23, r23
    1496:	cb 01       	movw	r24, r22
    1498:	0f 96       	adiw	r24, 0x0f	; 15
    149a:	8b 01       	movw	r16, r22
    149c:	07 5e       	subi	r16, 0xE7	; 231
    149e:	1f 4f       	sbci	r17, 0xFF	; 255
    14a0:	06 35       	cpi	r16, 0x56	; 86
    14a2:	11 05       	cpc	r17, r1
    14a4:	14 f0       	brlt	.+4      	; 0x14aa <__stack+0x3ab>
    14a6:	05 e5       	ldi	r16, 0x55	; 85
    14a8:	10 e0       	ldi	r17, 0x00	; 0
    14aa:	0e 30       	cpi	r16, 0x0E	; 14
    14ac:	11 05       	cpc	r17, r1
    14ae:	14 f4       	brge	.+4      	; 0x14b4 <__stack+0x3b5>
    14b0:	0f e0       	ldi	r16, 0x0F	; 15
    14b2:	10 e0       	ldi	r17, 0x00	; 0
    14b4:	8b 34       	cpi	r24, 0x4B	; 75
    14b6:	91 05       	cpc	r25, r1
    14b8:	14 f0       	brlt	.+4      	; 0x14be <__stack+0x3bf>
    14ba:	8b e4       	ldi	r24, 0x4B	; 75
    14bc:	90 e0       	ldi	r25, 0x00	; 0
    14be:	89 31       	cpi	r24, 0x19	; 25
    14c0:	91 05       	cpc	r25, r1
    14c2:	14 f4       	brge	.+4      	; 0x14c8 <__stack+0x3c9>
    14c4:	89 e1       	ldi	r24, 0x19	; 25
    14c6:	90 e0       	ldi	r25, 0x00	; 0
    14c8:	20 91 11 01 	lds	r18, 0x0111	; 0x800111 <WaterTemp>
    14cc:	30 91 12 01 	lds	r19, 0x0112	; 0x800112 <WaterTemp+0x1>
    14d0:	82 17       	cp	r24, r18
    14d2:	93 07       	cpc	r25, r19
    14d4:	80 f0       	brcs	.+32     	; 0x14f6 <__stack+0x3f7>
    14d6:	80 91 41 01 	lds	r24, 0x0141	; 0x800141 <Flag_Temp>
    14da:	90 91 42 01 	lds	r25, 0x0142	; 0x800142 <Flag_Temp+0x1>
    14de:	89 2b       	or	r24, r25
    14e0:	51 f4       	brne	.+20     	; 0x14f6 <__stack+0x3f7>
    14e2:	81 e0       	ldi	r24, 0x01	; 1
    14e4:	90 e0       	ldi	r25, 0x00	; 0
    14e6:	90 93 42 01 	sts	0x0142, r25	; 0x800142 <Flag_Temp+0x1>
    14ea:	80 93 41 01 	sts	0x0141, r24	; 0x800141 <Flag_Temp>
    14ee:	90 93 60 01 	sts	0x0160, r25	; 0x800160 <Work+0x1>
    14f2:	80 93 5f 01 	sts	0x015F, r24	; 0x80015f <Work>
    14f6:	20 17       	cp	r18, r16
    14f8:	31 07       	cpc	r19, r17
    14fa:	70 f0       	brcs	.+28     	; 0x1518 <__stack+0x419>
    14fc:	80 91 41 01 	lds	r24, 0x0141	; 0x800141 <Flag_Temp>
    1500:	90 91 42 01 	lds	r25, 0x0142	; 0x800142 <Flag_Temp+0x1>
    1504:	89 2b       	or	r24, r25
    1506:	41 f0       	breq	.+16     	; 0x1518 <__stack+0x419>
    1508:	10 92 42 01 	sts	0x0142, r1	; 0x800142 <Flag_Temp+0x1>
    150c:	10 92 41 01 	sts	0x0141, r1	; 0x800141 <Flag_Temp>
    1510:	0e 94 b9 32 	call	0x6572	; 0x6572 <WorkStop>
    1514:	0e 94 e2 17 	call	0x2fc4	; 0x2fc4 <Window1>
    1518:	60 91 11 01 	lds	r22, 0x0111	; 0x800111 <WaterTemp>
    151c:	70 91 12 01 	lds	r23, 0x0112	; 0x800112 <WaterTemp+0x1>
    1520:	80 e0       	ldi	r24, 0x00	; 0
    1522:	90 e0       	ldi	r25, 0x00	; 0
    1524:	0e 94 2e 30 	call	0x605c	; 0x605c <__floatunsisf>
    1528:	4b 01       	movw	r8, r22
    152a:	5c 01       	movw	r10, r24
    152c:	b8 01       	movw	r22, r16
    152e:	11 0f       	add	r17, r17
    1530:	88 0b       	sbc	r24, r24
    1532:	99 0b       	sbc	r25, r25
    1534:	0e 94 30 30 	call	0x6060	; 0x6060 <__floatsisf>
    1538:	6b 01       	movw	r12, r22
    153a:	7c 01       	movw	r14, r24
    153c:	2d ec       	ldi	r18, 0xCD	; 205
    153e:	3c ec       	ldi	r19, 0xCC	; 204
    1540:	4c e8       	ldi	r20, 0x8C	; 140
    1542:	5f e3       	ldi	r21, 0x3F	; 63
    1544:	0e 94 09 39 	call	0x7212	; 0x7212 <__divsf3>
    1548:	9b 01       	movw	r18, r22
    154a:	ac 01       	movw	r20, r24
    154c:	c5 01       	movw	r24, r10
    154e:	b4 01       	movw	r22, r8
    1550:	0e 94 00 39 	call	0x7200	; 0x7200 <__gesf2>
    1554:	88 23       	and	r24, r24
    1556:	1c f0       	brlt	.+6      	; 0x155e <__stack+0x45f>
    1558:	82 b3       	in	r24, 0x12	; 18
    155a:	80 62       	ori	r24, 0x20	; 32
    155c:	82 bb       	out	0x12, r24	; 18
    155e:	60 91 11 01 	lds	r22, 0x0111	; 0x800111 <WaterTemp>
    1562:	70 91 12 01 	lds	r23, 0x0112	; 0x800112 <WaterTemp+0x1>
    1566:	80 e0       	ldi	r24, 0x00	; 0
    1568:	90 e0       	ldi	r25, 0x00	; 0
    156a:	0e 94 2e 30 	call	0x605c	; 0x605c <__floatunsisf>
    156e:	4b 01       	movw	r8, r22
    1570:	5c 01       	movw	r10, r24
    1572:	2a e9       	ldi	r18, 0x9A	; 154
    1574:	39 e9       	ldi	r19, 0x99	; 153
    1576:	49 e9       	ldi	r20, 0x99	; 153
    1578:	5f e3       	ldi	r21, 0x3F	; 63
    157a:	c7 01       	movw	r24, r14
    157c:	b6 01       	movw	r22, r12
    157e:	0e 94 09 39 	call	0x7212	; 0x7212 <__divsf3>
    1582:	9b 01       	movw	r18, r22
    1584:	ac 01       	movw	r20, r24
    1586:	c5 01       	movw	r24, r10
    1588:	b4 01       	movw	r22, r8
    158a:	0e 94 fb 38 	call	0x71f6	; 0x71f6 <__cmpsf2>
    158e:	18 16       	cp	r1, r24
    1590:	1c f0       	brlt	.+6      	; 0x1598 <__stack+0x499>
    1592:	82 b3       	in	r24, 0x12	; 18
    1594:	8f 7d       	andi	r24, 0xDF	; 223
    1596:	82 bb       	out	0x12, r24	; 18
    1598:	80 91 07 01 	lds	r24, 0x0107	; 0x800107 <Weather_dependence>
    159c:	90 91 08 01 	lds	r25, 0x0108	; 0x800108 <Weather_dependence+0x1>
    15a0:	89 2b       	or	r24, r25
    15a2:	09 f4       	brne	.+2      	; 0x15a6 <__stack+0x4a7>
    15a4:	99 c0       	rjmp	.+306    	; 0x16d8 <__stack+0x5d9>
    15a6:	80 91 0e 01 	lds	r24, 0x010E	; 0x80010e <Weather_dependence_Mode>
    15aa:	90 91 0f 01 	lds	r25, 0x010F	; 0x80010f <Weather_dependence_Mode+0x1>
    15ae:	03 97       	sbiw	r24, 0x03	; 3
    15b0:	09 f0       	breq	.+2      	; 0x15b4 <__stack+0x4b5>
    15b2:	92 c0       	rjmp	.+292    	; 0x16d8 <__stack+0x5d9>
    15b4:	40 91 17 01 	lds	r20, 0x0117	; 0x800117 <AirTemp>
    15b8:	50 91 18 01 	lds	r21, 0x0118	; 0x800118 <AirTemp+0x1>
    15bc:	ca 01       	movw	r24, r20
    15be:	49 97       	sbiw	r24, 0x19	; 25
    15c0:	20 e0       	ldi	r18, 0x00	; 0
    15c2:	30 e0       	ldi	r19, 0x00	; 0
    15c4:	b9 01       	movw	r22, r18
    15c6:	68 1b       	sub	r22, r24
    15c8:	79 0b       	sbc	r23, r25
    15ca:	cb 01       	movw	r24, r22
    15cc:	88 0f       	add	r24, r24
    15ce:	99 1f       	adc	r25, r25
    15d0:	4e 51       	subi	r20, 0x1E	; 30
    15d2:	51 09       	sbc	r21, r1
    15d4:	24 1b       	sub	r18, r20
    15d6:	35 0b       	sbc	r19, r21
    15d8:	b9 01       	movw	r22, r18
    15da:	66 0f       	add	r22, r22
    15dc:	77 1f       	adc	r23, r23
    15de:	8b 01       	movw	r16, r22
    15e0:	66 35       	cpi	r22, 0x56	; 86
    15e2:	71 05       	cpc	r23, r1
    15e4:	14 f0       	brlt	.+4      	; 0x15ea <__stack+0x4eb>
    15e6:	05 e5       	ldi	r16, 0x55	; 85
    15e8:	10 e0       	ldi	r17, 0x00	; 0
    15ea:	0e 30       	cpi	r16, 0x0E	; 14
    15ec:	11 05       	cpc	r17, r1
    15ee:	14 f4       	brge	.+4      	; 0x15f4 <__stack+0x4f5>
    15f0:	0f e0       	ldi	r16, 0x0F	; 15
    15f2:	10 e0       	ldi	r17, 0x00	; 0
    15f4:	8b 34       	cpi	r24, 0x4B	; 75
    15f6:	91 05       	cpc	r25, r1
    15f8:	14 f0       	brlt	.+4      	; 0x15fe <__stack+0x4ff>
    15fa:	8b e4       	ldi	r24, 0x4B	; 75
    15fc:	90 e0       	ldi	r25, 0x00	; 0
    15fe:	89 31       	cpi	r24, 0x19	; 25
    1600:	91 05       	cpc	r25, r1
    1602:	14 f4       	brge	.+4      	; 0x1608 <__stack+0x509>
    1604:	89 e1       	ldi	r24, 0x19	; 25
    1606:	90 e0       	ldi	r25, 0x00	; 0
    1608:	20 91 11 01 	lds	r18, 0x0111	; 0x800111 <WaterTemp>
    160c:	30 91 12 01 	lds	r19, 0x0112	; 0x800112 <WaterTemp+0x1>
    1610:	82 17       	cp	r24, r18
    1612:	93 07       	cpc	r25, r19
    1614:	80 f0       	brcs	.+32     	; 0x1636 <__stack+0x537>
    1616:	80 91 41 01 	lds	r24, 0x0141	; 0x800141 <Flag_Temp>
    161a:	90 91 42 01 	lds	r25, 0x0142	; 0x800142 <Flag_Temp+0x1>
    161e:	89 2b       	or	r24, r25
    1620:	51 f4       	brne	.+20     	; 0x1636 <__stack+0x537>
    1622:	81 e0       	ldi	r24, 0x01	; 1
    1624:	90 e0       	ldi	r25, 0x00	; 0
    1626:	90 93 42 01 	sts	0x0142, r25	; 0x800142 <Flag_Temp+0x1>
    162a:	80 93 41 01 	sts	0x0141, r24	; 0x800141 <Flag_Temp>
    162e:	90 93 60 01 	sts	0x0160, r25	; 0x800160 <Work+0x1>
    1632:	80 93 5f 01 	sts	0x015F, r24	; 0x80015f <Work>
    1636:	20 17       	cp	r18, r16
    1638:	31 07       	cpc	r19, r17
    163a:	70 f0       	brcs	.+28     	; 0x1658 <__stack+0x559>
    163c:	80 91 41 01 	lds	r24, 0x0141	; 0x800141 <Flag_Temp>
    1640:	90 91 42 01 	lds	r25, 0x0142	; 0x800142 <Flag_Temp+0x1>
    1644:	89 2b       	or	r24, r25
    1646:	41 f0       	breq	.+16     	; 0x1658 <__stack+0x559>
    1648:	10 92 42 01 	sts	0x0142, r1	; 0x800142 <Flag_Temp+0x1>
    164c:	10 92 41 01 	sts	0x0141, r1	; 0x800141 <Flag_Temp>
    1650:	0e 94 b9 32 	call	0x6572	; 0x6572 <WorkStop>
    1654:	0e 94 e2 17 	call	0x2fc4	; 0x2fc4 <Window1>
    1658:	60 91 11 01 	lds	r22, 0x0111	; 0x800111 <WaterTemp>
    165c:	70 91 12 01 	lds	r23, 0x0112	; 0x800112 <WaterTemp+0x1>
    1660:	80 e0       	ldi	r24, 0x00	; 0
    1662:	90 e0       	ldi	r25, 0x00	; 0
    1664:	0e 94 2e 30 	call	0x605c	; 0x605c <__floatunsisf>
    1668:	4b 01       	movw	r8, r22
    166a:	5c 01       	movw	r10, r24
    166c:	b8 01       	movw	r22, r16
    166e:	11 0f       	add	r17, r17
    1670:	88 0b       	sbc	r24, r24
    1672:	99 0b       	sbc	r25, r25
    1674:	0e 94 30 30 	call	0x6060	; 0x6060 <__floatsisf>
    1678:	6b 01       	movw	r12, r22
    167a:	7c 01       	movw	r14, r24
    167c:	2d ec       	ldi	r18, 0xCD	; 205
    167e:	3c ec       	ldi	r19, 0xCC	; 204
    1680:	4c e8       	ldi	r20, 0x8C	; 140
    1682:	5f e3       	ldi	r21, 0x3F	; 63
    1684:	0e 94 09 39 	call	0x7212	; 0x7212 <__divsf3>
    1688:	9b 01       	movw	r18, r22
    168a:	ac 01       	movw	r20, r24
    168c:	c5 01       	movw	r24, r10
    168e:	b4 01       	movw	r22, r8
    1690:	0e 94 00 39 	call	0x7200	; 0x7200 <__gesf2>
    1694:	88 23       	and	r24, r24
    1696:	1c f0       	brlt	.+6      	; 0x169e <__stack+0x59f>
    1698:	82 b3       	in	r24, 0x12	; 18
    169a:	80 62       	ori	r24, 0x20	; 32
    169c:	82 bb       	out	0x12, r24	; 18
    169e:	60 91 11 01 	lds	r22, 0x0111	; 0x800111 <WaterTemp>
    16a2:	70 91 12 01 	lds	r23, 0x0112	; 0x800112 <WaterTemp+0x1>
    16a6:	80 e0       	ldi	r24, 0x00	; 0
    16a8:	90 e0       	ldi	r25, 0x00	; 0
    16aa:	0e 94 2e 30 	call	0x605c	; 0x605c <__floatunsisf>
    16ae:	4b 01       	movw	r8, r22
    16b0:	5c 01       	movw	r10, r24
    16b2:	2a e9       	ldi	r18, 0x9A	; 154
    16b4:	39 e9       	ldi	r19, 0x99	; 153
    16b6:	49 e9       	ldi	r20, 0x99	; 153
    16b8:	5f e3       	ldi	r21, 0x3F	; 63
    16ba:	c7 01       	movw	r24, r14
    16bc:	b6 01       	movw	r22, r12
    16be:	0e 94 09 39 	call	0x7212	; 0x7212 <__divsf3>
    16c2:	9b 01       	movw	r18, r22
    16c4:	ac 01       	movw	r20, r24
    16c6:	c5 01       	movw	r24, r10
    16c8:	b4 01       	movw	r22, r8
    16ca:	0e 94 fb 38 	call	0x71f6	; 0x71f6 <__cmpsf2>
    16ce:	18 16       	cp	r1, r24
    16d0:	1c f0       	brlt	.+6      	; 0x16d8 <__stack+0x5d9>
    16d2:	82 b3       	in	r24, 0x12	; 18
    16d4:	8f 7d       	andi	r24, 0xDF	; 223
    16d6:	82 bb       	out	0x12, r24	; 18
    16d8:	80 91 59 01 	lds	r24, 0x0159	; 0x800159 <UK_103>
    16dc:	90 91 5a 01 	lds	r25, 0x015A	; 0x80015a <UK_103+0x1>
    16e0:	89 2b       	or	r24, r25
    16e2:	09 f4       	brne	.+2      	; 0x16e6 <__stack+0x5e7>
    16e4:	6a c0       	rjmp	.+212    	; 0x17ba <__stack+0x6bb>
    16e6:	80 91 57 01 	lds	r24, 0x0157	; 0x800157 <UK_203>
    16ea:	90 91 58 01 	lds	r25, 0x0158	; 0x800158 <UK_203+0x1>
    16ee:	89 2b       	or	r24, r25
    16f0:	09 f0       	breq	.+2      	; 0x16f4 <__stack+0x5f5>
    16f2:	63 c0       	rjmp	.+198    	; 0x17ba <__stack+0x6bb>
    16f4:	80 91 55 01 	lds	r24, 0x0155	; 0x800155 <UK_303>
    16f8:	90 91 56 01 	lds	r25, 0x0156	; 0x800156 <UK_303+0x1>
    16fc:	89 2b       	or	r24, r25
    16fe:	09 f0       	breq	.+2      	; 0x1702 <__stack+0x603>
    1700:	5c c0       	rjmp	.+184    	; 0x17ba <__stack+0x6bb>
    1702:	80 91 13 01 	lds	r24, 0x0113	; 0x800113 <Start_stop>
    1706:	90 91 14 01 	lds	r25, 0x0114	; 0x800114 <Start_stop+0x1>
    170a:	89 2b       	or	r24, r25
    170c:	09 f4       	brne	.+2      	; 0x1710 <__stack+0x611>
    170e:	55 c0       	rjmp	.+170    	; 0x17ba <__stack+0x6bb>
    1710:	80 91 41 01 	lds	r24, 0x0141	; 0x800141 <Flag_Temp>
    1714:	90 91 42 01 	lds	r25, 0x0142	; 0x800142 <Flag_Temp+0x1>
    1718:	89 2b       	or	r24, r25
    171a:	09 f4       	brne	.+2      	; 0x171e <__stack+0x61f>
    171c:	4e c0       	rjmp	.+156    	; 0x17ba <__stack+0x6bb>
    171e:	80 91 5f 01 	lds	r24, 0x015F	; 0x80015f <Work>
    1722:	90 91 60 01 	lds	r25, 0x0160	; 0x800160 <Work+0x1>
    1726:	89 2b       	or	r24, r25
    1728:	09 f4       	brne	.+2      	; 0x172c <__stack+0x62d>
    172a:	47 c0       	rjmp	.+142    	; 0x17ba <__stack+0x6bb>
    172c:	82 b3       	in	r24, 0x12	; 18
    172e:	88 60       	ori	r24, 0x08	; 8
    1730:	82 bb       	out	0x12, r24	; 18
    1732:	80 91 53 01 	lds	r24, 0x0153	; 0x800153 <window>
    1736:	90 91 54 01 	lds	r25, 0x0154	; 0x800154 <window+0x1>
    173a:	03 97       	sbiw	r24, 0x03	; 3
    173c:	11 f0       	breq	.+4      	; 0x1742 <__stack+0x643>
    173e:	0e 94 00 22 	call	0x4400	; 0x4400 <Start>
    1742:	80 91 5d 01 	lds	r24, 0x015D	; 0x80015d <Time>
    1746:	90 91 5e 01 	lds	r25, 0x015E	; 0x80015e <Time+0x1>
    174a:	8a 30       	cpi	r24, 0x0A	; 10
    174c:	91 05       	cpc	r25, r1
    174e:	31 f4       	brne	.+12     	; 0x175c <__stack+0x65d>
    1750:	21 e0       	ldi	r18, 0x01	; 1
    1752:	30 e0       	ldi	r19, 0x00	; 0
    1754:	30 93 48 01 	sts	0x0148, r19	; 0x800148 <Flag_Fire_Test+0x1>
    1758:	20 93 47 01 	sts	0x0147, r18	; 0x800147 <Flag_Fire_Test>
    175c:	08 97       	sbiw	r24, 0x08	; 8
    175e:	61 f4       	brne	.+24     	; 0x1778 <__stack+0x679>
    1760:	10 92 48 01 	sts	0x0148, r1	; 0x800148 <Flag_Fire_Test+0x1>
    1764:	10 92 47 01 	sts	0x0147, r1	; 0x800147 <Flag_Fire_Test>
    1768:	83 ed       	ldi	r24, 0xD3	; 211
    176a:	90 e3       	ldi	r25, 0x30	; 48
    176c:	01 97       	sbiw	r24, 0x01	; 1
    176e:	f1 f7       	brne	.-4      	; 0x176c <__stack+0x66d>
    1770:	00 c0       	rjmp	.+0      	; 0x1772 <__stack+0x673>
    1772:	00 00       	nop
    1774:	0e 94 5c 33 	call	0x66b8	; 0x66b8 <Check_box1>
    1778:	80 91 5d 01 	lds	r24, 0x015D	; 0x80015d <Time>
    177c:	90 91 5e 01 	lds	r25, 0x015E	; 0x80015e <Time+0x1>
    1780:	04 97       	sbiw	r24, 0x04	; 4
    1782:	31 f4       	brne	.+12     	; 0x1790 <__stack+0x691>
    1784:	82 b3       	in	r24, 0x12	; 18
    1786:	80 61       	ori	r24, 0x10	; 16
    1788:	82 bb       	out	0x12, r24	; 18
    178a:	82 b3       	in	r24, 0x12	; 18
    178c:	84 60       	ori	r24, 0x04	; 4
    178e:	82 bb       	out	0x12, r24	; 18
    1790:	80 91 5d 01 	lds	r24, 0x015D	; 0x80015d <Time>
    1794:	90 91 5e 01 	lds	r25, 0x015E	; 0x80015e <Time+0x1>
    1798:	01 97       	sbiw	r24, 0x01	; 1
    179a:	79 f4       	brne	.+30     	; 0x17ba <__stack+0x6bb>
    179c:	82 b3       	in	r24, 0x12	; 18
    179e:	8b 7f       	andi	r24, 0xFB	; 251
    17a0:	82 bb       	out	0x12, r24	; 18
    17a2:	81 e0       	ldi	r24, 0x01	; 1
    17a4:	90 e0       	ldi	r25, 0x00	; 0
    17a6:	90 93 4a 01 	sts	0x014A, r25	; 0x80014a <Flag_Fire+0x1>
    17aa:	80 93 49 01 	sts	0x0149, r24	; 0x800149 <Flag_Fire>
    17ae:	10 92 60 01 	sts	0x0160, r1	; 0x800160 <Work+0x1>
    17b2:	10 92 5f 01 	sts	0x015F, r1	; 0x80015f <Work>
    17b6:	0e 94 e2 17 	call	0x2fc4	; 0x2fc4 <Window1>
    17ba:	80 91 59 01 	lds	r24, 0x0159	; 0x800159 <UK_103>
    17be:	90 91 5a 01 	lds	r25, 0x015A	; 0x80015a <UK_103+0x1>
    17c2:	89 2b       	or	r24, r25
    17c4:	09 f0       	breq	.+2      	; 0x17c8 <__stack+0x6c9>
    17c6:	88 c0       	rjmp	.+272    	; 0x18d8 <__stack+0x7d9>
    17c8:	80 91 57 01 	lds	r24, 0x0157	; 0x800157 <UK_203>
    17cc:	90 91 58 01 	lds	r25, 0x0158	; 0x800158 <UK_203+0x1>
    17d0:	89 2b       	or	r24, r25
    17d2:	09 f4       	brne	.+2      	; 0x17d6 <__stack+0x6d7>
    17d4:	81 c0       	rjmp	.+258    	; 0x18d8 <__stack+0x7d9>
    17d6:	80 91 55 01 	lds	r24, 0x0155	; 0x800155 <UK_303>
    17da:	90 91 56 01 	lds	r25, 0x0156	; 0x800156 <UK_303+0x1>
    17de:	89 2b       	or	r24, r25
    17e0:	09 f0       	breq	.+2      	; 0x17e4 <__stack+0x6e5>
    17e2:	7a c0       	rjmp	.+244    	; 0x18d8 <__stack+0x7d9>
    17e4:	80 91 13 01 	lds	r24, 0x0113	; 0x800113 <Start_stop>
    17e8:	90 91 14 01 	lds	r25, 0x0114	; 0x800114 <Start_stop+0x1>
    17ec:	89 2b       	or	r24, r25
    17ee:	09 f4       	brne	.+2      	; 0x17f2 <__stack+0x6f3>
    17f0:	73 c0       	rjmp	.+230    	; 0x18d8 <__stack+0x7d9>
    17f2:	80 91 41 01 	lds	r24, 0x0141	; 0x800141 <Flag_Temp>
    17f6:	90 91 42 01 	lds	r25, 0x0142	; 0x800142 <Flag_Temp+0x1>
    17fa:	89 2b       	or	r24, r25
    17fc:	09 f4       	brne	.+2      	; 0x1800 <__stack+0x701>
    17fe:	6c c0       	rjmp	.+216    	; 0x18d8 <__stack+0x7d9>
    1800:	80 91 5f 01 	lds	r24, 0x015F	; 0x80015f <Work>
    1804:	90 91 60 01 	lds	r25, 0x0160	; 0x800160 <Work+0x1>
    1808:	89 2b       	or	r24, r25
    180a:	09 f4       	brne	.+2      	; 0x180e <__stack+0x70f>
    180c:	65 c0       	rjmp	.+202    	; 0x18d8 <__stack+0x7d9>
    180e:	80 91 53 01 	lds	r24, 0x0153	; 0x800153 <window>
    1812:	90 91 54 01 	lds	r25, 0x0154	; 0x800154 <window+0x1>
    1816:	03 97       	sbiw	r24, 0x03	; 3
    1818:	11 f0       	breq	.+4      	; 0x181e <__stack+0x71f>
    181a:	0e 94 00 22 	call	0x4400	; 0x4400 <Start>
    181e:	80 91 5d 01 	lds	r24, 0x015D	; 0x80015d <Time>
    1822:	90 91 5e 01 	lds	r25, 0x015E	; 0x80015e <Time+0x1>
    1826:	84 31       	cpi	r24, 0x14	; 20
    1828:	91 05       	cpc	r25, r1
    182a:	31 f4       	brne	.+12     	; 0x1838 <__stack+0x739>
    182c:	21 e0       	ldi	r18, 0x01	; 1
    182e:	30 e0       	ldi	r19, 0x00	; 0
    1830:	30 93 44 01 	sts	0x0144, r19	; 0x800144 <Flag_Clapan_Test+0x1>
    1834:	20 93 43 01 	sts	0x0143, r18	; 0x800143 <Flag_Clapan_Test>
    1838:	43 97       	sbiw	r24, 0x13	; 19
    183a:	79 f4       	brne	.+30     	; 0x185a <__stack+0x75b>
    183c:	10 92 44 01 	sts	0x0144, r1	; 0x800144 <Flag_Clapan_Test+0x1>
    1840:	10 92 43 01 	sts	0x0143, r1	; 0x800143 <Flag_Clapan_Test>
    1844:	82 b3       	in	r24, 0x12	; 18
    1846:	88 60       	ori	r24, 0x08	; 8
    1848:	82 bb       	out	0x12, r24	; 18
    184a:	83 ed       	ldi	r24, 0xD3	; 211
    184c:	90 e3       	ldi	r25, 0x30	; 48
    184e:	01 97       	sbiw	r24, 0x01	; 1
    1850:	f1 f7       	brne	.-4      	; 0x184e <__stack+0x74f>
    1852:	00 c0       	rjmp	.+0      	; 0x1854 <__stack+0x755>
    1854:	00 00       	nop
    1856:	0e 94 5c 33 	call	0x66b8	; 0x66b8 <Check_box1>
    185a:	80 91 5d 01 	lds	r24, 0x015D	; 0x80015d <Time>
    185e:	90 91 5e 01 	lds	r25, 0x015E	; 0x80015e <Time+0x1>
    1862:	8a 30       	cpi	r24, 0x0A	; 10
    1864:	91 05       	cpc	r25, r1
    1866:	31 f4       	brne	.+12     	; 0x1874 <__stack+0x775>
    1868:	21 e0       	ldi	r18, 0x01	; 1
    186a:	30 e0       	ldi	r19, 0x00	; 0
    186c:	30 93 48 01 	sts	0x0148, r19	; 0x800148 <Flag_Fire_Test+0x1>
    1870:	20 93 47 01 	sts	0x0147, r18	; 0x800147 <Flag_Fire_Test>
    1874:	08 97       	sbiw	r24, 0x08	; 8
    1876:	61 f4       	brne	.+24     	; 0x1890 <__stack+0x791>
    1878:	10 92 48 01 	sts	0x0148, r1	; 0x800148 <Flag_Fire_Test+0x1>
    187c:	10 92 47 01 	sts	0x0147, r1	; 0x800147 <Flag_Fire_Test>
    1880:	83 ed       	ldi	r24, 0xD3	; 211
    1882:	90 e3       	ldi	r25, 0x30	; 48
    1884:	01 97       	sbiw	r24, 0x01	; 1
    1886:	f1 f7       	brne	.-4      	; 0x1884 <__stack+0x785>
    1888:	00 c0       	rjmp	.+0      	; 0x188a <__stack+0x78b>
    188a:	00 00       	nop
    188c:	0e 94 82 33 	call	0x6704	; 0x6704 <Check_box2>
    1890:	80 91 5d 01 	lds	r24, 0x015D	; 0x80015d <Time>
    1894:	90 91 5e 01 	lds	r25, 0x015E	; 0x80015e <Time+0x1>
    1898:	04 97       	sbiw	r24, 0x04	; 4
    189a:	31 f4       	brne	.+12     	; 0x18a8 <__stack+0x7a9>
    189c:	82 b3       	in	r24, 0x12	; 18
    189e:	80 64       	ori	r24, 0x40	; 64
    18a0:	82 bb       	out	0x12, r24	; 18
    18a2:	82 b3       	in	r24, 0x12	; 18
    18a4:	84 60       	ori	r24, 0x04	; 4
    18a6:	82 bb       	out	0x12, r24	; 18
    18a8:	80 91 5d 01 	lds	r24, 0x015D	; 0x80015d <Time>
    18ac:	90 91 5e 01 	lds	r25, 0x015E	; 0x80015e <Time+0x1>
    18b0:	01 97       	sbiw	r24, 0x01	; 1
    18b2:	91 f4       	brne	.+36     	; 0x18d8 <__stack+0x7d9>
    18b4:	82 b3       	in	r24, 0x12	; 18
    18b6:	8b 7f       	andi	r24, 0xFB	; 251
    18b8:	82 bb       	out	0x12, r24	; 18
    18ba:	82 b3       	in	r24, 0x12	; 18
    18bc:	80 68       	ori	r24, 0x80	; 128
    18be:	82 bb       	out	0x12, r24	; 18
    18c0:	81 e0       	ldi	r24, 0x01	; 1
    18c2:	90 e0       	ldi	r25, 0x00	; 0
    18c4:	90 93 4a 01 	sts	0x014A, r25	; 0x80014a <Flag_Fire+0x1>
    18c8:	80 93 49 01 	sts	0x0149, r24	; 0x800149 <Flag_Fire>
    18cc:	10 92 60 01 	sts	0x0160, r1	; 0x800160 <Work+0x1>
    18d0:	10 92 5f 01 	sts	0x015F, r1	; 0x80015f <Work>
    18d4:	0e 94 e2 17 	call	0x2fc4	; 0x2fc4 <Window1>
    18d8:	80 91 59 01 	lds	r24, 0x0159	; 0x800159 <UK_103>
    18dc:	90 91 5a 01 	lds	r25, 0x015A	; 0x80015a <UK_103+0x1>
    18e0:	89 2b       	or	r24, r25
    18e2:	61 f4       	brne	.+24     	; 0x18fc <__stack+0x7fd>
    18e4:	80 91 57 01 	lds	r24, 0x0157	; 0x800157 <UK_203>
    18e8:	90 91 58 01 	lds	r25, 0x0158	; 0x800158 <UK_203+0x1>
    18ec:	89 2b       	or	r24, r25
    18ee:	31 f4       	brne	.+12     	; 0x18fc <__stack+0x7fd>
    18f0:	80 91 55 01 	lds	r24, 0x0155	; 0x800155 <UK_303>
    18f4:	90 91 56 01 	lds	r25, 0x0156	; 0x800156 <UK_303+0x1>
    18f8:	89 2b       	or	r24, r25
    18fa:	39 f4       	brne	.+14     	; 0x190a <__stack+0x80b>
    18fc:	80 91 3f 01 	lds	r24, 0x013F	; 0x80013f <Master>
    1900:	90 91 40 01 	lds	r25, 0x0140	; 0x800140 <Master+0x1>
    1904:	89 2b       	or	r24, r25
    1906:	09 f4       	brne	.+2      	; 0x190a <__stack+0x80b>
    1908:	42 c0       	rjmp	.+132    	; 0x198e <__stack+0x88f>
    190a:	80 91 13 01 	lds	r24, 0x0113	; 0x800113 <Start_stop>
    190e:	90 91 14 01 	lds	r25, 0x0114	; 0x800114 <Start_stop+0x1>
    1912:	89 2b       	or	r24, r25
    1914:	e1 f1       	breq	.+120    	; 0x198e <__stack+0x88f>
    1916:	80 91 41 01 	lds	r24, 0x0141	; 0x800141 <Flag_Temp>
    191a:	90 91 42 01 	lds	r25, 0x0142	; 0x800142 <Flag_Temp+0x1>
    191e:	89 2b       	or	r24, r25
    1920:	b1 f1       	breq	.+108    	; 0x198e <__stack+0x88f>
    1922:	80 91 5f 01 	lds	r24, 0x015F	; 0x80015f <Work>
    1926:	90 91 60 01 	lds	r25, 0x0160	; 0x800160 <Work+0x1>
    192a:	89 2b       	or	r24, r25
    192c:	81 f1       	breq	.+96     	; 0x198e <__stack+0x88f>
    192e:	80 91 53 01 	lds	r24, 0x0153	; 0x800153 <window>
    1932:	90 91 54 01 	lds	r25, 0x0154	; 0x800154 <window+0x1>
    1936:	03 97       	sbiw	r24, 0x03	; 3
    1938:	11 f0       	breq	.+4      	; 0x193e <__stack+0x83f>
    193a:	0e 94 00 22 	call	0x4400	; 0x4400 <Start>
    193e:	80 91 5d 01 	lds	r24, 0x015D	; 0x80015d <Time>
    1942:	90 91 5e 01 	lds	r25, 0x015E	; 0x80015e <Time+0x1>
    1946:	83 30       	cpi	r24, 0x03	; 3
    1948:	91 05       	cpc	r25, r1
    194a:	31 f4       	brne	.+12     	; 0x1958 <__stack+0x859>
    194c:	21 e0       	ldi	r18, 0x01	; 1
    194e:	30 e0       	ldi	r19, 0x00	; 0
    1950:	30 93 44 01 	sts	0x0144, r19	; 0x800144 <Flag_Clapan_Test+0x1>
    1954:	20 93 43 01 	sts	0x0143, r18	; 0x800143 <Flag_Clapan_Test>
    1958:	02 97       	sbiw	r24, 0x02	; 2
    195a:	39 f4       	brne	.+14     	; 0x196a <__stack+0x86b>
    195c:	10 92 44 01 	sts	0x0144, r1	; 0x800144 <Flag_Clapan_Test+0x1>
    1960:	10 92 43 01 	sts	0x0143, r1	; 0x800143 <Flag_Clapan_Test>
    1964:	82 b3       	in	r24, 0x12	; 18
    1966:	80 64       	ori	r24, 0x40	; 64
    1968:	82 bb       	out	0x12, r24	; 18
    196a:	80 91 5d 01 	lds	r24, 0x015D	; 0x80015d <Time>
    196e:	90 91 5e 01 	lds	r25, 0x015E	; 0x80015e <Time+0x1>
    1972:	01 97       	sbiw	r24, 0x01	; 1
    1974:	61 f4       	brne	.+24     	; 0x198e <__stack+0x88f>
    1976:	81 e0       	ldi	r24, 0x01	; 1
    1978:	90 e0       	ldi	r25, 0x00	; 0
    197a:	90 93 46 01 	sts	0x0146, r25	; 0x800146 <Flag_Clapan+0x1>
    197e:	80 93 45 01 	sts	0x0145, r24	; 0x800145 <Flag_Clapan>
    1982:	10 92 60 01 	sts	0x0160, r1	; 0x800160 <Work+0x1>
    1986:	10 92 5f 01 	sts	0x015F, r1	; 0x80015f <Work>
    198a:	0e 94 e2 17 	call	0x2fc4	; 0x2fc4 <Window1>
    198e:	80 91 3d 01 	lds	r24, 0x013D	; 0x80013d <Slave>
    1992:	90 91 3e 01 	lds	r25, 0x013E	; 0x80013e <Slave+0x1>
    1996:	01 97       	sbiw	r24, 0x01	; 1
    1998:	09 f0       	breq	.+2      	; 0x199c <__stack+0x89d>
    199a:	4a c0       	rjmp	.+148    	; 0x1a30 <__stack+0x931>
    199c:	80 91 5b 01 	lds	r24, 0x015B	; 0x80015b <Slave_time>
    19a0:	90 91 5c 01 	lds	r25, 0x015C	; 0x80015c <Slave_time+0x1>
    19a4:	84 38       	cpi	r24, 0x84	; 132
    19a6:	93 40       	sbci	r25, 0x03	; 3
    19a8:	08 f4       	brcc	.+2      	; 0x19ac <__stack+0x8ad>
    19aa:	42 c0       	rjmp	.+132    	; 0x1a30 <__stack+0x931>
    19ac:	80 91 13 01 	lds	r24, 0x0113	; 0x800113 <Start_stop>
    19b0:	90 91 14 01 	lds	r25, 0x0114	; 0x800114 <Start_stop+0x1>
    19b4:	89 2b       	or	r24, r25
    19b6:	e1 f1       	breq	.+120    	; 0x1a30 <__stack+0x931>
    19b8:	80 91 41 01 	lds	r24, 0x0141	; 0x800141 <Flag_Temp>
    19bc:	90 91 42 01 	lds	r25, 0x0142	; 0x800142 <Flag_Temp+0x1>
    19c0:	89 2b       	or	r24, r25
    19c2:	b1 f1       	breq	.+108    	; 0x1a30 <__stack+0x931>
    19c4:	80 91 5f 01 	lds	r24, 0x015F	; 0x80015f <Work>
    19c8:	90 91 60 01 	lds	r25, 0x0160	; 0x800160 <Work+0x1>
    19cc:	89 2b       	or	r24, r25
    19ce:	81 f1       	breq	.+96     	; 0x1a30 <__stack+0x931>
    19d0:	80 91 53 01 	lds	r24, 0x0153	; 0x800153 <window>
    19d4:	90 91 54 01 	lds	r25, 0x0154	; 0x800154 <window+0x1>
    19d8:	03 97       	sbiw	r24, 0x03	; 3
    19da:	11 f0       	breq	.+4      	; 0x19e0 <__stack+0x8e1>
    19dc:	0e 94 00 22 	call	0x4400	; 0x4400 <Start>
    19e0:	80 91 5d 01 	lds	r24, 0x015D	; 0x80015d <Time>
    19e4:	90 91 5e 01 	lds	r25, 0x015E	; 0x80015e <Time+0x1>
    19e8:	83 30       	cpi	r24, 0x03	; 3
    19ea:	91 05       	cpc	r25, r1
    19ec:	31 f4       	brne	.+12     	; 0x19fa <__stack+0x8fb>
    19ee:	21 e0       	ldi	r18, 0x01	; 1
    19f0:	30 e0       	ldi	r19, 0x00	; 0
    19f2:	30 93 44 01 	sts	0x0144, r19	; 0x800144 <Flag_Clapan_Test+0x1>
    19f6:	20 93 43 01 	sts	0x0143, r18	; 0x800143 <Flag_Clapan_Test>
    19fa:	02 97       	sbiw	r24, 0x02	; 2
    19fc:	39 f4       	brne	.+14     	; 0x1a0c <__stack+0x90d>
    19fe:	10 92 44 01 	sts	0x0144, r1	; 0x800144 <Flag_Clapan_Test+0x1>
    1a02:	10 92 43 01 	sts	0x0143, r1	; 0x800143 <Flag_Clapan_Test>
    1a06:	82 b3       	in	r24, 0x12	; 18
    1a08:	80 64       	ori	r24, 0x40	; 64
    1a0a:	82 bb       	out	0x12, r24	; 18
    1a0c:	80 91 5d 01 	lds	r24, 0x015D	; 0x80015d <Time>
    1a10:	90 91 5e 01 	lds	r25, 0x015E	; 0x80015e <Time+0x1>
    1a14:	01 97       	sbiw	r24, 0x01	; 1
    1a16:	61 f4       	brne	.+24     	; 0x1a30 <__stack+0x931>
    1a18:	81 e0       	ldi	r24, 0x01	; 1
    1a1a:	90 e0       	ldi	r25, 0x00	; 0
    1a1c:	90 93 46 01 	sts	0x0146, r25	; 0x800146 <Flag_Clapan+0x1>
    1a20:	80 93 45 01 	sts	0x0145, r24	; 0x800145 <Flag_Clapan>
    1a24:	10 92 60 01 	sts	0x0160, r1	; 0x800160 <Work+0x1>
    1a28:	10 92 5f 01 	sts	0x015F, r1	; 0x80015f <Work>
    1a2c:	0e 94 e2 17 	call	0x2fc4	; 0x2fc4 <Window1>
    1a30:	80 91 3d 01 	lds	r24, 0x013D	; 0x80013d <Slave>
    1a34:	90 91 3e 01 	lds	r25, 0x013E	; 0x80013e <Slave+0x1>
    1a38:	02 97       	sbiw	r24, 0x02	; 2
    1a3a:	09 f0       	breq	.+2      	; 0x1a3e <__stack+0x93f>
    1a3c:	4a c0       	rjmp	.+148    	; 0x1ad2 <__stack+0x9d3>
    1a3e:	80 91 5b 01 	lds	r24, 0x015B	; 0x80015b <Slave_time>
    1a42:	90 91 5c 01 	lds	r25, 0x015C	; 0x80015c <Slave_time+0x1>
    1a46:	80 36       	cpi	r24, 0x60	; 96
    1a48:	99 40       	sbci	r25, 0x09	; 9
    1a4a:	08 f4       	brcc	.+2      	; 0x1a4e <__stack+0x94f>
    1a4c:	42 c0       	rjmp	.+132    	; 0x1ad2 <__stack+0x9d3>
    1a4e:	80 91 13 01 	lds	r24, 0x0113	; 0x800113 <Start_stop>
    1a52:	90 91 14 01 	lds	r25, 0x0114	; 0x800114 <Start_stop+0x1>
    1a56:	89 2b       	or	r24, r25
    1a58:	e1 f1       	breq	.+120    	; 0x1ad2 <__stack+0x9d3>
    1a5a:	80 91 41 01 	lds	r24, 0x0141	; 0x800141 <Flag_Temp>
    1a5e:	90 91 42 01 	lds	r25, 0x0142	; 0x800142 <Flag_Temp+0x1>
    1a62:	89 2b       	or	r24, r25
    1a64:	b1 f1       	breq	.+108    	; 0x1ad2 <__stack+0x9d3>
    1a66:	80 91 5f 01 	lds	r24, 0x015F	; 0x80015f <Work>
    1a6a:	90 91 60 01 	lds	r25, 0x0160	; 0x800160 <Work+0x1>
    1a6e:	89 2b       	or	r24, r25
    1a70:	81 f1       	breq	.+96     	; 0x1ad2 <__stack+0x9d3>
    1a72:	80 91 53 01 	lds	r24, 0x0153	; 0x800153 <window>
    1a76:	90 91 54 01 	lds	r25, 0x0154	; 0x800154 <window+0x1>
    1a7a:	03 97       	sbiw	r24, 0x03	; 3
    1a7c:	11 f0       	breq	.+4      	; 0x1a82 <__stack+0x983>
    1a7e:	0e 94 00 22 	call	0x4400	; 0x4400 <Start>
    1a82:	80 91 5d 01 	lds	r24, 0x015D	; 0x80015d <Time>
    1a86:	90 91 5e 01 	lds	r25, 0x015E	; 0x80015e <Time+0x1>
    1a8a:	83 30       	cpi	r24, 0x03	; 3
    1a8c:	91 05       	cpc	r25, r1
    1a8e:	31 f4       	brne	.+12     	; 0x1a9c <__stack+0x99d>
    1a90:	21 e0       	ldi	r18, 0x01	; 1
    1a92:	30 e0       	ldi	r19, 0x00	; 0
    1a94:	30 93 44 01 	sts	0x0144, r19	; 0x800144 <Flag_Clapan_Test+0x1>
    1a98:	20 93 43 01 	sts	0x0143, r18	; 0x800143 <Flag_Clapan_Test>
    1a9c:	02 97       	sbiw	r24, 0x02	; 2
    1a9e:	39 f4       	brne	.+14     	; 0x1aae <__stack+0x9af>
    1aa0:	10 92 44 01 	sts	0x0144, r1	; 0x800144 <Flag_Clapan_Test+0x1>
    1aa4:	10 92 43 01 	sts	0x0143, r1	; 0x800143 <Flag_Clapan_Test>
    1aa8:	82 b3       	in	r24, 0x12	; 18
    1aaa:	80 64       	ori	r24, 0x40	; 64
    1aac:	82 bb       	out	0x12, r24	; 18
    1aae:	80 91 5d 01 	lds	r24, 0x015D	; 0x80015d <Time>
    1ab2:	90 91 5e 01 	lds	r25, 0x015E	; 0x80015e <Time+0x1>
    1ab6:	01 97       	sbiw	r24, 0x01	; 1
    1ab8:	61 f4       	brne	.+24     	; 0x1ad2 <__stack+0x9d3>
    1aba:	81 e0       	ldi	r24, 0x01	; 1
    1abc:	90 e0       	ldi	r25, 0x00	; 0
    1abe:	90 93 46 01 	sts	0x0146, r25	; 0x800146 <Flag_Clapan+0x1>
    1ac2:	80 93 45 01 	sts	0x0145, r24	; 0x800145 <Flag_Clapan>
    1ac6:	10 92 60 01 	sts	0x0160, r1	; 0x800160 <Work+0x1>
    1aca:	10 92 5f 01 	sts	0x015F, r1	; 0x80015f <Work>
    1ace:	0e 94 e2 17 	call	0x2fc4	; 0x2fc4 <Window1>
    1ad2:	80 91 4d 01 	lds	r24, 0x014D	; 0x80014d <Lan>
    1ad6:	90 91 4e 01 	lds	r25, 0x014E	; 0x80014e <Lan+0x1>
    1ada:	89 2b       	or	r24, r25
    1adc:	09 f0       	breq	.+2      	; 0x1ae0 <__stack+0x9e1>
    1ade:	4d c1       	rjmp	.+666    	; 0x1d7a <__stack+0xc7b>
    1ae0:	80 91 71 01 	lds	r24, 0x0171	; 0x800171 <qin>
    1ae4:	87 30       	cpi	r24, 0x07	; 7
    1ae6:	09 f0       	breq	.+2      	; 0x1aea <__stack+0x9eb>
    1ae8:	ea c0       	rjmp	.+468    	; 0x1cbe <__stack+0xbbf>
    1aea:	0c c0       	rjmp	.+24     	; 0x1b04 <__stack+0xa05>
    1aec:	82 2f       	mov	r24, r18
    1aee:	90 e0       	ldi	r25, 0x00	; 0
    1af0:	fc 01       	movw	r30, r24
    1af2:	ec 5d       	subi	r30, 0xDC	; 220
    1af4:	fe 4f       	sbci	r31, 0xFE	; 254
    1af6:	30 81       	ld	r19, Z
    1af8:	fc 01       	movw	r30, r24
    1afa:	e4 5d       	subi	r30, 0xD4	; 212
    1afc:	fe 4f       	sbci	r31, 0xFE	; 254
    1afe:	30 83       	st	Z, r19
    1b00:	2f 5f       	subi	r18, 0xFF	; 255
    1b02:	01 c0       	rjmp	.+2      	; 0x1b06 <__stack+0xa07>
    1b04:	20 e0       	ldi	r18, 0x00	; 0
    1b06:	27 30       	cpi	r18, 0x07	; 7
    1b08:	88 f3       	brcs	.-30     	; 0x1aec <__stack+0x9ed>
    1b0a:	80 91 53 01 	lds	r24, 0x0153	; 0x800153 <window>
    1b0e:	90 91 54 01 	lds	r25, 0x0154	; 0x800154 <window+0x1>
    1b12:	01 97       	sbiw	r24, 0x01	; 1
    1b14:	01 f5       	brne	.+64     	; 0x1b56 <__stack+0xa57>
    1b16:	80 91 51 01 	lds	r24, 0x0151	; 0x800151 <cursor>
    1b1a:	90 91 52 01 	lds	r25, 0x0152	; 0x800152 <cursor+0x1>
    1b1e:	01 97       	sbiw	r24, 0x01	; 1
    1b20:	d1 f4       	brne	.+52     	; 0x1b56 <__stack+0xa57>
    1b22:	80 91 13 01 	lds	r24, 0x0113	; 0x800113 <Start_stop>
    1b26:	90 91 14 01 	lds	r25, 0x0114	; 0x800114 <Start_stop+0x1>
    1b2a:	89 2b       	or	r24, r25
    1b2c:	a1 f4       	brne	.+40     	; 0x1b56 <__stack+0xa57>
    1b2e:	80 91 41 01 	lds	r24, 0x0141	; 0x800141 <Flag_Temp>
    1b32:	90 91 42 01 	lds	r25, 0x0142	; 0x800142 <Flag_Temp+0x1>
    1b36:	01 97       	sbiw	r24, 0x01	; 1
    1b38:	71 f4       	brne	.+28     	; 0x1b56 <__stack+0xa57>
    1b3a:	6c e2       	ldi	r22, 0x2C	; 44
    1b3c:	71 e0       	ldi	r23, 0x01	; 1
    1b3e:	80 e8       	ldi	r24, 0x80	; 128
    1b40:	07 e0       	ldi	r16, 0x07	; 7
    1b42:	10 e0       	ldi	r17, 0x00	; 0
    1b44:	28 e4       	ldi	r18, 0x48	; 72
    1b46:	36 e0       	ldi	r19, 0x06	; 6
    1b48:	40 e0       	ldi	r20, 0x00	; 0
    1b4a:	0e 94 ee 31 	call	0x63dc	; 0x63dc <strncmp>
    1b4e:	89 2b       	or	r24, r25
    1b50:	11 f4       	brne	.+4      	; 0x1b56 <__stack+0xa57>
    1b52:	0e 94 00 22 	call	0x4400	; 0x4400 <Start>
    1b56:	80 91 53 01 	lds	r24, 0x0153	; 0x800153 <window>
    1b5a:	90 91 54 01 	lds	r25, 0x0154	; 0x800154 <window+0x1>
    1b5e:	01 97       	sbiw	r24, 0x01	; 1
    1b60:	31 f5       	brne	.+76     	; 0x1bae <__stack+0xaaf>
    1b62:	80 91 51 01 	lds	r24, 0x0151	; 0x800151 <cursor>
    1b66:	90 91 52 01 	lds	r25, 0x0152	; 0x800152 <cursor+0x1>
    1b6a:	01 97       	sbiw	r24, 0x01	; 1
    1b6c:	01 f5       	brne	.+64     	; 0x1bae <__stack+0xaaf>
    1b6e:	80 91 13 01 	lds	r24, 0x0113	; 0x800113 <Start_stop>
    1b72:	90 91 14 01 	lds	r25, 0x0114	; 0x800114 <Start_stop+0x1>
    1b76:	89 2b       	or	r24, r25
    1b78:	d1 f4       	brne	.+52     	; 0x1bae <__stack+0xaaf>
    1b7a:	80 91 41 01 	lds	r24, 0x0141	; 0x800141 <Flag_Temp>
    1b7e:	90 91 42 01 	lds	r25, 0x0142	; 0x800142 <Flag_Temp+0x1>
    1b82:	89 2b       	or	r24, r25
    1b84:	a1 f4       	brne	.+40     	; 0x1bae <__stack+0xaaf>
    1b86:	6c e2       	ldi	r22, 0x2C	; 44
    1b88:	71 e0       	ldi	r23, 0x01	; 1
    1b8a:	80 e8       	ldi	r24, 0x80	; 128
    1b8c:	07 e0       	ldi	r16, 0x07	; 7
    1b8e:	10 e0       	ldi	r17, 0x00	; 0
    1b90:	28 e4       	ldi	r18, 0x48	; 72
    1b92:	36 e0       	ldi	r19, 0x06	; 6
    1b94:	40 e0       	ldi	r20, 0x00	; 0
    1b96:	0e 94 ee 31 	call	0x63dc	; 0x63dc <strncmp>
    1b9a:	89 2b       	or	r24, r25
    1b9c:	41 f4       	brne	.+16     	; 0x1bae <__stack+0xaaf>
    1b9e:	81 e0       	ldi	r24, 0x01	; 1
    1ba0:	90 e0       	ldi	r25, 0x00	; 0
    1ba2:	90 93 14 01 	sts	0x0114, r25	; 0x800114 <Start_stop+0x1>
    1ba6:	80 93 13 01 	sts	0x0113, r24	; 0x800113 <Start_stop>
    1baa:	0e 94 e2 17 	call	0x2fc4	; 0x2fc4 <Window1>
    1bae:	80 91 53 01 	lds	r24, 0x0153	; 0x800153 <window>
    1bb2:	90 91 54 01 	lds	r25, 0x0154	; 0x800154 <window+0x1>
    1bb6:	01 97       	sbiw	r24, 0x01	; 1
    1bb8:	01 f5       	brne	.+64     	; 0x1bfa <__stack+0xafb>
    1bba:	80 91 51 01 	lds	r24, 0x0151	; 0x800151 <cursor>
    1bbe:	90 91 52 01 	lds	r25, 0x0152	; 0x800152 <cursor+0x1>
    1bc2:	01 97       	sbiw	r24, 0x01	; 1
    1bc4:	d1 f4       	brne	.+52     	; 0x1bfa <__stack+0xafb>
    1bc6:	80 91 13 01 	lds	r24, 0x0113	; 0x800113 <Start_stop>
    1bca:	90 91 14 01 	lds	r25, 0x0114	; 0x800114 <Start_stop+0x1>
    1bce:	01 97       	sbiw	r24, 0x01	; 1
    1bd0:	a1 f4       	brne	.+40     	; 0x1bfa <__stack+0xafb>
    1bd2:	6c e2       	ldi	r22, 0x2C	; 44
    1bd4:	71 e0       	ldi	r23, 0x01	; 1
    1bd6:	80 e8       	ldi	r24, 0x80	; 128
    1bd8:	07 e0       	ldi	r16, 0x07	; 7
    1bda:	10 e0       	ldi	r17, 0x00	; 0
    1bdc:	20 e5       	ldi	r18, 0x50	; 80
    1bde:	36 e0       	ldi	r19, 0x06	; 6
    1be0:	40 e0       	ldi	r20, 0x00	; 0
    1be2:	0e 94 ee 31 	call	0x63dc	; 0x63dc <strncmp>
    1be6:	89 2b       	or	r24, r25
    1be8:	41 f4       	brne	.+16     	; 0x1bfa <__stack+0xafb>
    1bea:	10 92 14 01 	sts	0x0114, r1	; 0x800114 <Start_stop+0x1>
    1bee:	10 92 13 01 	sts	0x0113, r1	; 0x800113 <Start_stop>
    1bf2:	0e 94 e2 17 	call	0x2fc4	; 0x2fc4 <Window1>
    1bf6:	0e 94 b9 32 	call	0x6572	; 0x6572 <WorkStop>
    1bfa:	80 91 53 01 	lds	r24, 0x0153	; 0x800153 <window>
    1bfe:	90 91 54 01 	lds	r25, 0x0154	; 0x800154 <window+0x1>
    1c02:	03 97       	sbiw	r24, 0x03	; 3
    1c04:	02 97       	sbiw	r24, 0x02	; 2
    1c06:	d0 f4       	brcc	.+52     	; 0x1c3c <__stack+0xb3d>
    1c08:	80 91 13 01 	lds	r24, 0x0113	; 0x800113 <Start_stop>
    1c0c:	90 91 14 01 	lds	r25, 0x0114	; 0x800114 <Start_stop+0x1>
    1c10:	01 97       	sbiw	r24, 0x01	; 1
    1c12:	a1 f4       	brne	.+40     	; 0x1c3c <__stack+0xb3d>
    1c14:	6c e2       	ldi	r22, 0x2C	; 44
    1c16:	71 e0       	ldi	r23, 0x01	; 1
    1c18:	80 e8       	ldi	r24, 0x80	; 128
    1c1a:	07 e0       	ldi	r16, 0x07	; 7
    1c1c:	10 e0       	ldi	r17, 0x00	; 0
    1c1e:	20 e5       	ldi	r18, 0x50	; 80
    1c20:	36 e0       	ldi	r19, 0x06	; 6
    1c22:	40 e0       	ldi	r20, 0x00	; 0
    1c24:	0e 94 ee 31 	call	0x63dc	; 0x63dc <strncmp>
    1c28:	89 2b       	or	r24, r25
    1c2a:	41 f4       	brne	.+16     	; 0x1c3c <__stack+0xb3d>
    1c2c:	10 92 14 01 	sts	0x0114, r1	; 0x800114 <Start_stop+0x1>
    1c30:	10 92 13 01 	sts	0x0113, r1	; 0x800113 <Start_stop>
    1c34:	0e 94 e2 17 	call	0x2fc4	; 0x2fc4 <Window1>
    1c38:	0e 94 b9 32 	call	0x6572	; 0x6572 <WorkStop>
    1c3c:	6c e2       	ldi	r22, 0x2C	; 44
    1c3e:	71 e0       	ldi	r23, 0x01	; 1
    1c40:	80 e8       	ldi	r24, 0x80	; 128
    1c42:	05 e0       	ldi	r16, 0x05	; 5
    1c44:	10 e0       	ldi	r17, 0x00	; 0
    1c46:	28 e5       	ldi	r18, 0x58	; 88
    1c48:	36 e0       	ldi	r19, 0x06	; 6
    1c4a:	40 e0       	ldi	r20, 0x00	; 0
    1c4c:	0e 94 ee 31 	call	0x63dc	; 0x63dc <strncmp>
    1c50:	89 2b       	or	r24, r25
    1c52:	69 f0       	breq	.+26     	; 0x1c6e <__stack+0xb6f>
    1c54:	32 c0       	rjmp	.+100    	; 0x1cba <__stack+0xbbb>
    1c56:	28 2f       	mov	r18, r24
    1c58:	30 e0       	ldi	r19, 0x00	; 0
    1c5a:	f9 01       	movw	r30, r18
    1c5c:	ec 5d       	subi	r30, 0xDC	; 220
    1c5e:	fe 4f       	sbci	r31, 0xFE	; 254
    1c60:	90 81       	ld	r25, Z
    1c62:	f9 01       	movw	r30, r18
    1c64:	e0 50       	subi	r30, 0x00	; 0
    1c66:	ff 4f       	sbci	r31, 0xFF	; 255
    1c68:	90 83       	st	Z, r25
    1c6a:	8f 5f       	subi	r24, 0xFF	; 255
    1c6c:	01 c0       	rjmp	.+2      	; 0x1c70 <__stack+0xb71>
    1c6e:	85 e0       	ldi	r24, 0x05	; 5
    1c70:	87 30       	cpi	r24, 0x07	; 7
    1c72:	88 f3       	brcs	.-30     	; 0x1c56 <__stack+0xb57>
    1c74:	ce 01       	movw	r24, r28
    1c76:	01 96       	adiw	r24, 0x01	; 1
    1c78:	9f 93       	push	r25
    1c7a:	8f 93       	push	r24
    1c7c:	89 e4       	ldi	r24, 0x49	; 73
    1c7e:	94 e0       	ldi	r25, 0x04	; 4
    1c80:	a0 e0       	ldi	r26, 0x00	; 0
    1c82:	af 93       	push	r26
    1c84:	9f 93       	push	r25
    1c86:	8f 93       	push	r24
    1c88:	85 e0       	ldi	r24, 0x05	; 5
    1c8a:	91 e0       	ldi	r25, 0x01	; 1
    1c8c:	a0 e8       	ldi	r26, 0x80	; 128
    1c8e:	af 93       	push	r26
    1c90:	9f 93       	push	r25
    1c92:	8f 93       	push	r24
    1c94:	0e 94 cc 33 	call	0x6798	; 0x6798 <_sscanf_cdnopuxX>
    1c98:	69 81       	ldd	r22, Y+1	; 0x01
    1c9a:	8a 81       	ldd	r24, Y+2	; 0x02
    1c9c:	60 93 01 01 	sts	0x0101, r22	; 0x800101 <WaterLoad>
    1ca0:	80 93 02 01 	sts	0x0102, r24	; 0x800102 <WaterLoad+0x1>
    1ca4:	85 e0       	ldi	r24, 0x05	; 5
    1ca6:	90 e0       	ldi	r25, 0x00	; 0
    1ca8:	0e 94 4e 38 	call	0x709c	; 0x709c <eeprom_write_byte>
    1cac:	0e 94 e2 17 	call	0x2fc4	; 0x2fc4 <Window1>
    1cb0:	0f b6       	in	r0, 0x3f	; 63
    1cb2:	f8 94       	cli
    1cb4:	de bf       	out	0x3e, r29	; 62
    1cb6:	0f be       	out	0x3f, r0	; 63
    1cb8:	cd bf       	out	0x3d, r28	; 61
    1cba:	0e 94 f6 38 	call	0x71ec	; 0x71ec <SUART_FlushInBuf>
    1cbe:	80 91 13 01 	lds	r24, 0x0113	; 0x800113 <Start_stop>
    1cc2:	90 91 14 01 	lds	r25, 0x0114	; 0x800114 <Start_stop+0x1>
    1cc6:	20 91 0c 01 	lds	r18, 0x010C	; 0x80010c <Start_stop_compare_tx>
    1cca:	30 91 0d 01 	lds	r19, 0x010D	; 0x80010d <Start_stop_compare_tx+0x1>
    1cce:	82 17       	cp	r24, r18
    1cd0:	93 07       	cpc	r25, r19
    1cd2:	b1 f0       	breq	.+44     	; 0x1d00 <__stack+0xc01>
    1cd4:	90 93 0d 01 	sts	0x010D, r25	; 0x80010d <Start_stop_compare_tx+0x1>
    1cd8:	80 93 0c 01 	sts	0x010C, r24	; 0x80010c <Start_stop_compare_tx>
    1cdc:	89 2b       	or	r24, r25
    1cde:	29 f0       	breq	.+10     	; 0x1cea <__stack+0xbeb>
    1ce0:	68 e4       	ldi	r22, 0x48	; 72
    1ce2:	76 e0       	ldi	r23, 0x06	; 6
    1ce4:	80 e0       	ldi	r24, 0x00	; 0
    1ce6:	0e 94 36 37 	call	0x6e6c	; 0x6e6c <SUART_PutStr>
    1cea:	80 91 13 01 	lds	r24, 0x0113	; 0x800113 <Start_stop>
    1cee:	90 91 14 01 	lds	r25, 0x0114	; 0x800114 <Start_stop+0x1>
    1cf2:	89 2b       	or	r24, r25
    1cf4:	29 f4       	brne	.+10     	; 0x1d00 <__stack+0xc01>
    1cf6:	60 e5       	ldi	r22, 0x50	; 80
    1cf8:	76 e0       	ldi	r23, 0x06	; 6
    1cfa:	80 e0       	ldi	r24, 0x00	; 0
    1cfc:	0e 94 36 37 	call	0x6e6c	; 0x6e6c <SUART_PutStr>
    1d00:	80 91 01 01 	lds	r24, 0x0101	; 0x800101 <WaterLoad>
    1d04:	90 91 02 01 	lds	r25, 0x0102	; 0x800102 <WaterLoad+0x1>
    1d08:	20 91 03 01 	lds	r18, 0x0103	; 0x800103 <WaterLoad_compare_tx>
    1d0c:	30 91 04 01 	lds	r19, 0x0104	; 0x800104 <WaterLoad_compare_tx+0x1>
    1d10:	82 17       	cp	r24, r18
    1d12:	93 07       	cpc	r25, r19
    1d14:	91 f1       	breq	.+100    	; 0x1d7a <__stack+0xc7b>
    1d16:	90 93 04 01 	sts	0x0104, r25	; 0x800104 <WaterLoad_compare_tx+0x1>
    1d1a:	80 93 03 01 	sts	0x0103, r24	; 0x800103 <WaterLoad_compare_tx>
    1d1e:	9f 93       	push	r25
    1d20:	8f 93       	push	r24
    1d22:	89 e4       	ldi	r24, 0x49	; 73
    1d24:	94 e0       	ldi	r25, 0x04	; 4
    1d26:	a0 e0       	ldi	r26, 0x00	; 0
    1d28:	af 93       	push	r26
    1d2a:	9f 93       	push	r25
    1d2c:	8f 93       	push	r24
    1d2e:	0f 2e       	mov	r0, r31
    1d30:	f0 e2       	ldi	r31, 0x20	; 32
    1d32:	ef 2e       	mov	r14, r31
    1d34:	f1 e0       	ldi	r31, 0x01	; 1
    1d36:	ff 2e       	mov	r15, r31
    1d38:	f0 2d       	mov	r31, r0
    1d3a:	ff 92       	push	r15
    1d3c:	ef 92       	push	r14
    1d3e:	0e 94 b2 37 	call	0x6f64	; 0x6f64 <_sprintf_cdnopuxX>
    1d42:	28 e5       	ldi	r18, 0x58	; 88
    1d44:	36 e0       	ldi	r19, 0x06	; 6
    1d46:	40 e0       	ldi	r20, 0x00	; 0
    1d48:	86 e0       	ldi	r24, 0x06	; 6
    1d4a:	f9 01       	movw	r30, r18
    1d4c:	8e 01       	movw	r16, r28
    1d4e:	0f 5f       	subi	r16, 0xFF	; 255
    1d50:	1f 4f       	sbci	r17, 0xFF	; 255
    1d52:	d8 01       	movw	r26, r16
    1d54:	74 2f       	mov	r23, r20
    1d56:	0e 94 41 38 	call	0x7082	; 0x7082 <__movmemx_qi>
    1d5a:	18 86       	std	Y+8, r1	; 0x08
    1d5c:	1f 82       	std	Y+7, r1	; 0x07
    1d5e:	a7 01       	movw	r20, r14
    1d60:	60 e8       	ldi	r22, 0x80	; 128
    1d62:	c8 01       	movw	r24, r16
    1d64:	0e 94 67 36 	call	0x6cce	; 0x6cce <strcat>
    1d68:	b8 01       	movw	r22, r16
    1d6a:	80 e8       	ldi	r24, 0x80	; 128
    1d6c:	0e 94 36 37 	call	0x6e6c	; 0x6e6c <SUART_PutStr>
    1d70:	0f b6       	in	r0, 0x3f	; 63
    1d72:	f8 94       	cli
    1d74:	de bf       	out	0x3e, r29	; 62
    1d76:	0f be       	out	0x3f, r0	; 63
    1d78:	cd bf       	out	0x3d, r28	; 61
    1d7a:	0d 9b       	sbis	0x01, 5	; 1
    1d7c:	10 c0       	rjmp	.+32     	; 0x1d9e <__stack+0xc9f>
    1d7e:	80 91 53 01 	lds	r24, 0x0153	; 0x800153 <window>
    1d82:	90 91 54 01 	lds	r25, 0x0154	; 0x800154 <window+0x1>
    1d86:	05 97       	sbiw	r24, 0x05	; 5
    1d88:	51 f4       	brne	.+20     	; 0x1d9e <__stack+0xc9f>
    1d8a:	80 91 4f 01 	lds	r24, 0x014F	; 0x80014f <cursor_lan>
    1d8e:	90 91 50 01 	lds	r25, 0x0150	; 0x800150 <cursor_lan+0x1>
    1d92:	01 97       	sbiw	r24, 0x01	; 1
    1d94:	21 f4       	brne	.+8      	; 0x1d9e <__stack+0xc9f>
    1d96:	0e 94 81 2e 	call	0x5d02	; 0x5d02 <CursorLan2>
    1d9a:	0d 99       	sbic	0x01, 5	; 1
    1d9c:	fe cf       	rjmp	.-4      	; 0x1d9a <__stack+0xc9b>
    1d9e:	0d 9b       	sbis	0x01, 5	; 1
    1da0:	10 c0       	rjmp	.+32     	; 0x1dc2 <__stack+0xcc3>
    1da2:	80 91 53 01 	lds	r24, 0x0153	; 0x800153 <window>
    1da6:	90 91 54 01 	lds	r25, 0x0154	; 0x800154 <window+0x1>
    1daa:	05 97       	sbiw	r24, 0x05	; 5
    1dac:	51 f4       	brne	.+20     	; 0x1dc2 <__stack+0xcc3>
    1dae:	80 91 4f 01 	lds	r24, 0x014F	; 0x80014f <cursor_lan>
    1db2:	90 91 50 01 	lds	r25, 0x0150	; 0x800150 <cursor_lan+0x1>
    1db6:	02 97       	sbiw	r24, 0x02	; 2
    1db8:	21 f4       	brne	.+8      	; 0x1dc2 <__stack+0xcc3>
    1dba:	0e 94 cf 2e 	call	0x5d9e	; 0x5d9e <CursorLan3>
    1dbe:	0d 99       	sbic	0x01, 5	; 1
    1dc0:	fe cf       	rjmp	.-4      	; 0x1dbe <__stack+0xcbf>
    1dc2:	0c 9b       	sbis	0x01, 4	; 1
    1dc4:	10 c0       	rjmp	.+32     	; 0x1de6 <__stack+0xce7>
    1dc6:	80 91 53 01 	lds	r24, 0x0153	; 0x800153 <window>
    1dca:	90 91 54 01 	lds	r25, 0x0154	; 0x800154 <window+0x1>
    1dce:	05 97       	sbiw	r24, 0x05	; 5
    1dd0:	51 f4       	brne	.+20     	; 0x1de6 <__stack+0xce7>
    1dd2:	80 91 4f 01 	lds	r24, 0x014F	; 0x80014f <cursor_lan>
    1dd6:	90 91 50 01 	lds	r25, 0x0150	; 0x800150 <cursor_lan+0x1>
    1dda:	03 97       	sbiw	r24, 0x03	; 3
    1ddc:	21 f4       	brne	.+8      	; 0x1de6 <__stack+0xce7>
    1dde:	0e 94 81 2e 	call	0x5d02	; 0x5d02 <CursorLan2>
    1de2:	0c 99       	sbic	0x01, 4	; 1
    1de4:	fe cf       	rjmp	.-4      	; 0x1de2 <__stack+0xce3>
    1de6:	0c 9b       	sbis	0x01, 4	; 1
    1de8:	10 c0       	rjmp	.+32     	; 0x1e0a <__stack+0xd0b>
    1dea:	80 91 53 01 	lds	r24, 0x0153	; 0x800153 <window>
    1dee:	90 91 54 01 	lds	r25, 0x0154	; 0x800154 <window+0x1>
    1df2:	05 97       	sbiw	r24, 0x05	; 5
    1df4:	51 f4       	brne	.+20     	; 0x1e0a <__stack+0xd0b>
    1df6:	80 91 4f 01 	lds	r24, 0x014F	; 0x80014f <cursor_lan>
    1dfa:	90 91 50 01 	lds	r25, 0x0150	; 0x800150 <cursor_lan+0x1>
    1dfe:	02 97       	sbiw	r24, 0x02	; 2
    1e00:	21 f4       	brne	.+8      	; 0x1e0a <__stack+0xd0b>
    1e02:	0e 94 dd 30 	call	0x61ba	; 0x61ba <CursorLan1>
    1e06:	0c 99       	sbic	0x01, 4	; 1
    1e08:	fe cf       	rjmp	.-4      	; 0x1e06 <__stack+0xd07>
    1e0a:	0e 9b       	sbis	0x01, 6	; 1
    1e0c:	29 c0       	rjmp	.+82     	; 0x1e60 <__stack+0xd61>
    1e0e:	80 91 53 01 	lds	r24, 0x0153	; 0x800153 <window>
    1e12:	90 91 54 01 	lds	r25, 0x0154	; 0x800154 <window+0x1>
    1e16:	05 97       	sbiw	r24, 0x05	; 5
    1e18:	19 f5       	brne	.+70     	; 0x1e60 <__stack+0xd61>
    1e1a:	80 91 4f 01 	lds	r24, 0x014F	; 0x80014f <cursor_lan>
    1e1e:	90 91 50 01 	lds	r25, 0x0150	; 0x800150 <cursor_lan+0x1>
    1e22:	01 97       	sbiw	r24, 0x01	; 1
    1e24:	e9 f4       	brne	.+58     	; 0x1e60 <__stack+0xd61>
    1e26:	80 91 3f 01 	lds	r24, 0x013F	; 0x80013f <Master>
    1e2a:	90 91 40 01 	lds	r25, 0x0140	; 0x800140 <Master+0x1>
    1e2e:	89 2b       	or	r24, r25
    1e30:	b9 f4       	brne	.+46     	; 0x1e60 <__stack+0xd61>
    1e32:	61 e0       	ldi	r22, 0x01	; 1
    1e34:	81 e0       	ldi	r24, 0x01	; 1
    1e36:	90 e0       	ldi	r25, 0x00	; 0
    1e38:	0e 94 4e 38 	call	0x709c	; 0x709c <eeprom_write_byte>
    1e3c:	81 e0       	ldi	r24, 0x01	; 1
    1e3e:	90 e0       	ldi	r25, 0x00	; 0
    1e40:	90 93 40 01 	sts	0x0140, r25	; 0x800140 <Master+0x1>
    1e44:	80 93 3f 01 	sts	0x013F, r24	; 0x80013f <Master>
    1e48:	90 93 14 01 	sts	0x0114, r25	; 0x800114 <Start_stop+0x1>
    1e4c:	80 93 13 01 	sts	0x0113, r24	; 0x800113 <Start_stop>
    1e50:	10 92 60 01 	sts	0x0160, r1	; 0x800160 <Work+0x1>
    1e54:	10 92 5f 01 	sts	0x015F, r1	; 0x80015f <Work>
    1e58:	0e 94 e2 17 	call	0x2fc4	; 0x2fc4 <Window1>
    1e5c:	0e 94 4d 31 	call	0x629a	; 0x629a <Cursor1>
    1e60:	0e 9b       	sbis	0x01, 6	; 1
    1e62:	23 c0       	rjmp	.+70     	; 0x1eaa <__stack+0xdab>
    1e64:	80 91 53 01 	lds	r24, 0x0153	; 0x800153 <window>
    1e68:	90 91 54 01 	lds	r25, 0x0154	; 0x800154 <window+0x1>
    1e6c:	05 97       	sbiw	r24, 0x05	; 5
    1e6e:	e9 f4       	brne	.+58     	; 0x1eaa <__stack+0xdab>
    1e70:	80 91 4f 01 	lds	r24, 0x014F	; 0x80014f <cursor_lan>
    1e74:	90 91 50 01 	lds	r25, 0x0150	; 0x800150 <cursor_lan+0x1>
    1e78:	02 97       	sbiw	r24, 0x02	; 2
    1e7a:	b9 f4       	brne	.+46     	; 0x1eaa <__stack+0xdab>
    1e7c:	61 e0       	ldi	r22, 0x01	; 1
    1e7e:	80 e0       	ldi	r24, 0x00	; 0
    1e80:	90 e0       	ldi	r25, 0x00	; 0
    1e82:	0e 94 4e 38 	call	0x709c	; 0x709c <eeprom_write_byte>
    1e86:	81 e0       	ldi	r24, 0x01	; 1
    1e88:	90 e0       	ldi	r25, 0x00	; 0
    1e8a:	90 93 3e 01 	sts	0x013E, r25	; 0x80013e <Slave+0x1>
    1e8e:	80 93 3d 01 	sts	0x013D, r24	; 0x80013d <Slave>
    1e92:	90 93 14 01 	sts	0x0114, r25	; 0x800114 <Start_stop+0x1>
    1e96:	80 93 13 01 	sts	0x0113, r24	; 0x800113 <Start_stop>
    1e9a:	10 92 60 01 	sts	0x0160, r1	; 0x800160 <Work+0x1>
    1e9e:	10 92 5f 01 	sts	0x015F, r1	; 0x80015f <Work>
    1ea2:	0e 94 e2 17 	call	0x2fc4	; 0x2fc4 <Window1>
    1ea6:	0e 94 4d 31 	call	0x629a	; 0x629a <Cursor1>
    1eaa:	0e 99       	sbic	0x01, 6	; 1
    1eac:	02 c0       	rjmp	.+4      	; 0x1eb2 <__stack+0xdb3>
    1eae:	0c 94 b8 04 	jmp	0x970	; 0x970 <__EEPROM_REGION_LENGTH__+0x170>
    1eb2:	80 91 53 01 	lds	r24, 0x0153	; 0x800153 <window>
    1eb6:	90 91 54 01 	lds	r25, 0x0154	; 0x800154 <window+0x1>
    1eba:	05 97       	sbiw	r24, 0x05	; 5
    1ebc:	11 f0       	breq	.+4      	; 0x1ec2 <__stack+0xdc3>
    1ebe:	0c 94 b8 04 	jmp	0x970	; 0x970 <__EEPROM_REGION_LENGTH__+0x170>
    1ec2:	80 91 4f 01 	lds	r24, 0x014F	; 0x80014f <cursor_lan>
    1ec6:	90 91 50 01 	lds	r25, 0x0150	; 0x800150 <cursor_lan+0x1>
    1eca:	03 97       	sbiw	r24, 0x03	; 3
    1ecc:	11 f0       	breq	.+4      	; 0x1ed2 <__stack+0xdd3>
    1ece:	0c 94 b8 04 	jmp	0x970	; 0x970 <__EEPROM_REGION_LENGTH__+0x170>
    1ed2:	62 e0       	ldi	r22, 0x02	; 2
    1ed4:	80 e0       	ldi	r24, 0x00	; 0
    1ed6:	90 e0       	ldi	r25, 0x00	; 0
    1ed8:	0e 94 4e 38 	call	0x709c	; 0x709c <eeprom_write_byte>
    1edc:	82 e0       	ldi	r24, 0x02	; 2
    1ede:	90 e0       	ldi	r25, 0x00	; 0
    1ee0:	90 93 3e 01 	sts	0x013E, r25	; 0x80013e <Slave+0x1>
    1ee4:	80 93 3d 01 	sts	0x013D, r24	; 0x80013d <Slave>
    1ee8:	81 e0       	ldi	r24, 0x01	; 1
    1eea:	90 e0       	ldi	r25, 0x00	; 0
    1eec:	90 93 14 01 	sts	0x0114, r25	; 0x800114 <Start_stop+0x1>
    1ef0:	80 93 13 01 	sts	0x0113, r24	; 0x800113 <Start_stop>
    1ef4:	10 92 60 01 	sts	0x0160, r1	; 0x800160 <Work+0x1>
    1ef8:	10 92 5f 01 	sts	0x015F, r1	; 0x80015f <Work>
    1efc:	0e 94 e2 17 	call	0x2fc4	; 0x2fc4 <Window1>
    1f00:	0e 94 4d 31 	call	0x629a	; 0x629a <Cursor1>
    1f04:	0c 94 b8 04 	jmp	0x970	; 0x970 <__EEPROM_REGION_LENGTH__+0x170>

Disassembly of section .text:

000071f6 <__cmpsf2>:
    71f6:	0e 94 a8 33 	call	0x6750	; 0x6750 <__fp_cmp>
    71fa:	08 f4       	brcc	.+2      	; 0x71fe <__cmpsf2+0x8>
    71fc:	81 e0       	ldi	r24, 0x01	; 1
    71fe:	08 95       	ret

Disassembly of section .text:

00007212 <__divsf3>:
    7212:	0e 94 b7 28 	call	0x516e	; 0x516e <__divsf3x>
    7216:	0c 94 d6 37 	jmp	0x6fac	; 0x6fac <__fp_round>

Disassembly of section .text:

0000516e <__divsf3x>:
    516e:	10 c0       	rjmp	.+32     	; 0x5190 <__divsf3x+0x22>
    5170:	0e 94 d6 38 	call	0x71ac	; 0x71ac <__fp_pscB>
    5174:	58 f0       	brcs	.+22     	; 0x518c <__divsf3x+0x1e>
    5176:	0e 94 cf 38 	call	0x719e	; 0x719e <__fp_pscA>
    517a:	40 f0       	brcs	.+16     	; 0x518c <__divsf3x+0x1e>
    517c:	29 f4       	brne	.+10     	; 0x5188 <__divsf3x+0x1a>
    517e:	5f 3f       	cpi	r21, 0xFF	; 255
    5180:	29 f0       	breq	.+10     	; 0x518c <__divsf3x+0x1e>
    5182:	0c 94 e4 38 	jmp	0x71c8	; 0x71c8 <__fp_inf>
    5186:	51 11       	cpse	r21, r1
    5188:	0c 94 de 38 	jmp	0x71bc	; 0x71bc <__fp_szero>
    518c:	0c 94 0d 39 	jmp	0x721a	; 0x721a <__fp_nan>
    5190:	0e 94 12 34 	call	0x6824	; 0x6824 <__fp_split3>
    5194:	68 f3       	brcs	.-38     	; 0x5170 <__divsf3x+0x2>

00005196 <__divsf3_pse>:
    5196:	99 23       	and	r25, r25
    5198:	b1 f3       	breq	.-20     	; 0x5186 <__divsf3x+0x18>
    519a:	55 23       	and	r21, r21
    519c:	91 f3       	breq	.-28     	; 0x5182 <__divsf3x+0x14>
    519e:	95 1b       	sub	r25, r21
    51a0:	55 0b       	sbc	r21, r21
    51a2:	bb 27       	eor	r27, r27
    51a4:	aa 27       	eor	r26, r26
    51a6:	62 17       	cp	r22, r18
    51a8:	73 07       	cpc	r23, r19
    51aa:	84 07       	cpc	r24, r20
    51ac:	38 f0       	brcs	.+14     	; 0x51bc <__divsf3_pse+0x26>
    51ae:	9f 5f       	subi	r25, 0xFF	; 255
    51b0:	5f 4f       	sbci	r21, 0xFF	; 255
    51b2:	22 0f       	add	r18, r18
    51b4:	33 1f       	adc	r19, r19
    51b6:	44 1f       	adc	r20, r20
    51b8:	aa 1f       	adc	r26, r26
    51ba:	a9 f3       	breq	.-22     	; 0x51a6 <__divsf3_pse+0x10>
    51bc:	35 d0       	rcall	.+106    	; 0x5228 <__divsf3_pse+0x92>
    51be:	0e 2e       	mov	r0, r30
    51c0:	3a f0       	brmi	.+14     	; 0x51d0 <__divsf3_pse+0x3a>
    51c2:	e0 e8       	ldi	r30, 0x80	; 128
    51c4:	32 d0       	rcall	.+100    	; 0x522a <__divsf3_pse+0x94>
    51c6:	91 50       	subi	r25, 0x01	; 1
    51c8:	50 40       	sbci	r21, 0x00	; 0
    51ca:	e6 95       	lsr	r30
    51cc:	00 1c       	adc	r0, r0
    51ce:	ca f7       	brpl	.-14     	; 0x51c2 <__divsf3_pse+0x2c>
    51d0:	2b d0       	rcall	.+86     	; 0x5228 <__divsf3_pse+0x92>
    51d2:	fe 2f       	mov	r31, r30
    51d4:	29 d0       	rcall	.+82     	; 0x5228 <__divsf3_pse+0x92>
    51d6:	66 0f       	add	r22, r22
    51d8:	77 1f       	adc	r23, r23
    51da:	88 1f       	adc	r24, r24
    51dc:	bb 1f       	adc	r27, r27
    51de:	26 17       	cp	r18, r22
    51e0:	37 07       	cpc	r19, r23
    51e2:	48 07       	cpc	r20, r24
    51e4:	ab 07       	cpc	r26, r27
    51e6:	b0 e8       	ldi	r27, 0x80	; 128
    51e8:	09 f0       	breq	.+2      	; 0x51ec <__divsf3_pse+0x56>
    51ea:	bb 0b       	sbc	r27, r27
    51ec:	80 2d       	mov	r24, r0
    51ee:	bf 01       	movw	r22, r30
    51f0:	ff 27       	eor	r31, r31
    51f2:	93 58       	subi	r25, 0x83	; 131
    51f4:	5f 4f       	sbci	r21, 0xFF	; 255
    51f6:	3a f0       	brmi	.+14     	; 0x5206 <__divsf3_pse+0x70>
    51f8:	9e 3f       	cpi	r25, 0xFE	; 254
    51fa:	51 05       	cpc	r21, r1
    51fc:	78 f0       	brcs	.+30     	; 0x521c <__divsf3_pse+0x86>
    51fe:	0c 94 e4 38 	jmp	0x71c8	; 0x71c8 <__fp_inf>
    5202:	0c 94 de 38 	jmp	0x71bc	; 0x71bc <__fp_szero>
    5206:	5f 3f       	cpi	r21, 0xFF	; 255
    5208:	e4 f3       	brlt	.-8      	; 0x5202 <__divsf3_pse+0x6c>
    520a:	98 3e       	cpi	r25, 0xE8	; 232
    520c:	d4 f3       	brlt	.-12     	; 0x5202 <__divsf3_pse+0x6c>
    520e:	86 95       	lsr	r24
    5210:	77 95       	ror	r23
    5212:	67 95       	ror	r22
    5214:	b7 95       	ror	r27
    5216:	f7 95       	ror	r31
    5218:	9f 5f       	subi	r25, 0xFF	; 255
    521a:	c9 f7       	brne	.-14     	; 0x520e <__divsf3_pse+0x78>
    521c:	88 0f       	add	r24, r24
    521e:	91 1d       	adc	r25, r1
    5220:	96 95       	lsr	r25
    5222:	87 95       	ror	r24
    5224:	97 f9       	bld	r25, 7
    5226:	08 95       	ret
    5228:	e1 e0       	ldi	r30, 0x01	; 1
    522a:	66 0f       	add	r22, r22
    522c:	77 1f       	adc	r23, r23
    522e:	88 1f       	adc	r24, r24
    5230:	bb 1f       	adc	r27, r27
    5232:	62 17       	cp	r22, r18
    5234:	73 07       	cpc	r23, r19
    5236:	84 07       	cpc	r24, r20
    5238:	ba 07       	cpc	r27, r26
    523a:	20 f0       	brcs	.+8      	; 0x5244 <__divsf3_pse+0xae>
    523c:	62 1b       	sub	r22, r18
    523e:	73 0b       	sbc	r23, r19
    5240:	84 0b       	sbc	r24, r20
    5242:	ba 0b       	sbc	r27, r26
    5244:	ee 1f       	adc	r30, r30
    5246:	88 f7       	brcc	.-30     	; 0x522a <__divsf3_pse+0x94>
    5248:	e0 95       	com	r30
    524a:	08 95       	ret

Disassembly of section .text:

0000605c <__floatunsisf>:
    605c:	e8 94       	clt
    605e:	09 c0       	rjmp	.+18     	; 0x6072 <__floatsisf+0x12>

00006060 <__floatsisf>:
    6060:	97 fb       	bst	r25, 7
    6062:	3e f4       	brtc	.+14     	; 0x6072 <__floatsisf+0x12>
    6064:	90 95       	com	r25
    6066:	80 95       	com	r24
    6068:	70 95       	com	r23
    606a:	61 95       	neg	r22
    606c:	7f 4f       	sbci	r23, 0xFF	; 255
    606e:	8f 4f       	sbci	r24, 0xFF	; 255
    6070:	9f 4f       	sbci	r25, 0xFF	; 255
    6072:	99 23       	and	r25, r25
    6074:	a9 f0       	breq	.+42     	; 0x60a0 <__floatsisf+0x40>
    6076:	f9 2f       	mov	r31, r25
    6078:	96 e9       	ldi	r25, 0x96	; 150
    607a:	bb 27       	eor	r27, r27
    607c:	93 95       	inc	r25
    607e:	f6 95       	lsr	r31
    6080:	87 95       	ror	r24
    6082:	77 95       	ror	r23
    6084:	67 95       	ror	r22
    6086:	b7 95       	ror	r27
    6088:	f1 11       	cpse	r31, r1
    608a:	f8 cf       	rjmp	.-16     	; 0x607c <__floatsisf+0x1c>
    608c:	fa f4       	brpl	.+62     	; 0x60cc <__floatsisf+0x6c>
    608e:	bb 0f       	add	r27, r27
    6090:	11 f4       	brne	.+4      	; 0x6096 <__floatsisf+0x36>
    6092:	60 ff       	sbrs	r22, 0
    6094:	1b c0       	rjmp	.+54     	; 0x60cc <__floatsisf+0x6c>
    6096:	6f 5f       	subi	r22, 0xFF	; 255
    6098:	7f 4f       	sbci	r23, 0xFF	; 255
    609a:	8f 4f       	sbci	r24, 0xFF	; 255
    609c:	9f 4f       	sbci	r25, 0xFF	; 255
    609e:	16 c0       	rjmp	.+44     	; 0x60cc <__floatsisf+0x6c>
    60a0:	88 23       	and	r24, r24
    60a2:	11 f0       	breq	.+4      	; 0x60a8 <__floatsisf+0x48>
    60a4:	96 e9       	ldi	r25, 0x96	; 150
    60a6:	11 c0       	rjmp	.+34     	; 0x60ca <__floatsisf+0x6a>
    60a8:	77 23       	and	r23, r23
    60aa:	21 f0       	breq	.+8      	; 0x60b4 <__floatsisf+0x54>
    60ac:	9e e8       	ldi	r25, 0x8E	; 142
    60ae:	87 2f       	mov	r24, r23
    60b0:	76 2f       	mov	r23, r22
    60b2:	05 c0       	rjmp	.+10     	; 0x60be <__floatsisf+0x5e>
    60b4:	66 23       	and	r22, r22
    60b6:	71 f0       	breq	.+28     	; 0x60d4 <__floatsisf+0x74>
    60b8:	96 e8       	ldi	r25, 0x86	; 134
    60ba:	86 2f       	mov	r24, r22
    60bc:	70 e0       	ldi	r23, 0x00	; 0
    60be:	60 e0       	ldi	r22, 0x00	; 0
    60c0:	2a f0       	brmi	.+10     	; 0x60cc <__floatsisf+0x6c>
    60c2:	9a 95       	dec	r25
    60c4:	66 0f       	add	r22, r22
    60c6:	77 1f       	adc	r23, r23
    60c8:	88 1f       	adc	r24, r24
    60ca:	da f7       	brpl	.-10     	; 0x60c2 <__floatsisf+0x62>
    60cc:	88 0f       	add	r24, r24
    60ce:	96 95       	lsr	r25
    60d0:	87 95       	ror	r24
    60d2:	97 f9       	bld	r25, 7
    60d4:	08 95       	ret

Disassembly of section .text:

00006750 <__fp_cmp>:
    6750:	99 0f       	add	r25, r25
    6752:	00 08       	sbc	r0, r0
    6754:	55 0f       	add	r21, r21
    6756:	aa 0b       	sbc	r26, r26
    6758:	e0 e8       	ldi	r30, 0x80	; 128
    675a:	fe ef       	ldi	r31, 0xFE	; 254
    675c:	16 16       	cp	r1, r22
    675e:	17 06       	cpc	r1, r23
    6760:	e8 07       	cpc	r30, r24
    6762:	f9 07       	cpc	r31, r25
    6764:	c0 f0       	brcs	.+48     	; 0x6796 <__fp_cmp+0x46>
    6766:	12 16       	cp	r1, r18
    6768:	13 06       	cpc	r1, r19
    676a:	e4 07       	cpc	r30, r20
    676c:	f5 07       	cpc	r31, r21
    676e:	98 f0       	brcs	.+38     	; 0x6796 <__fp_cmp+0x46>
    6770:	62 1b       	sub	r22, r18
    6772:	73 0b       	sbc	r23, r19
    6774:	84 0b       	sbc	r24, r20
    6776:	95 0b       	sbc	r25, r21
    6778:	39 f4       	brne	.+14     	; 0x6788 <__fp_cmp+0x38>
    677a:	0a 26       	eor	r0, r26
    677c:	61 f0       	breq	.+24     	; 0x6796 <__fp_cmp+0x46>
    677e:	23 2b       	or	r18, r19
    6780:	24 2b       	or	r18, r20
    6782:	25 2b       	or	r18, r21
    6784:	21 f4       	brne	.+8      	; 0x678e <__fp_cmp+0x3e>
    6786:	08 95       	ret
    6788:	0a 26       	eor	r0, r26
    678a:	09 f4       	brne	.+2      	; 0x678e <__fp_cmp+0x3e>
    678c:	a1 40       	sbci	r26, 0x01	; 1
    678e:	a6 95       	lsr	r26
    6790:	8f ef       	ldi	r24, 0xFF	; 255
    6792:	81 1d       	adc	r24, r1
    6794:	81 1d       	adc	r24, r1
    6796:	08 95       	ret

Disassembly of section .text:

000071c8 <__fp_inf>:
    71c8:	97 f9       	bld	r25, 7
    71ca:	9f 67       	ori	r25, 0x7F	; 127
    71cc:	80 e8       	ldi	r24, 0x80	; 128
    71ce:	70 e0       	ldi	r23, 0x00	; 0
    71d0:	60 e0       	ldi	r22, 0x00	; 0
    71d2:	08 95       	ret

Disassembly of section .text:

0000721a <__fp_nan>:
    721a:	9f ef       	ldi	r25, 0xFF	; 255
    721c:	80 ec       	ldi	r24, 0xC0	; 192
    721e:	08 95       	ret

Disassembly of section .text:

0000719e <__fp_pscA>:
    719e:	00 24       	eor	r0, r0
    71a0:	0a 94       	dec	r0
    71a2:	16 16       	cp	r1, r22
    71a4:	17 06       	cpc	r1, r23
    71a6:	18 06       	cpc	r1, r24
    71a8:	09 06       	cpc	r0, r25
    71aa:	08 95       	ret

Disassembly of section .text:

000071ac <__fp_pscB>:
    71ac:	00 24       	eor	r0, r0
    71ae:	0a 94       	dec	r0
    71b0:	12 16       	cp	r1, r18
    71b2:	13 06       	cpc	r1, r19
    71b4:	14 06       	cpc	r1, r20
    71b6:	05 06       	cpc	r0, r21
    71b8:	08 95       	ret

Disassembly of section .text:

00006fac <__fp_round>:
    6fac:	09 2e       	mov	r0, r25
    6fae:	03 94       	inc	r0
    6fb0:	00 0c       	add	r0, r0
    6fb2:	11 f4       	brne	.+4      	; 0x6fb8 <__fp_round+0xc>
    6fb4:	88 23       	and	r24, r24
    6fb6:	52 f0       	brmi	.+20     	; 0x6fcc <__fp_round+0x20>
    6fb8:	bb 0f       	add	r27, r27
    6fba:	40 f4       	brcc	.+16     	; 0x6fcc <__fp_round+0x20>
    6fbc:	bf 2b       	or	r27, r31
    6fbe:	11 f4       	brne	.+4      	; 0x6fc4 <__fp_round+0x18>
    6fc0:	60 ff       	sbrs	r22, 0
    6fc2:	04 c0       	rjmp	.+8      	; 0x6fcc <__fp_round+0x20>
    6fc4:	6f 5f       	subi	r22, 0xFF	; 255
    6fc6:	7f 4f       	sbci	r23, 0xFF	; 255
    6fc8:	8f 4f       	sbci	r24, 0xFF	; 255
    6fca:	9f 4f       	sbci	r25, 0xFF	; 255
    6fcc:	08 95       	ret

Disassembly of section .text:

00006824 <__fp_split3>:
    6824:	57 fd       	sbrc	r21, 7
    6826:	90 58       	subi	r25, 0x80	; 128
    6828:	44 0f       	add	r20, r20
    682a:	55 1f       	adc	r21, r21
    682c:	59 f0       	breq	.+22     	; 0x6844 <__fp_splitA+0x10>
    682e:	5f 3f       	cpi	r21, 0xFF	; 255
    6830:	71 f0       	breq	.+28     	; 0x684e <__fp_splitA+0x1a>
    6832:	47 95       	ror	r20

00006834 <__fp_splitA>:
    6834:	88 0f       	add	r24, r24
    6836:	97 fb       	bst	r25, 7
    6838:	99 1f       	adc	r25, r25
    683a:	61 f0       	breq	.+24     	; 0x6854 <__fp_splitA+0x20>
    683c:	9f 3f       	cpi	r25, 0xFF	; 255
    683e:	79 f0       	breq	.+30     	; 0x685e <__fp_splitA+0x2a>
    6840:	87 95       	ror	r24
    6842:	08 95       	ret
    6844:	12 16       	cp	r1, r18
    6846:	13 06       	cpc	r1, r19
    6848:	14 06       	cpc	r1, r20
    684a:	55 1f       	adc	r21, r21
    684c:	f2 cf       	rjmp	.-28     	; 0x6832 <__fp_split3+0xe>
    684e:	46 95       	lsr	r20
    6850:	f1 df       	rcall	.-30     	; 0x6834 <__fp_splitA>
    6852:	08 c0       	rjmp	.+16     	; 0x6864 <__fp_splitA+0x30>
    6854:	16 16       	cp	r1, r22
    6856:	17 06       	cpc	r1, r23
    6858:	18 06       	cpc	r1, r24
    685a:	99 1f       	adc	r25, r25
    685c:	f1 cf       	rjmp	.-30     	; 0x6840 <__fp_splitA+0xc>
    685e:	86 95       	lsr	r24
    6860:	71 05       	cpc	r23, r1
    6862:	61 05       	cpc	r22, r1
    6864:	08 94       	sec
    6866:	08 95       	ret

Disassembly of section .text:

000071ba <__fp_zero>:
    71ba:	e8 94       	clt

000071bc <__fp_szero>:
    71bc:	bb 27       	eor	r27, r27
    71be:	66 27       	eor	r22, r22
    71c0:	77 27       	eor	r23, r23
    71c2:	cb 01       	movw	r24, r22
    71c4:	97 f9       	bld	r25, 7
    71c6:	08 95       	ret

Disassembly of section .text:

00007200 <__gesf2>:
    7200:	0e 94 a8 33 	call	0x6750	; 0x6750 <__fp_cmp>
    7204:	08 f4       	brcc	.+2      	; 0x7208 <__gesf2+0x8>
    7206:	8f ef       	ldi	r24, 0xFF	; 255
    7208:	08 95       	ret

Disassembly of section .text.libgcc.mul:

00006fce <__mulsi3>:
    6fce:	db 01       	movw	r26, r22
    6fd0:	8f 93       	push	r24
    6fd2:	9f 93       	push	r25
    6fd4:	0e 94 73 38 	call	0x70e6	; 0x70e6 <__muluhisi3>
    6fd8:	bf 91       	pop	r27
    6fda:	af 91       	pop	r26
    6fdc:	a2 9f       	mul	r26, r18
    6fde:	80 0d       	add	r24, r0
    6fe0:	91 1d       	adc	r25, r1
    6fe2:	a3 9f       	mul	r26, r19
    6fe4:	90 0d       	add	r25, r0
    6fe6:	b2 9f       	mul	r27, r18
    6fe8:	90 0d       	add	r25, r0
    6fea:	11 24       	eor	r1, r1
    6fec:	08 95       	ret

Disassembly of section .text.libgcc.div:

00006ec4 <__divmodhi4>:
    6ec4:	97 fb       	bst	r25, 7
    6ec6:	07 2e       	mov	r0, r23
    6ec8:	16 f4       	brtc	.+4      	; 0x6ece <__divmodhi4+0xa>
    6eca:	00 94       	com	r0
    6ecc:	07 d0       	rcall	.+14     	; 0x6edc <__divmodhi4_neg1>
    6ece:	77 fd       	sbrc	r23, 7
    6ed0:	09 d0       	rcall	.+18     	; 0x6ee4 <__divmodhi4_neg2>
    6ed2:	0e 94 76 37 	call	0x6eec	; 0x6eec <__udivmodhi4>
    6ed6:	07 fc       	sbrc	r0, 7
    6ed8:	05 d0       	rcall	.+10     	; 0x6ee4 <__divmodhi4_neg2>
    6eda:	3e f4       	brtc	.+14     	; 0x6eea <__divmodhi4_exit>

00006edc <__divmodhi4_neg1>:
    6edc:	90 95       	com	r25
    6ede:	81 95       	neg	r24
    6ee0:	9f 4f       	sbci	r25, 0xFF	; 255
    6ee2:	08 95       	ret

00006ee4 <__divmodhi4_neg2>:
    6ee4:	70 95       	com	r23
    6ee6:	61 95       	neg	r22
    6ee8:	7f 4f       	sbci	r23, 0xFF	; 255

00006eea <__divmodhi4_exit>:
    6eea:	08 95       	ret

Disassembly of section .text.libgcc.div:

00006d8e <__divmodsi4>:
    6d8e:	05 2e       	mov	r0, r21
    6d90:	97 fb       	bst	r25, 7
    6d92:	1e f4       	brtc	.+6      	; 0x6d9a <__divmodsi4+0xc>
    6d94:	00 94       	com	r0
    6d96:	0e 94 bf 38 	call	0x717e	; 0x717e <__negsi2>
    6d9a:	57 fd       	sbrc	r21, 7
    6d9c:	07 d0       	rcall	.+14     	; 0x6dac <__divmodsi4_neg2>
    6d9e:	0e 94 34 34 	call	0x6868	; 0x6868 <__udivmodsi4>
    6da2:	07 fc       	sbrc	r0, 7
    6da4:	03 d0       	rcall	.+6      	; 0x6dac <__divmodsi4_neg2>
    6da6:	4e f4       	brtc	.+18     	; 0x6dba <__divmodsi4_exit>
    6da8:	0c 94 bf 38 	jmp	0x717e	; 0x717e <__negsi2>

00006dac <__divmodsi4_neg2>:
    6dac:	50 95       	com	r21
    6dae:	40 95       	com	r20
    6db0:	30 95       	com	r19
    6db2:	21 95       	neg	r18
    6db4:	3f 4f       	sbci	r19, 0xFF	; 255
    6db6:	4f 4f       	sbci	r20, 0xFF	; 255
    6db8:	5f 4f       	sbci	r21, 0xFF	; 255

00006dba <__divmodsi4_exit>:
    6dba:	08 95       	ret

Disassembly of section .text.libgcc.div:

0000717e <__negsi2>:
    717e:	90 95       	com	r25
    7180:	80 95       	com	r24
    7182:	70 95       	com	r23
    7184:	61 95       	neg	r22
    7186:	7f 4f       	sbci	r23, 0xFF	; 255
    7188:	8f 4f       	sbci	r24, 0xFF	; 255
    718a:	9f 4f       	sbci	r25, 0xFF	; 255
    718c:	08 95       	ret

Disassembly of section .text.libgcc.mul:

000070e6 <__muluhisi3>:
    70e6:	0e 94 16 38 	call	0x702c	; 0x702c <__umulhisi3>
    70ea:	a5 9f       	mul	r26, r21
    70ec:	90 0d       	add	r25, r0
    70ee:	b4 9f       	mul	r27, r20
    70f0:	90 0d       	add	r25, r0
    70f2:	a4 9f       	mul	r26, r20
    70f4:	80 0d       	add	r24, r0
    70f6:	91 1d       	adc	r25, r1
    70f8:	11 24       	eor	r1, r1
    70fa:	08 95       	ret

Disassembly of section .text.libgcc:

00007082 <__movmemx_qi>:
    7082:	99 27       	eor	r25, r25

00007084 <__movmemx_hi>:
    7084:	77 fd       	sbrc	r23, 7
    7086:	05 c0       	rjmp	.+10     	; 0x7092 <__movmemx_hi+0xe>
    7088:	05 90       	lpm	r0, Z+
    708a:	0d 92       	st	X+, r0
    708c:	01 97       	sbiw	r24, 0x01	; 1
    708e:	e1 f7       	brne	.-8      	; 0x7088 <__movmemx_hi+0x4>
    7090:	08 95       	ret
    7092:	01 90       	ld	r0, Z+
    7094:	0d 92       	st	X+, r0
    7096:	01 97       	sbiw	r24, 0x01	; 1
    7098:	e1 f7       	brne	.-8      	; 0x7092 <__movmemx_hi+0xe>
    709a:	08 95       	ret

Disassembly of section .text.libgcc.div:

00006eec <__udivmodhi4>:
    6eec:	aa 1b       	sub	r26, r26
    6eee:	bb 1b       	sub	r27, r27
    6ef0:	51 e1       	ldi	r21, 0x11	; 17
    6ef2:	07 c0       	rjmp	.+14     	; 0x6f02 <__udivmodhi4_ep>

00006ef4 <__udivmodhi4_loop>:
    6ef4:	aa 1f       	adc	r26, r26
    6ef6:	bb 1f       	adc	r27, r27
    6ef8:	a6 17       	cp	r26, r22
    6efa:	b7 07       	cpc	r27, r23
    6efc:	10 f0       	brcs	.+4      	; 0x6f02 <__udivmodhi4_ep>
    6efe:	a6 1b       	sub	r26, r22
    6f00:	b7 0b       	sbc	r27, r23

00006f02 <__udivmodhi4_ep>:
    6f02:	88 1f       	adc	r24, r24
    6f04:	99 1f       	adc	r25, r25
    6f06:	5a 95       	dec	r21
    6f08:	a9 f7       	brne	.-22     	; 0x6ef4 <__udivmodhi4_loop>
    6f0a:	80 95       	com	r24
    6f0c:	90 95       	com	r25
    6f0e:	bc 01       	movw	r22, r24
    6f10:	cd 01       	movw	r24, r26
    6f12:	08 95       	ret

Disassembly of section .text.libgcc.div:

00006868 <__udivmodsi4>:
    6868:	a1 e2       	ldi	r26, 0x21	; 33
    686a:	1a 2e       	mov	r1, r26
    686c:	aa 1b       	sub	r26, r26
    686e:	bb 1b       	sub	r27, r27
    6870:	fd 01       	movw	r30, r26
    6872:	0d c0       	rjmp	.+26     	; 0x688e <__udivmodsi4_ep>

00006874 <__udivmodsi4_loop>:
    6874:	aa 1f       	adc	r26, r26
    6876:	bb 1f       	adc	r27, r27
    6878:	ee 1f       	adc	r30, r30
    687a:	ff 1f       	adc	r31, r31
    687c:	a2 17       	cp	r26, r18
    687e:	b3 07       	cpc	r27, r19
    6880:	e4 07       	cpc	r30, r20
    6882:	f5 07       	cpc	r31, r21
    6884:	20 f0       	brcs	.+8      	; 0x688e <__udivmodsi4_ep>
    6886:	a2 1b       	sub	r26, r18
    6888:	b3 0b       	sbc	r27, r19
    688a:	e4 0b       	sbc	r30, r20
    688c:	f5 0b       	sbc	r31, r21

0000688e <__udivmodsi4_ep>:
    688e:	66 1f       	adc	r22, r22
    6890:	77 1f       	adc	r23, r23
    6892:	88 1f       	adc	r24, r24
    6894:	99 1f       	adc	r25, r25
    6896:	1a 94       	dec	r1
    6898:	69 f7       	brne	.-38     	; 0x6874 <__udivmodsi4_loop>
    689a:	60 95       	com	r22
    689c:	70 95       	com	r23
    689e:	80 95       	com	r24
    68a0:	90 95       	com	r25
    68a2:	9b 01       	movw	r18, r22
    68a4:	ac 01       	movw	r20, r24
    68a6:	bd 01       	movw	r22, r26
    68a8:	cf 01       	movw	r24, r30
    68aa:	08 95       	ret

Disassembly of section .text.libgcc.mul:

0000702c <__umulhisi3>:
    702c:	a2 9f       	mul	r26, r18
    702e:	b0 01       	movw	r22, r0
    7030:	b3 9f       	mul	r27, r19
    7032:	c0 01       	movw	r24, r0
    7034:	a3 9f       	mul	r26, r19
    7036:	70 0d       	add	r23, r0
    7038:	81 1d       	adc	r24, r1
    703a:	11 24       	eor	r1, r1
    703c:	91 1d       	adc	r25, r1
    703e:	b2 9f       	mul	r27, r18
    7040:	70 0d       	add	r23, r0
    7042:	81 1d       	adc	r24, r1
    7044:	11 24       	eor	r1, r1
    7046:	91 1d       	adc	r25, r1
    7048:	08 95       	ret

Disassembly of section .text.__dummy_fini:

00007234 <_fini>:
    7234:	08 95       	ret

Disassembly of section .text.__dummy_funcs_on_exit:

00007236 <__funcs_on_exit>:
    7236:	08 95       	ret

Disassembly of section .text.__dummy_simulator_exit:

00007238 <__simulator_exit>:
    7238:	08 95       	ret

Disassembly of section .text.exit:

000070fc <exit>:
    70fc:	ec 01       	movw	r28, r24
    70fe:	0e 94 1b 39 	call	0x7236	; 0x7236 <__funcs_on_exit>
    7102:	0e 94 1a 39 	call	0x7234	; 0x7234 <_fini>
    7106:	ce 01       	movw	r24, r28
    7108:	0e 94 1c 39 	call	0x7238	; 0x7238 <__simulator_exit>
    710c:	ce 01       	movw	r24, r28
    710e:	0e 94 18 39 	call	0x7230	; 0x7230 <_Exit>

Disassembly of section .text.__wrap_sprintf:

00006f64 <_sprintf_cdnopuxX>:
    6f64:	a0 e0       	ldi	r26, 0x00	; 0
    6f66:	b0 e0       	ldi	r27, 0x00	; 0
    6f68:	e8 eb       	ldi	r30, 0xB8	; 184
    6f6a:	f7 e3       	ldi	r31, 0x37	; 55
    6f6c:	0c 94 00 35 	jmp	0x6a00	; 0x6a00 <__prologue_saves__+0x20>
    6f70:	9e 01       	movw	r18, r28
    6f72:	26 5f       	subi	r18, 0xF6	; 246
    6f74:	3f 4f       	sbci	r19, 0xFF	; 255
    6f76:	4f 81       	ldd	r20, Y+7	; 0x07
    6f78:	58 85       	ldd	r21, Y+8	; 0x08
    6f7a:	69 85       	ldd	r22, Y+9	; 0x09
    6f7c:	8d 81       	ldd	r24, Y+5	; 0x05
    6f7e:	9e 81       	ldd	r25, Y+6	; 0x06
    6f80:	0e 94 5b 38 	call	0x70b6	; 0x70b6 <__vsprintf>
    6f84:	e2 e0       	ldi	r30, 0x02	; 2
    6f86:	0c 94 2a 36 	jmp	0x6c54	; 0x6c54 <__epilogue_restores__+0x20>

Disassembly of section .text.__wrap_sscanf:

00006798 <_sscanf_cdnopuxX>:
    6798:	a1 e1       	ldi	r26, 0x11	; 17
    679a:	b0 e0       	ldi	r27, 0x00	; 0
    679c:	e2 ed       	ldi	r30, 0xD2	; 210
    679e:	f3 e3       	ldi	r31, 0x33	; 51
    67a0:	0c 94 00 35 	jmp	0x6a00	; 0x6a00 <__prologue_saves__+0x20>
    67a4:	ce 01       	movw	r24, r28
    67a6:	01 96       	adiw	r24, 0x01	; 1
    67a8:	21 e1       	ldi	r18, 0x11	; 17
    67aa:	fc 01       	movw	r30, r24
    67ac:	11 92       	st	Z+, r1
    67ae:	2a 95       	dec	r18
    67b0:	e9 f7       	brne	.-6      	; 0x67ac <_sscanf_cdnopuxX+0x14>
    67b2:	22 e0       	ldi	r18, 0x02	; 2
    67b4:	31 e0       	ldi	r19, 0x01	; 1
    67b6:	3a 83       	std	Y+2, r19	; 0x02
    67b8:	29 83       	std	Y+1, r18	; 0x01
    67ba:	2e 89       	ldd	r18, Y+22	; 0x16
    67bc:	3f 89       	ldd	r19, Y+23	; 0x17
    67be:	48 8d       	ldd	r20, Y+24	; 0x18
    67c0:	2b 83       	std	Y+3, r18	; 0x03
    67c2:	3c 83       	std	Y+4, r19	; 0x04
    67c4:	4d 83       	std	Y+5, r20	; 0x05
    67c6:	9e 01       	movw	r18, r28
    67c8:	24 5e       	subi	r18, 0xE4	; 228
    67ca:	3f 4f       	sbci	r19, 0xFF	; 255
    67cc:	49 8d       	ldd	r20, Y+25	; 0x19
    67ce:	5a 8d       	ldd	r21, Y+26	; 0x1a
    67d0:	6b 8d       	ldd	r22, Y+27	; 0x1b
    67d2:	0e 94 80 36 	call	0x6d00	; 0x6d00 <__vfscanf>
    67d6:	61 96       	adiw	r28, 0x11	; 17
    67d8:	e2 e0       	ldi	r30, 0x02	; 2
    67da:	0c 94 2a 36 	jmp	0x6c54	; 0x6c54 <__epilogue_restores__+0x20>

Disassembly of section .text.__fmt_s:

0000566e <__fmt_s>:
    566e:	2f 92       	push	r2
    5670:	3f 92       	push	r3
    5672:	4f 92       	push	r4
    5674:	6f 92       	push	r6
    5676:	7f 92       	push	r7
    5678:	8f 92       	push	r8
    567a:	af 92       	push	r10
    567c:	bf 92       	push	r11
    567e:	cf 92       	push	r12
    5680:	df 92       	push	r13
    5682:	ef 92       	push	r14
    5684:	ff 92       	push	r15
    5686:	0f 93       	push	r16
    5688:	1f 93       	push	r17
    568a:	cf 93       	push	r28
    568c:	df 93       	push	r29
    568e:	cd b7       	in	r28, 0x3d	; 61
    5690:	de b7       	in	r29, 0x3e	; 62
    5692:	27 97       	sbiw	r28, 0x07	; 7
    5694:	0f b6       	in	r0, 0x3f	; 63
    5696:	f8 94       	cli
    5698:	de bf       	out	0x3e, r29	; 62
    569a:	0f be       	out	0x3f, r0	; 63
    569c:	cd bf       	out	0x3d, r28	; 61
    569e:	6c 01       	movw	r12, r24
    56a0:	7b 01       	movw	r14, r22
    56a2:	39 01       	movw	r6, r18
    56a4:	84 2e       	mov	r8, r20
    56a6:	98 01       	movw	r18, r16
    56a8:	84 e7       	ldi	r24, 0x74	; 116
    56aa:	28 2e       	mov	r2, r24
    56ac:	86 e0       	ldi	r24, 0x06	; 6
    56ae:	38 2e       	mov	r3, r24
    56b0:	80 e0       	ldi	r24, 0x00	; 0
    56b2:	48 2e       	mov	r4, r24
    56b4:	87 e0       	ldi	r24, 0x07	; 7
    56b6:	f1 01       	movw	r30, r2
    56b8:	ae 01       	movw	r20, r28
    56ba:	4f 5f       	subi	r20, 0xFF	; 255
    56bc:	5f 4f       	sbci	r21, 0xFF	; 255
    56be:	da 01       	movw	r26, r20
    56c0:	74 2d       	mov	r23, r4
    56c2:	0e 94 41 38 	call	0x7082	; 0x7082 <__movmemx_qi>
    56c6:	f7 01       	movw	r30, r14
    56c8:	02 81       	ldd	r16, Z+2	; 0x02
    56ca:	13 81       	ldd	r17, Z+3	; 0x03
    56cc:	a4 80       	ldd	r10, Z+4	; 0x04
    56ce:	b5 80       	ldd	r11, Z+5	; 0x05
    56d0:	e0 80       	ld	r14, Z
    56d2:	f1 80       	ldd	r15, Z+1	; 0x01
    56d4:	61 14       	cp	r6, r1
    56d6:	71 04       	cpc	r7, r1
    56d8:	81 04       	cpc	r8, r1
    56da:	19 f4       	brne	.+6      	; 0x56e2 <__fmt_s+0x74>
    56dc:	3a 01       	movw	r6, r20
    56de:	f0 e8       	ldi	r31, 0x80	; 128
    56e0:	8f 2e       	mov	r8, r31
    56e2:	21 15       	cp	r18, r1
    56e4:	31 05       	cpc	r19, r1
    56e6:	29 f4       	brne	.+10     	; 0x56f2 <__fmt_s+0x84>
    56e8:	88 2d       	mov	r24, r8
    56ea:	b3 01       	movw	r22, r6
    56ec:	0e 94 4c 37 	call	0x6e98	; 0x6e98 <strlen>
    56f0:	9c 01       	movw	r18, r24
    56f2:	17 fd       	sbrc	r17, 7
    56f4:	04 c0       	rjmp	.+8      	; 0x56fe <__fmt_s+0x90>
    56f6:	02 17       	cp	r16, r18
    56f8:	13 07       	cpc	r17, r19
    56fa:	08 f4       	brcc	.+2      	; 0x56fe <__fmt_s+0x90>
    56fc:	98 01       	movw	r18, r16
    56fe:	85 01       	movw	r16, r10
    5700:	68 2d       	mov	r22, r8
    5702:	a3 01       	movw	r20, r6
    5704:	c6 01       	movw	r24, r12
    5706:	0e 94 ab 27 	call	0x4f56	; 0x4f56 <__pad>
    570a:	27 96       	adiw	r28, 0x07	; 7
    570c:	0f b6       	in	r0, 0x3f	; 63
    570e:	f8 94       	cli
    5710:	de bf       	out	0x3e, r29	; 62
    5712:	0f be       	out	0x3f, r0	; 63
    5714:	cd bf       	out	0x3d, r28	; 61
    5716:	df 91       	pop	r29
    5718:	cf 91       	pop	r28
    571a:	1f 91       	pop	r17
    571c:	0f 91       	pop	r16
    571e:	ff 90       	pop	r15
    5720:	ef 90       	pop	r14
    5722:	df 90       	pop	r13
    5724:	cf 90       	pop	r12
    5726:	bf 90       	pop	r11
    5728:	af 90       	pop	r10
    572a:	8f 90       	pop	r8
    572c:	7f 90       	pop	r7
    572e:	6f 90       	pop	r6
    5730:	4f 90       	pop	r4
    5732:	3f 90       	pop	r3
    5734:	2f 90       	pop	r2
    5736:	08 95       	ret

Disassembly of section .text.__out:

00006446 <__out>:
    6446:	6f 92       	push	r6
    6448:	7f 92       	push	r7
    644a:	8f 92       	push	r8
    644c:	cf 92       	push	r12
    644e:	df 92       	push	r13
    6450:	ef 92       	push	r14
    6452:	0f 93       	push	r16
    6454:	1f 93       	push	r17
    6456:	cf 93       	push	r28
    6458:	df 93       	push	r29
    645a:	8c 01       	movw	r16, r24
    645c:	6a 01       	movw	r12, r20
    645e:	e6 2e       	mov	r14, r22
    6460:	e9 01       	movw	r28, r18
    6462:	3a 01       	movw	r6, r20
    6464:	86 2e       	mov	r8, r22
    6466:	62 0e       	add	r6, r18
    6468:	73 1e       	adc	r7, r19
    646a:	81 1c       	adc	r8, r1
    646c:	37 fd       	sbrc	r19, 7
    646e:	8a 94       	dec	r8
    6470:	c6 14       	cp	r12, r6
    6472:	d7 04       	cpc	r13, r7
    6474:	e8 04       	cpc	r14, r8
    6476:	79 f0       	breq	.+30     	; 0x6496 <__out+0x50>
    6478:	f6 01       	movw	r30, r12
    647a:	84 91       	lpm	r24, Z
    647c:	e7 fc       	sbrc	r14, 7
    647e:	80 81       	ld	r24, Z
    6480:	b8 01       	movw	r22, r16
    6482:	08 2e       	mov	r0, r24
    6484:	00 0c       	add	r0, r0
    6486:	99 0b       	sbc	r25, r25
    6488:	0e 94 1d 2f 	call	0x5e3a	; 0x5e3a <fputc>
    648c:	8f ef       	ldi	r24, 0xFF	; 255
    648e:	c8 1a       	sub	r12, r24
    6490:	d8 0a       	sbc	r13, r24
    6492:	e8 0a       	sbc	r14, r24
    6494:	ed cf       	rjmp	.-38     	; 0x6470 <__out+0x2a>
    6496:	ce 01       	movw	r24, r28
    6498:	df 91       	pop	r29
    649a:	cf 91       	pop	r28
    649c:	1f 91       	pop	r17
    649e:	0f 91       	pop	r16
    64a0:	ef 90       	pop	r14
    64a2:	df 90       	pop	r13
    64a4:	cf 90       	pop	r12
    64a6:	8f 90       	pop	r8
    64a8:	7f 90       	pop	r7
    64aa:	6f 90       	pop	r6
    64ac:	08 95       	ret

Disassembly of section .text.__pad:

00004f56 <__pad>:
    4f56:	2f 92       	push	r2
    4f58:	3f 92       	push	r3
    4f5a:	4f 92       	push	r4
    4f5c:	6f 92       	push	r6
    4f5e:	7f 92       	push	r7
    4f60:	8f 92       	push	r8
    4f62:	af 92       	push	r10
    4f64:	bf 92       	push	r11
    4f66:	cf 92       	push	r12
    4f68:	df 92       	push	r13
    4f6a:	ef 92       	push	r14
    4f6c:	ff 92       	push	r15
    4f6e:	0f 93       	push	r16
    4f70:	1f 93       	push	r17
    4f72:	cf 93       	push	r28
    4f74:	df 93       	push	r29
    4f76:	cd b7       	in	r28, 0x3d	; 61
    4f78:	de b7       	in	r29, 0x3e	; 62
    4f7a:	66 97       	sbiw	r28, 0x16	; 22
    4f7c:	0f b6       	in	r0, 0x3f	; 63
    4f7e:	f8 94       	cli
    4f80:	de bf       	out	0x3e, r29	; 62
    4f82:	0f be       	out	0x3f, r0	; 63
    4f84:	cd bf       	out	0x3d, r28	; 61
    4f86:	5c 01       	movw	r10, r24
    4f88:	3a 01       	movw	r6, r20
    4f8a:	86 2e       	mov	r8, r22
    4f8c:	69 01       	movw	r12, r18
    4f8e:	c7 01       	movw	r24, r14
    4f90:	81 70       	andi	r24, 0x01	; 1
    4f92:	99 27       	eor	r25, r25
    4f94:	9c 8b       	std	Y+20, r25	; 0x14
    4f96:	8b 8b       	std	Y+19, r24	; 0x13
    4f98:	e0 fc       	sbrc	r14, 0
    4f9a:	1d c0       	rjmp	.+58     	; 0x4fd6 <__pad+0x80>
    4f9c:	20 17       	cp	r18, r16
    4f9e:	31 07       	cpc	r19, r17
    4fa0:	d4 f4       	brge	.+52     	; 0x4fd6 <__pad+0x80>
    4fa2:	78 01       	movw	r14, r16
    4fa4:	ec 18       	sub	r14, r12
    4fa6:	fd 08       	sbc	r15, r13
    4fa8:	fe 8a       	std	Y+22, r15	; 0x16
    4faa:	ed 8a       	std	Y+21, r14	; 0x15
    4fac:	a7 01       	movw	r20, r14
    4fae:	91 e1       	ldi	r25, 0x11	; 17
    4fb0:	e9 16       	cp	r14, r25
    4fb2:	f1 04       	cpc	r15, r1
    4fb4:	10 f0       	brcs	.+4      	; 0x4fba <__pad+0x64>
    4fb6:	40 e1       	ldi	r20, 0x10	; 16
    4fb8:	50 e0       	ldi	r21, 0x00	; 0
    4fba:	60 e2       	ldi	r22, 0x20	; 32
    4fbc:	70 e0       	ldi	r23, 0x00	; 0
    4fbe:	ce 01       	movw	r24, r28
    4fc0:	01 96       	adiw	r24, 0x01	; 1
    4fc2:	9a 8b       	std	Y+18, r25	; 0x12
    4fc4:	89 8b       	std	Y+17, r24	; 0x11
    4fc6:	0e 94 89 38 	call	0x7112	; 0x7112 <memset>
    4fca:	89 89       	ldd	r24, Y+17	; 0x11
    4fcc:	9a 89       	ldd	r25, Y+18	; 0x12
    4fce:	1c 01       	movw	r2, r24
    4fd0:	20 e8       	ldi	r18, 0x80	; 128
    4fd2:	42 2e       	mov	r4, r18
    4fd4:	0b c0       	rjmp	.+22     	; 0x4fec <__pad+0x96>
    4fd6:	96 01       	movw	r18, r12
    4fd8:	68 2d       	mov	r22, r8
    4fda:	a3 01       	movw	r20, r6
    4fdc:	c5 01       	movw	r24, r10
    4fde:	0e 94 23 32 	call	0x6446	; 0x6446 <__out>
    4fe2:	c0 16       	cp	r12, r16
    4fe4:	d1 06       	cpc	r13, r17
    4fe6:	ec f2       	brlt	.-70     	; 0x4fa2 <__pad+0x4c>
    4fe8:	c6 01       	movw	r24, r12
    4fea:	25 c0       	rjmp	.+74     	; 0x5036 <__pad+0xe0>
    4fec:	90 e1       	ldi	r25, 0x10	; 16
    4fee:	e9 16       	cp	r14, r25
    4ff0:	f1 04       	cpc	r15, r1
    4ff2:	58 f0       	brcs	.+22     	; 0x500a <__pad+0xb4>
    4ff4:	20 e1       	ldi	r18, 0x10	; 16
    4ff6:	30 e0       	ldi	r19, 0x00	; 0
    4ff8:	64 2d       	mov	r22, r4
    4ffa:	a1 01       	movw	r20, r2
    4ffc:	c5 01       	movw	r24, r10
    4ffe:	0e 94 23 32 	call	0x6446	; 0x6446 <__out>
    5002:	80 e1       	ldi	r24, 0x10	; 16
    5004:	e8 1a       	sub	r14, r24
    5006:	f1 08       	sbc	r15, r1
    5008:	f1 cf       	rjmp	.-30     	; 0x4fec <__pad+0x96>
    500a:	2d 89       	ldd	r18, Y+21	; 0x15
    500c:	3e 89       	ldd	r19, Y+22	; 0x16
    500e:	2f 70       	andi	r18, 0x0F	; 15
    5010:	33 27       	eor	r19, r19
    5012:	89 89       	ldd	r24, Y+17	; 0x11
    5014:	9a 89       	ldd	r25, Y+18	; 0x12
    5016:	ac 01       	movw	r20, r24
    5018:	60 e8       	ldi	r22, 0x80	; 128
    501a:	c5 01       	movw	r24, r10
    501c:	0e 94 23 32 	call	0x6446	; 0x6446 <__out>
    5020:	8b 89       	ldd	r24, Y+19	; 0x13
    5022:	9c 89       	ldd	r25, Y+20	; 0x14
    5024:	89 2b       	or	r24, r25
    5026:	31 f4       	brne	.+12     	; 0x5034 <__pad+0xde>
    5028:	96 01       	movw	r18, r12
    502a:	68 2d       	mov	r22, r8
    502c:	a3 01       	movw	r20, r6
    502e:	c5 01       	movw	r24, r10
    5030:	0e 94 23 32 	call	0x6446	; 0x6446 <__out>
    5034:	c8 01       	movw	r24, r16
    5036:	66 96       	adiw	r28, 0x16	; 22
    5038:	0f b6       	in	r0, 0x3f	; 63
    503a:	f8 94       	cli
    503c:	de bf       	out	0x3e, r29	; 62
    503e:	0f be       	out	0x3f, r0	; 63
    5040:	cd bf       	out	0x3d, r28	; 61
    5042:	df 91       	pop	r29
    5044:	cf 91       	pop	r28
    5046:	1f 91       	pop	r17
    5048:	0f 91       	pop	r16
    504a:	ff 90       	pop	r15
    504c:	ef 90       	pop	r14
    504e:	df 90       	pop	r13
    5050:	cf 90       	pop	r12
    5052:	bf 90       	pop	r11
    5054:	af 90       	pop	r10
    5056:	8f 90       	pop	r8
    5058:	7f 90       	pop	r7
    505a:	6f 90       	pop	r6
    505c:	4f 90       	pop	r4
    505e:	3f 90       	pop	r3
    5060:	2f 90       	pop	r2
    5062:	08 95       	ret

Disassembly of section .text.__dummy_fmt4:

00007220 <__fmt_a>:
    7220:	80 e0       	ldi	r24, 0x00	; 0
    7222:	90 e0       	ldi	r25, 0x00	; 0
    7224:	08 95       	ret

Disassembly of section .text.__fmt_state:

00005bc8 <__fmt_state>:
    5bc8:	cf 92       	push	r12
    5bca:	df 92       	push	r13
    5bcc:	ef 92       	push	r14
    5bce:	dc 01       	movw	r26, r24
    5bd0:	90 e0       	ldi	r25, 0x00	; 0
    5bd2:	29 2f       	mov	r18, r25
    5bd4:	30 e0       	ldi	r19, 0x00	; 0
    5bd6:	22 0f       	add	r18, r18
    5bd8:	33 1f       	adc	r19, r19
    5bda:	69 01       	movw	r12, r18
    5bdc:	03 2e       	mov	r0, r19
    5bde:	00 0c       	add	r0, r0
    5be0:	ee 08       	sbc	r14, r14
    5be2:	6e 2d       	mov	r22, r14
    5be4:	a6 01       	movw	r20, r12
    5be6:	42 5a       	subi	r20, 0xA2	; 162
    5be8:	59 4f       	sbci	r21, 0xF9	; 249
    5bea:	6f 4f       	sbci	r22, 0xFF	; 255
    5bec:	6a 01       	movw	r12, r20
    5bee:	e6 2e       	mov	r14, r22
    5bf0:	fa 01       	movw	r30, r20
    5bf2:	84 91       	lpm	r24, Z
    5bf4:	e7 fc       	sbrc	r14, 7
    5bf6:	80 81       	ld	r24, Z
    5bf8:	81 11       	cpse	r24, r1
    5bfa:	0d c0       	rjmp	.+26     	; 0x5c16 <__fmt_state+0x4e>
    5bfc:	2f 5f       	subi	r18, 0xFF	; 255
    5bfe:	3f 4f       	sbci	r19, 0xFF	; 255
    5c00:	03 2e       	mov	r0, r19
    5c02:	00 0c       	add	r0, r0
    5c04:	44 0b       	sbc	r20, r20
    5c06:	22 5a       	subi	r18, 0xA2	; 162
    5c08:	39 4f       	sbci	r19, 0xF9	; 249
    5c0a:	4f 4f       	sbci	r20, 0xFF	; 255
    5c0c:	f9 01       	movw	r30, r18
    5c0e:	84 91       	lpm	r24, Z
    5c10:	47 fd       	sbrc	r20, 7
    5c12:	80 81       	ld	r24, Z
    5c14:	24 c0       	rjmp	.+72     	; 0x5c5e <__fmt_state+0x96>
    5c16:	cd 90       	ld	r12, X+
    5c18:	dd 90       	ld	r13, X+
    5c1a:	ec 90       	ld	r14, X
    5c1c:	12 97       	sbiw	r26, 0x02	; 2
    5c1e:	f6 01       	movw	r30, r12
    5c20:	44 91       	lpm	r20, Z
    5c22:	e7 fc       	sbrc	r14, 7
    5c24:	40 81       	ld	r20, Z
    5c26:	84 13       	cpse	r24, r20
    5c28:	15 c0       	rjmp	.+42     	; 0x5c54 <__fmt_state+0x8c>
    5c2a:	2f 5f       	subi	r18, 0xFF	; 255
    5c2c:	3f 4f       	sbci	r19, 0xFF	; 255
    5c2e:	03 2e       	mov	r0, r19
    5c30:	00 0c       	add	r0, r0
    5c32:	44 0b       	sbc	r20, r20
    5c34:	22 5a       	subi	r18, 0xA2	; 162
    5c36:	39 4f       	sbci	r19, 0xF9	; 249
    5c38:	4f 4f       	sbci	r20, 0xFF	; 255
    5c3a:	f9 01       	movw	r30, r18
    5c3c:	94 91       	lpm	r25, Z
    5c3e:	47 fd       	sbrc	r20, 7
    5c40:	90 81       	ld	r25, Z
    5c42:	5f ef       	ldi	r21, 0xFF	; 255
    5c44:	c5 1a       	sub	r12, r21
    5c46:	d5 0a       	sbc	r13, r21
    5c48:	e5 0a       	sbc	r14, r21
    5c4a:	cd 92       	st	X+, r12
    5c4c:	dd 92       	st	X+, r13
    5c4e:	ec 92       	st	X, r14
    5c50:	12 97       	sbiw	r26, 0x02	; 2
    5c52:	01 c0       	rjmp	.+2      	; 0x5c56 <__fmt_state+0x8e>
    5c54:	9f 5f       	subi	r25, 0xFF	; 255
    5c56:	9b 30       	cpi	r25, 0x0B	; 11
    5c58:	08 f4       	brcc	.+2      	; 0x5c5c <__fmt_state+0x94>
    5c5a:	bb cf       	rjmp	.-138    	; 0x5bd2 <__fmt_state+0xa>
    5c5c:	89 2f       	mov	r24, r25
    5c5e:	ef 90       	pop	r14
    5c60:	df 90       	pop	r13
    5c62:	cf 90       	pop	r12
    5c64:	08 95       	ret

Disassembly of section .text.__printf_core:

000027a2 <__printf_core>:
    27a2:	a3 ea       	ldi	r26, 0xA3	; 163
    27a4:	b0 e0       	ldi	r27, 0x00	; 0
    27a6:	e7 ed       	ldi	r30, 0xD7	; 215
    27a8:	f3 e1       	ldi	r31, 0x13	; 19
    27aa:	0c 94 f0 34 	jmp	0x69e0	; 0x69e0 <__prologue_saves__>
    27ae:	4c 01       	movw	r8, r24
    27b0:	59 01       	movw	r10, r18
    27b2:	c7 56       	subi	r28, 0x67	; 103
    27b4:	df 4f       	sbci	r29, 0xFF	; 255
    27b6:	48 83       	st	Y, r20
    27b8:	59 83       	std	Y+1, r21	; 0x01
    27ba:	6a 83       	std	Y+2, r22	; 0x02
    27bc:	c9 59       	subi	r28, 0x99	; 153
    27be:	d0 40       	sbci	r29, 0x00	; 0
    27c0:	21 2c       	mov	r2, r1
    27c2:	31 2c       	mov	r3, r1
    27c4:	6e 01       	movw	r12, r28
    27c6:	2b e8       	ldi	r18, 0x8B	; 139
    27c8:	c2 0e       	add	r12, r18
    27ca:	d1 1c       	adc	r13, r1
    27cc:	85 e2       	ldi	r24, 0x25	; 37
    27ce:	78 2e       	mov	r7, r24
    27d0:	26 01       	movw	r4, r12
    27d2:	30 e8       	ldi	r19, 0x80	; 128
    27d4:	63 2e       	mov	r6, r19
    27d6:	ce 01       	movw	r24, r28
    27d8:	8d 56       	subi	r24, 0x6D	; 109
    27da:	9f 4f       	sbci	r25, 0xFF	; 255
    27dc:	c4 56       	subi	r28, 0x64	; 100
    27de:	df 4f       	sbci	r29, 0xFF	; 255
    27e0:	99 83       	std	Y+1, r25	; 0x01
    27e2:	88 83       	st	Y, r24
    27e4:	cc 59       	subi	r28, 0x9C	; 156
    27e6:	d0 40       	sbci	r29, 0x00	; 0
    27e8:	9c 01       	movw	r18, r24
    27ea:	40 e8       	ldi	r20, 0x80	; 128
    27ec:	cf 55       	subi	r28, 0x5F	; 95
    27ee:	df 4f       	sbci	r29, 0xFF	; 255
    27f0:	28 83       	st	Y, r18
    27f2:	39 83       	std	Y+1, r19	; 0x01
    27f4:	4a 83       	std	Y+2, r20	; 0x02
    27f6:	c1 5a       	subi	r28, 0xA1	; 161
    27f8:	d0 40       	sbci	r29, 0x00	; 0
    27fa:	c7 56       	subi	r28, 0x67	; 103
    27fc:	df 4f       	sbci	r29, 0xFF	; 255
    27fe:	48 81       	ld	r20, Y
    2800:	c9 59       	subi	r28, 0x99	; 153
    2802:	d0 40       	sbci	r29, 0x00	; 0
    2804:	c6 56       	subi	r28, 0x66	; 102
    2806:	df 4f       	sbci	r29, 0xFF	; 255
    2808:	58 81       	ld	r21, Y
    280a:	ca 59       	subi	r28, 0x9A	; 154
    280c:	d0 40       	sbci	r29, 0x00	; 0
    280e:	c5 56       	subi	r28, 0x65	; 101
    2810:	df 4f       	sbci	r29, 0xFF	; 255
    2812:	68 81       	ld	r22, Y
    2814:	cb 59       	subi	r28, 0x9B	; 155
    2816:	d0 40       	sbci	r29, 0x00	; 0
    2818:	fa 01       	movw	r30, r20
    281a:	84 91       	lpm	r24, Z
    281c:	67 fd       	sbrc	r22, 7
    281e:	80 81       	ld	r24, Z
    2820:	88 23       	and	r24, r24
    2822:	09 f4       	brne	.+2      	; 0x2826 <__printf_core+0x84>
    2824:	c9 c3       	rjmp	.+1938   	; 0x2fb8 <__printf_core+0x816>
    2826:	cf 57       	subi	r28, 0x7F	; 127
    2828:	df 4f       	sbci	r29, 0xFF	; 255
    282a:	19 82       	std	Y+1, r1	; 0x01
    282c:	18 82       	st	Y, r1
    282e:	c1 58       	subi	r28, 0x81	; 129
    2830:	d0 40       	sbci	r29, 0x00	; 0
    2832:	8f ef       	ldi	r24, 0xFF	; 255
    2834:	9f ef       	ldi	r25, 0xFF	; 255
    2836:	cd 57       	subi	r28, 0x7D	; 125
    2838:	df 4f       	sbci	r29, 0xFF	; 255
    283a:	99 83       	std	Y+1, r25	; 0x01
    283c:	88 83       	st	Y, r24
    283e:	c3 58       	subi	r28, 0x83	; 131
    2840:	d0 40       	sbci	r29, 0x00	; 0
    2842:	cb 57       	subi	r28, 0x7B	; 123
    2844:	df 4f       	sbci	r29, 0xFF	; 255
    2846:	19 82       	std	Y+1, r1	; 0x01
    2848:	18 82       	st	Y, r1
    284a:	c5 58       	subi	r28, 0x85	; 133
    284c:	d0 40       	sbci	r29, 0x00	; 0
    284e:	a1 e0       	ldi	r26, 0x01	; 1
    2850:	b0 e0       	ldi	r27, 0x00	; 0
    2852:	ac 0f       	add	r26, r28
    2854:	bd 1f       	adc	r27, r29
    2856:	c9 57       	subi	r28, 0x79	; 121
    2858:	df 4f       	sbci	r29, 0xFF	; 255
    285a:	b9 83       	std	Y+1, r27	; 0x01
    285c:	a8 83       	st	Y, r26
    285e:	c7 58       	subi	r28, 0x87	; 135
    2860:	d0 40       	sbci	r29, 0x00	; 0
    2862:	e0 e8       	ldi	r30, 0x80	; 128
    2864:	f0 e0       	ldi	r31, 0x00	; 0
    2866:	c7 57       	subi	r28, 0x77	; 119
    2868:	df 4f       	sbci	r29, 0xFF	; 255
    286a:	f9 83       	std	Y+1, r31	; 0x01
    286c:	e8 83       	st	Y, r30
    286e:	c9 58       	subi	r28, 0x89	; 137
    2870:	d0 40       	sbci	r29, 0x00	; 0
    2872:	ca 01       	movw	r24, r20
    2874:	a6 2f       	mov	r26, r22
    2876:	e1 2c       	mov	r14, r1
    2878:	f1 2c       	mov	r15, r1
    287a:	fc 01       	movw	r30, r24
    287c:	24 91       	lpm	r18, Z
    287e:	a7 fd       	sbrc	r26, 7
    2880:	20 81       	ld	r18, Z
    2882:	21 11       	cpse	r18, r1
    2884:	1b c0       	rjmp	.+54     	; 0x28bc <__printf_core+0x11a>
    2886:	e1 14       	cp	r14, r1
    2888:	f1 04       	cpc	r15, r1
    288a:	01 f1       	breq	.+64     	; 0x28cc <__printf_core+0x12a>
    288c:	97 01       	movw	r18, r14
    288e:	c4 01       	movw	r24, r8
    2890:	0e 94 23 32 	call	0x6446	; 0x6446 <__out>
    2894:	c7 56       	subi	r28, 0x67	; 103
    2896:	df 4f       	sbci	r29, 0xFF	; 255
    2898:	88 81       	ld	r24, Y
    289a:	99 81       	ldd	r25, Y+1	; 0x01
    289c:	aa 81       	ldd	r26, Y+2	; 0x02
    289e:	c9 59       	subi	r28, 0x99	; 153
    28a0:	d0 40       	sbci	r29, 0x00	; 0
    28a2:	8e 0d       	add	r24, r14
    28a4:	9f 1d       	adc	r25, r15
    28a6:	a1 1d       	adc	r26, r1
    28a8:	f7 fc       	sbrc	r15, 7
    28aa:	aa 95       	dec	r26
    28ac:	c7 56       	subi	r28, 0x67	; 103
    28ae:	df 4f       	sbci	r29, 0xFF	; 255
    28b0:	88 83       	st	Y, r24
    28b2:	99 83       	std	Y+1, r25	; 0x01
    28b4:	aa 83       	std	Y+2, r26	; 0x02
    28b6:	c9 59       	subi	r28, 0x99	; 153
    28b8:	d0 40       	sbci	r29, 0x00	; 0
    28ba:	08 c0       	rjmp	.+16     	; 0x28cc <__printf_core+0x12a>
    28bc:	01 96       	adiw	r24, 0x01	; 1
    28be:	a1 1d       	adc	r26, r1
    28c0:	25 32       	cpi	r18, 0x25	; 37
    28c2:	09 f3       	breq	.-62     	; 0x2886 <__printf_core+0xe4>
    28c4:	ff ef       	ldi	r31, 0xFF	; 255
    28c6:	ef 1a       	sub	r14, r31
    28c8:	ff 0a       	sbc	r15, r31
    28ca:	d7 cf       	rjmp	.-82     	; 0x287a <__printf_core+0xd8>
    28cc:	c7 56       	subi	r28, 0x67	; 103
    28ce:	df 4f       	sbci	r29, 0xFF	; 255
    28d0:	88 81       	ld	r24, Y
    28d2:	99 81       	ldd	r25, Y+1	; 0x01
    28d4:	aa 81       	ldd	r26, Y+2	; 0x02
    28d6:	c9 59       	subi	r28, 0x99	; 153
    28d8:	d0 40       	sbci	r29, 0x00	; 0
    28da:	fc 01       	movw	r30, r24
    28dc:	24 91       	lpm	r18, Z
    28de:	a7 fd       	sbrc	r26, 7
    28e0:	20 81       	ld	r18, Z
    28e2:	25 32       	cpi	r18, 0x25	; 37
    28e4:	09 f0       	breq	.+2      	; 0x28e8 <__printf_core+0x146>
    28e6:	56 c3       	rjmp	.+1708   	; 0x2f94 <__printf_core+0x7f2>
    28e8:	9c 01       	movw	r18, r24
    28ea:	4a 2f       	mov	r20, r26
    28ec:	2f 5f       	subi	r18, 0xFF	; 255
    28ee:	3f 4f       	sbci	r19, 0xFF	; 255
    28f0:	4f 4f       	sbci	r20, 0xFF	; 255
    28f2:	c2 56       	subi	r28, 0x62	; 98
    28f4:	df 4f       	sbci	r29, 0xFF	; 255
    28f6:	28 83       	st	Y, r18
    28f8:	39 83       	std	Y+1, r19	; 0x01
    28fa:	4a 83       	std	Y+2, r20	; 0x02
    28fc:	ce 59       	subi	r28, 0x9E	; 158
    28fe:	d0 40       	sbci	r29, 0x00	; 0
    2900:	c7 56       	subi	r28, 0x67	; 103
    2902:	df 4f       	sbci	r29, 0xFF	; 255
    2904:	28 83       	st	Y, r18
    2906:	39 83       	std	Y+1, r19	; 0x01
    2908:	4a 83       	std	Y+2, r20	; 0x02
    290a:	c9 59       	subi	r28, 0x99	; 153
    290c:	d0 40       	sbci	r29, 0x00	; 0
    290e:	c7 56       	subi	r28, 0x67	; 103
    2910:	df 4f       	sbci	r29, 0xFF	; 255
    2912:	88 81       	ld	r24, Y
    2914:	99 81       	ldd	r25, Y+1	; 0x01
    2916:	aa 81       	ldd	r26, Y+2	; 0x02
    2918:	c9 59       	subi	r28, 0x99	; 153
    291a:	d0 40       	sbci	r29, 0x00	; 0
    291c:	fc 01       	movw	r30, r24
    291e:	24 91       	lpm	r18, Z
    2920:	a7 fd       	sbrc	r26, 7
    2922:	20 81       	ld	r18, Z
    2924:	2b 32       	cpi	r18, 0x2B	; 43
    2926:	41 f4       	brne	.+16     	; 0x2938 <__printf_core+0x196>
    2928:	cf 57       	subi	r28, 0x7F	; 127
    292a:	df 4f       	sbci	r29, 0xFF	; 255
    292c:	28 81       	ld	r18, Y
    292e:	39 81       	ldd	r19, Y+1	; 0x01
    2930:	c1 58       	subi	r28, 0x81	; 129
    2932:	d0 40       	sbci	r29, 0x00	; 0
    2934:	24 60       	ori	r18, 0x04	; 4
    2936:	0b c0       	rjmp	.+22     	; 0x294e <__printf_core+0x1ac>
    2938:	2c 32       	cpi	r18, 0x2C	; 44
    293a:	cc f0       	brlt	.+50     	; 0x296e <__printf_core+0x1cc>
    293c:	2d 32       	cpi	r18, 0x2D	; 45
    293e:	59 f5       	brne	.+86     	; 0x2996 <__printf_core+0x1f4>
    2940:	cf 57       	subi	r28, 0x7F	; 127
    2942:	df 4f       	sbci	r29, 0xFF	; 255
    2944:	28 81       	ld	r18, Y
    2946:	39 81       	ldd	r19, Y+1	; 0x01
    2948:	c1 58       	subi	r28, 0x81	; 129
    294a:	d0 40       	sbci	r29, 0x00	; 0
    294c:	21 60       	ori	r18, 0x01	; 1
    294e:	cf 57       	subi	r28, 0x7F	; 127
    2950:	df 4f       	sbci	r29, 0xFF	; 255
    2952:	39 83       	std	Y+1, r19	; 0x01
    2954:	28 83       	st	Y, r18
    2956:	c1 58       	subi	r28, 0x81	; 129
    2958:	d0 40       	sbci	r29, 0x00	; 0
    295a:	01 96       	adiw	r24, 0x01	; 1
    295c:	a1 1d       	adc	r26, r1
    295e:	c7 56       	subi	r28, 0x67	; 103
    2960:	df 4f       	sbci	r29, 0xFF	; 255
    2962:	88 83       	st	Y, r24
    2964:	99 83       	std	Y+1, r25	; 0x01
    2966:	aa 83       	std	Y+2, r26	; 0x02
    2968:	c9 59       	subi	r28, 0x99	; 153
    296a:	d0 40       	sbci	r29, 0x00	; 0
    296c:	d0 cf       	rjmp	.-96     	; 0x290e <__printf_core+0x16c>
    296e:	20 32       	cpi	r18, 0x20	; 32
    2970:	41 f4       	brne	.+16     	; 0x2982 <__printf_core+0x1e0>
    2972:	cf 57       	subi	r28, 0x7F	; 127
    2974:	df 4f       	sbci	r29, 0xFF	; 255
    2976:	28 81       	ld	r18, Y
    2978:	39 81       	ldd	r19, Y+1	; 0x01
    297a:	c1 58       	subi	r28, 0x81	; 129
    297c:	d0 40       	sbci	r29, 0x00	; 0
    297e:	28 60       	ori	r18, 0x08	; 8
    2980:	e6 cf       	rjmp	.-52     	; 0x294e <__printf_core+0x1ac>
    2982:	23 32       	cpi	r18, 0x23	; 35
    2984:	91 f4       	brne	.+36     	; 0x29aa <__printf_core+0x208>
    2986:	cf 57       	subi	r28, 0x7F	; 127
    2988:	df 4f       	sbci	r29, 0xFF	; 255
    298a:	28 81       	ld	r18, Y
    298c:	39 81       	ldd	r19, Y+1	; 0x01
    298e:	c1 58       	subi	r28, 0x81	; 129
    2990:	d0 40       	sbci	r29, 0x00	; 0
    2992:	20 61       	ori	r18, 0x10	; 16
    2994:	dc cf       	rjmp	.-72     	; 0x294e <__printf_core+0x1ac>
    2996:	20 33       	cpi	r18, 0x30	; 48
    2998:	41 f4       	brne	.+16     	; 0x29aa <__printf_core+0x208>
    299a:	cf 57       	subi	r28, 0x7F	; 127
    299c:	df 4f       	sbci	r29, 0xFF	; 255
    299e:	28 81       	ld	r18, Y
    29a0:	39 81       	ldd	r19, Y+1	; 0x01
    29a2:	c1 58       	subi	r28, 0x81	; 129
    29a4:	d0 40       	sbci	r29, 0x00	; 0
    29a6:	22 60       	ori	r18, 0x02	; 2
    29a8:	d2 cf       	rjmp	.-92     	; 0x294e <__printf_core+0x1ac>
    29aa:	2a 32       	cpi	r18, 0x2A	; 42
    29ac:	99 f5       	brne	.+102    	; 0x2a14 <__printf_core+0x272>
    29ae:	01 96       	adiw	r24, 0x01	; 1
    29b0:	a1 1d       	adc	r26, r1
    29b2:	c7 56       	subi	r28, 0x67	; 103
    29b4:	df 4f       	sbci	r29, 0xFF	; 255
    29b6:	88 83       	st	Y, r24
    29b8:	99 83       	std	Y+1, r25	; 0x01
    29ba:	aa 83       	std	Y+2, r26	; 0x02
    29bc:	c9 59       	subi	r28, 0x99	; 153
    29be:	d0 40       	sbci	r29, 0x00	; 0
    29c0:	d5 01       	movw	r26, r10
    29c2:	ed 91       	ld	r30, X+
    29c4:	fc 91       	ld	r31, X
    29c6:	11 97       	sbiw	r26, 0x01	; 1
    29c8:	cf 01       	movw	r24, r30
    29ca:	02 96       	adiw	r24, 0x02	; 2
    29cc:	8d 93       	st	X+, r24
    29ce:	9c 93       	st	X, r25
    29d0:	80 81       	ld	r24, Z
    29d2:	91 81       	ldd	r25, Z+1	; 0x01
    29d4:	cb 57       	subi	r28, 0x7B	; 123
    29d6:	df 4f       	sbci	r29, 0xFF	; 255
    29d8:	99 83       	std	Y+1, r25	; 0x01
    29da:	88 83       	st	Y, r24
    29dc:	c5 58       	subi	r28, 0x85	; 133
    29de:	d0 40       	sbci	r29, 0x00	; 0
    29e0:	97 ff       	sbrs	r25, 7
    29e2:	3e c0       	rjmp	.+124    	; 0x2a60 <__printf_core+0x2be>
    29e4:	cf 57       	subi	r28, 0x7F	; 127
    29e6:	df 4f       	sbci	r29, 0xFF	; 255
    29e8:	28 81       	ld	r18, Y
    29ea:	39 81       	ldd	r19, Y+1	; 0x01
    29ec:	c1 58       	subi	r28, 0x81	; 129
    29ee:	d0 40       	sbci	r29, 0x00	; 0
    29f0:	b1 e0       	ldi	r27, 0x01	; 1
    29f2:	2b 27       	eor	r18, r27
    29f4:	cf 57       	subi	r28, 0x7F	; 127
    29f6:	df 4f       	sbci	r29, 0xFF	; 255
    29f8:	39 83       	std	Y+1, r19	; 0x01
    29fa:	28 83       	st	Y, r18
    29fc:	c1 58       	subi	r28, 0x81	; 129
    29fe:	d0 40       	sbci	r29, 0x00	; 0
    2a00:	91 95       	neg	r25
    2a02:	81 95       	neg	r24
    2a04:	91 09       	sbc	r25, r1
    2a06:	cb 57       	subi	r28, 0x7B	; 123
    2a08:	df 4f       	sbci	r29, 0xFF	; 255
    2a0a:	99 83       	std	Y+1, r25	; 0x01
    2a0c:	88 83       	st	Y, r24
    2a0e:	c5 58       	subi	r28, 0x85	; 133
    2a10:	d0 40       	sbci	r29, 0x00	; 0
    2a12:	26 c0       	rjmp	.+76     	; 0x2a60 <__printf_core+0x2be>
    2a14:	bc 01       	movw	r22, r24
    2a16:	8a 2f       	mov	r24, r26
    2a18:	0e 94 66 2f 	call	0x5ecc	; 0x5ecc <atoi>
    2a1c:	cb 57       	subi	r28, 0x7B	; 123
    2a1e:	df 4f       	sbci	r29, 0xFF	; 255
    2a20:	99 83       	std	Y+1, r25	; 0x01
    2a22:	88 83       	st	Y, r24
    2a24:	c5 58       	subi	r28, 0x85	; 133
    2a26:	d0 40       	sbci	r29, 0x00	; 0
    2a28:	c7 56       	subi	r28, 0x67	; 103
    2a2a:	df 4f       	sbci	r29, 0xFF	; 255
    2a2c:	28 81       	ld	r18, Y
    2a2e:	39 81       	ldd	r19, Y+1	; 0x01
    2a30:	4a 81       	ldd	r20, Y+2	; 0x02
    2a32:	c9 59       	subi	r28, 0x99	; 153
    2a34:	d0 40       	sbci	r29, 0x00	; 0
    2a36:	f9 01       	movw	r30, r18
    2a38:	84 91       	lpm	r24, Z
    2a3a:	47 fd       	sbrc	r20, 7
    2a3c:	80 81       	ld	r24, Z
    2a3e:	08 2e       	mov	r0, r24
    2a40:	00 0c       	add	r0, r0
    2a42:	99 0b       	sbc	r25, r25
    2a44:	c0 97       	sbiw	r24, 0x30	; 48
    2a46:	0a 97       	sbiw	r24, 0x0a	; 10
    2a48:	58 f4       	brcc	.+22     	; 0x2a60 <__printf_core+0x2be>
    2a4a:	2f 5f       	subi	r18, 0xFF	; 255
    2a4c:	3f 4f       	sbci	r19, 0xFF	; 255
    2a4e:	4f 4f       	sbci	r20, 0xFF	; 255
    2a50:	c7 56       	subi	r28, 0x67	; 103
    2a52:	df 4f       	sbci	r29, 0xFF	; 255
    2a54:	28 83       	st	Y, r18
    2a56:	39 83       	std	Y+1, r19	; 0x01
    2a58:	4a 83       	std	Y+2, r20	; 0x02
    2a5a:	c9 59       	subi	r28, 0x99	; 153
    2a5c:	d0 40       	sbci	r29, 0x00	; 0
    2a5e:	e4 cf       	rjmp	.-56     	; 0x2a28 <__printf_core+0x286>
    2a60:	cf 57       	subi	r28, 0x7F	; 127
    2a62:	df 4f       	sbci	r29, 0xFF	; 255
    2a64:	88 81       	ld	r24, Y
    2a66:	99 81       	ldd	r25, Y+1	; 0x01
    2a68:	c1 58       	subi	r28, 0x81	; 129
    2a6a:	d0 40       	sbci	r29, 0x00	; 0
    2a6c:	80 ff       	sbrs	r24, 0
    2a6e:	07 c0       	rjmp	.+14     	; 0x2a7e <__printf_core+0x2dc>
    2a70:	8d 7f       	andi	r24, 0xFD	; 253
    2a72:	cf 57       	subi	r28, 0x7F	; 127
    2a74:	df 4f       	sbci	r29, 0xFF	; 255
    2a76:	99 83       	std	Y+1, r25	; 0x01
    2a78:	88 83       	st	Y, r24
    2a7a:	c1 58       	subi	r28, 0x81	; 129
    2a7c:	d0 40       	sbci	r29, 0x00	; 0
    2a7e:	c7 56       	subi	r28, 0x67	; 103
    2a80:	df 4f       	sbci	r29, 0xFF	; 255
    2a82:	88 81       	ld	r24, Y
    2a84:	99 81       	ldd	r25, Y+1	; 0x01
    2a86:	aa 81       	ldd	r26, Y+2	; 0x02
    2a88:	c9 59       	subi	r28, 0x99	; 153
    2a8a:	d0 40       	sbci	r29, 0x00	; 0
    2a8c:	fc 01       	movw	r30, r24
    2a8e:	24 91       	lpm	r18, Z
    2a90:	a7 fd       	sbrc	r26, 7
    2a92:	20 81       	ld	r18, Z
    2a94:	2e 32       	cpi	r18, 0x2E	; 46
    2a96:	09 f0       	breq	.+2      	; 0x2a9a <__printf_core+0x2f8>
    2a98:	58 c0       	rjmp	.+176    	; 0x2b4a <__printf_core+0x3a8>
    2a9a:	cd 57       	subi	r28, 0x7D	; 125
    2a9c:	df 4f       	sbci	r29, 0xFF	; 255
    2a9e:	19 82       	std	Y+1, r1	; 0x01
    2aa0:	18 82       	st	Y, r1
    2aa2:	c3 58       	subi	r28, 0x83	; 131
    2aa4:	d0 40       	sbci	r29, 0x00	; 0
    2aa6:	9c 01       	movw	r18, r24
    2aa8:	4a 2f       	mov	r20, r26
    2aaa:	2f 5f       	subi	r18, 0xFF	; 255
    2aac:	3f 4f       	sbci	r19, 0xFF	; 255
    2aae:	4f 4f       	sbci	r20, 0xFF	; 255
    2ab0:	c7 56       	subi	r28, 0x67	; 103
    2ab2:	df 4f       	sbci	r29, 0xFF	; 255
    2ab4:	28 83       	st	Y, r18
    2ab6:	39 83       	std	Y+1, r19	; 0x01
    2ab8:	4a 83       	std	Y+2, r20	; 0x02
    2aba:	c9 59       	subi	r28, 0x99	; 153
    2abc:	d0 40       	sbci	r29, 0x00	; 0
    2abe:	f9 01       	movw	r30, r18
    2ac0:	54 91       	lpm	r21, Z
    2ac2:	47 fd       	sbrc	r20, 7
    2ac4:	50 81       	ld	r21, Z
    2ac6:	5a 32       	cpi	r21, 0x2A	; 42
    2ac8:	d1 f4       	brne	.+52     	; 0x2afe <__printf_core+0x35c>
    2aca:	02 96       	adiw	r24, 0x02	; 2
    2acc:	a1 1d       	adc	r26, r1
    2ace:	c7 56       	subi	r28, 0x67	; 103
    2ad0:	df 4f       	sbci	r29, 0xFF	; 255
    2ad2:	88 83       	st	Y, r24
    2ad4:	99 83       	std	Y+1, r25	; 0x01
    2ad6:	aa 83       	std	Y+2, r26	; 0x02
    2ad8:	c9 59       	subi	r28, 0x99	; 153
    2ada:	d0 40       	sbci	r29, 0x00	; 0
    2adc:	d5 01       	movw	r26, r10
    2ade:	ed 91       	ld	r30, X+
    2ae0:	fc 91       	ld	r31, X
    2ae2:	11 97       	sbiw	r26, 0x01	; 1
    2ae4:	cf 01       	movw	r24, r30
    2ae6:	02 96       	adiw	r24, 0x02	; 2
    2ae8:	8d 93       	st	X+, r24
    2aea:	9c 93       	st	X, r25
    2aec:	80 81       	ld	r24, Z
    2aee:	91 81       	ldd	r25, Z+1	; 0x01
    2af0:	cd 57       	subi	r28, 0x7D	; 125
    2af2:	df 4f       	sbci	r29, 0xFF	; 255
    2af4:	99 83       	std	Y+1, r25	; 0x01
    2af6:	88 83       	st	Y, r24
    2af8:	c3 58       	subi	r28, 0x83	; 131
    2afa:	d0 40       	sbci	r29, 0x00	; 0
    2afc:	26 c0       	rjmp	.+76     	; 0x2b4a <__printf_core+0x3a8>
    2afe:	84 2f       	mov	r24, r20
    2b00:	b9 01       	movw	r22, r18
    2b02:	0e 94 66 2f 	call	0x5ecc	; 0x5ecc <atoi>
    2b06:	cd 57       	subi	r28, 0x7D	; 125
    2b08:	df 4f       	sbci	r29, 0xFF	; 255
    2b0a:	99 83       	std	Y+1, r25	; 0x01
    2b0c:	88 83       	st	Y, r24
    2b0e:	c3 58       	subi	r28, 0x83	; 131
    2b10:	d0 40       	sbci	r29, 0x00	; 0
    2b12:	c7 56       	subi	r28, 0x67	; 103
    2b14:	df 4f       	sbci	r29, 0xFF	; 255
    2b16:	28 81       	ld	r18, Y
    2b18:	39 81       	ldd	r19, Y+1	; 0x01
    2b1a:	4a 81       	ldd	r20, Y+2	; 0x02
    2b1c:	c9 59       	subi	r28, 0x99	; 153
    2b1e:	d0 40       	sbci	r29, 0x00	; 0
    2b20:	f9 01       	movw	r30, r18
    2b22:	84 91       	lpm	r24, Z
    2b24:	47 fd       	sbrc	r20, 7
    2b26:	80 81       	ld	r24, Z
    2b28:	08 2e       	mov	r0, r24
    2b2a:	00 0c       	add	r0, r0
    2b2c:	99 0b       	sbc	r25, r25
    2b2e:	c0 97       	sbiw	r24, 0x30	; 48
    2b30:	0a 97       	sbiw	r24, 0x0a	; 10
    2b32:	58 f4       	brcc	.+22     	; 0x2b4a <__printf_core+0x3a8>
    2b34:	2f 5f       	subi	r18, 0xFF	; 255
    2b36:	3f 4f       	sbci	r19, 0xFF	; 255
    2b38:	4f 4f       	sbci	r20, 0xFF	; 255
    2b3a:	c7 56       	subi	r28, 0x67	; 103
    2b3c:	df 4f       	sbci	r29, 0xFF	; 255
    2b3e:	28 83       	st	Y, r18
    2b40:	39 83       	std	Y+1, r19	; 0x01
    2b42:	4a 83       	std	Y+2, r20	; 0x02
    2b44:	c9 59       	subi	r28, 0x99	; 153
    2b46:	d0 40       	sbci	r29, 0x00	; 0
    2b48:	e4 cf       	rjmp	.-56     	; 0x2b12 <__printf_core+0x370>
    2b4a:	ce 01       	movw	r24, r28
    2b4c:	87 56       	subi	r24, 0x67	; 103
    2b4e:	9f 4f       	sbci	r25, 0xFF	; 255
    2b50:	0e 94 e4 2d 	call	0x5bc8	; 0x5bc8 <__fmt_state>
    2b54:	18 2f       	mov	r17, r24
    2b56:	c7 56       	subi	r28, 0x67	; 103
    2b58:	df 4f       	sbci	r29, 0xFF	; 255
    2b5a:	28 81       	ld	r18, Y
    2b5c:	c9 59       	subi	r28, 0x99	; 153
    2b5e:	d0 40       	sbci	r29, 0x00	; 0
    2b60:	c6 56       	subi	r28, 0x66	; 102
    2b62:	df 4f       	sbci	r29, 0xFF	; 255
    2b64:	88 81       	ld	r24, Y
    2b66:	ca 59       	subi	r28, 0x9A	; 154
    2b68:	d0 40       	sbci	r29, 0x00	; 0
    2b6a:	c5 56       	subi	r28, 0x65	; 101
    2b6c:	df 4f       	sbci	r29, 0xFF	; 255
    2b6e:	98 81       	ld	r25, Y
    2b70:	cb 59       	subi	r28, 0x9B	; 155
    2b72:	d0 40       	sbci	r29, 0x00	; 0
    2b74:	e2 2f       	mov	r30, r18
    2b76:	f8 2f       	mov	r31, r24
    2b78:	84 91       	lpm	r24, Z
    2b7a:	97 fd       	sbrc	r25, 7
    2b7c:	80 81       	ld	r24, Z
    2b7e:	08 2e       	mov	r0, r24
    2b80:	00 0c       	add	r0, r0
    2b82:	99 0b       	sbc	r25, r25
    2b84:	0e 94 c7 38 	call	0x718e	; 0x718e <tolower>
    2b88:	89 36       	cpi	r24, 0x69	; 105
    2b8a:	91 05       	cpc	r25, r1
    2b8c:	09 f4       	brne	.+2      	; 0x2b90 <__printf_core+0x3ee>
    2b8e:	5a c0       	rjmp	.+180    	; 0x2c44 <__printf_core+0x4a2>
    2b90:	b4 f4       	brge	.+44     	; 0x2bbe <__printf_core+0x41c>
    2b92:	83 36       	cpi	r24, 0x63	; 99
    2b94:	91 05       	cpc	r25, r1
    2b96:	09 f4       	brne	.+2      	; 0x2b9a <__printf_core+0x3f8>
    2b98:	66 c1       	rjmp	.+716    	; 0x2e66 <__printf_core+0x6c4>
    2b9a:	44 f4       	brge	.+16     	; 0x2bac <__printf_core+0x40a>
    2b9c:	85 32       	cpi	r24, 0x25	; 37
    2b9e:	91 05       	cpc	r25, r1
    2ba0:	09 f4       	brne	.+2      	; 0x2ba4 <__printf_core+0x402>
    2ba2:	a1 c1       	rjmp	.+834    	; 0x2ee6 <__printf_core+0x744>
    2ba4:	81 36       	cpi	r24, 0x61	; 97
    2ba6:	91 05       	cpc	r25, r1
    2ba8:	29 f1       	breq	.+74     	; 0x2bf4 <__printf_core+0x452>
    2baa:	b3 c1       	rjmp	.+870    	; 0x2f12 <__printf_core+0x770>
    2bac:	84 36       	cpi	r24, 0x64	; 100
    2bae:	91 05       	cpc	r25, r1
    2bb0:	09 f4       	brne	.+2      	; 0x2bb4 <__printf_core+0x412>
    2bb2:	48 c0       	rjmp	.+144    	; 0x2c44 <__printf_core+0x4a2>
    2bb4:	88 36       	cpi	r24, 0x68	; 104
    2bb6:	91 05       	cpc	r25, r1
    2bb8:	0c f4       	brge	.+2      	; 0x2bbc <__printf_core+0x41a>
    2bba:	2d c1       	rjmp	.+602    	; 0x2e16 <__printf_core+0x674>
    2bbc:	aa c1       	rjmp	.+852    	; 0x2f12 <__printf_core+0x770>
    2bbe:	80 37       	cpi	r24, 0x70	; 112
    2bc0:	91 05       	cpc	r25, r1
    2bc2:	09 f4       	brne	.+2      	; 0x2bc6 <__printf_core+0x424>
    2bc4:	cb c0       	rjmp	.+406    	; 0x2d5c <__printf_core+0x5ba>
    2bc6:	4c f4       	brge	.+18     	; 0x2bda <__printf_core+0x438>
    2bc8:	8e 36       	cpi	r24, 0x6E	; 110
    2bca:	91 05       	cpc	r25, r1
    2bcc:	09 f4       	brne	.+2      	; 0x2bd0 <__printf_core+0x42e>
    2bce:	19 c1       	rjmp	.+562    	; 0x2e02 <__printf_core+0x660>
    2bd0:	8f 36       	cpi	r24, 0x6F	; 111
    2bd2:	91 05       	cpc	r25, r1
    2bd4:	09 f4       	brne	.+2      	; 0x2bd8 <__printf_core+0x436>
    2bd6:	7c c0       	rjmp	.+248    	; 0x2cd0 <__printf_core+0x52e>
    2bd8:	9c c1       	rjmp	.+824    	; 0x2f12 <__printf_core+0x770>
    2bda:	85 37       	cpi	r24, 0x75	; 117
    2bdc:	91 05       	cpc	r25, r1
    2bde:	09 f4       	brne	.+2      	; 0x2be2 <__printf_core+0x440>
    2be0:	54 c0       	rjmp	.+168    	; 0x2c8a <__printf_core+0x4e8>
    2be2:	88 37       	cpi	r24, 0x78	; 120
    2be4:	91 05       	cpc	r25, r1
    2be6:	09 f4       	brne	.+2      	; 0x2bea <__printf_core+0x448>
    2be8:	96 c0       	rjmp	.+300    	; 0x2d16 <__printf_core+0x574>
    2bea:	83 37       	cpi	r24, 0x73	; 115
    2bec:	91 05       	cpc	r25, r1
    2bee:	09 f0       	breq	.+2      	; 0x2bf2 <__printf_core+0x450>
    2bf0:	90 c1       	rjmp	.+800    	; 0x2f12 <__printf_core+0x770>
    2bf2:	58 c1       	rjmp	.+688    	; 0x2ea4 <__printf_core+0x702>
    2bf4:	61 2f       	mov	r22, r17
    2bf6:	70 e0       	ldi	r23, 0x00	; 0
    2bf8:	a5 01       	movw	r20, r10
    2bfa:	c6 01       	movw	r24, r12
    2bfc:	0e 94 77 34 	call	0x68ee	; 0x68ee <__pop_float>
    2c00:	89 2b       	or	r24, r25
    2c02:	09 f4       	brne	.+2      	; 0x2c06 <__printf_core+0x464>
    2c04:	b7 c1       	rjmp	.+878    	; 0x2f74 <__printf_core+0x7d2>
    2c06:	c7 56       	subi	r28, 0x67	; 103
    2c08:	df 4f       	sbci	r29, 0xFF	; 255
    2c0a:	88 81       	ld	r24, Y
    2c0c:	99 81       	ldd	r25, Y+1	; 0x01
    2c0e:	aa 81       	ldd	r26, Y+2	; 0x02
    2c10:	c9 59       	subi	r28, 0x99	; 153
    2c12:	d0 40       	sbci	r29, 0x00	; 0
    2c14:	9c 01       	movw	r18, r24
    2c16:	4a 2f       	mov	r20, r26
    2c18:	2f 5f       	subi	r18, 0xFF	; 255
    2c1a:	3f 4f       	sbci	r19, 0xFF	; 255
    2c1c:	4f 4f       	sbci	r20, 0xFF	; 255
    2c1e:	c7 56       	subi	r28, 0x67	; 103
    2c20:	df 4f       	sbci	r29, 0xFF	; 255
    2c22:	28 83       	st	Y, r18
    2c24:	39 83       	std	Y+1, r19	; 0x01
    2c26:	4a 83       	std	Y+2, r20	; 0x02
    2c28:	c9 59       	subi	r28, 0x99	; 153
    2c2a:	d0 40       	sbci	r29, 0x00	; 0
    2c2c:	fc 01       	movw	r30, r24
    2c2e:	24 91       	lpm	r18, Z
    2c30:	a7 fd       	sbrc	r26, 7
    2c32:	20 81       	ld	r18, Z
    2c34:	a6 01       	movw	r20, r12
    2c36:	be 01       	movw	r22, r28
    2c38:	6f 57       	subi	r22, 0x7F	; 127
    2c3a:	7f 4f       	sbci	r23, 0xFF	; 255
    2c3c:	c4 01       	movw	r24, r8
    2c3e:	0e 94 10 39 	call	0x7220	; 0x7220 <__fmt_a>
    2c42:	95 c1       	rjmp	.+810    	; 0x2f6e <__printf_core+0x7cc>
    2c44:	61 2f       	mov	r22, r17
    2c46:	70 e0       	ldi	r23, 0x00	; 0
    2c48:	95 01       	movw	r18, r10
    2c4a:	41 e0       	ldi	r20, 0x01	; 1
    2c4c:	50 e0       	ldi	r21, 0x00	; 0
    2c4e:	c6 01       	movw	r24, r12
    2c50:	0e 94 5d 24 	call	0x48ba	; 0x48ba <__pop_int>
    2c54:	89 2b       	or	r24, r25
    2c56:	09 f4       	brne	.+2      	; 0x2c5a <__printf_core+0x4b8>
    2c58:	8d c1       	rjmp	.+794    	; 0x2f74 <__printf_core+0x7d2>
    2c5a:	c7 56       	subi	r28, 0x67	; 103
    2c5c:	df 4f       	sbci	r29, 0xFF	; 255
    2c5e:	88 81       	ld	r24, Y
    2c60:	99 81       	ldd	r25, Y+1	; 0x01
    2c62:	aa 81       	ldd	r26, Y+2	; 0x02
    2c64:	c9 59       	subi	r28, 0x99	; 153
    2c66:	d0 40       	sbci	r29, 0x00	; 0
    2c68:	01 96       	adiw	r24, 0x01	; 1
    2c6a:	a1 1d       	adc	r26, r1
    2c6c:	c7 56       	subi	r28, 0x67	; 103
    2c6e:	df 4f       	sbci	r29, 0xFF	; 255
    2c70:	88 83       	st	Y, r24
    2c72:	99 83       	std	Y+1, r25	; 0x01
    2c74:	aa 83       	std	Y+2, r26	; 0x02
    2c76:	c9 59       	subi	r28, 0x99	; 153
    2c78:	d0 40       	sbci	r29, 0x00	; 0
    2c7a:	a6 01       	movw	r20, r12
    2c7c:	be 01       	movw	r22, r28
    2c7e:	6f 57       	subi	r22, 0x7F	; 127
    2c80:	7f 4f       	sbci	r23, 0xFF	; 255
    2c82:	c4 01       	movw	r24, r8
    2c84:	0e 94 9e 23 	call	0x473c	; 0x473c <__fmt_d>
    2c88:	72 c1       	rjmp	.+740    	; 0x2f6e <__printf_core+0x7cc>
    2c8a:	61 2f       	mov	r22, r17
    2c8c:	70 e0       	ldi	r23, 0x00	; 0
    2c8e:	95 01       	movw	r18, r10
    2c90:	40 e0       	ldi	r20, 0x00	; 0
    2c92:	50 e0       	ldi	r21, 0x00	; 0
    2c94:	c6 01       	movw	r24, r12
    2c96:	0e 94 5d 24 	call	0x48ba	; 0x48ba <__pop_int>
    2c9a:	89 2b       	or	r24, r25
    2c9c:	09 f4       	brne	.+2      	; 0x2ca0 <__printf_core+0x4fe>
    2c9e:	6a c1       	rjmp	.+724    	; 0x2f74 <__printf_core+0x7d2>
    2ca0:	c7 56       	subi	r28, 0x67	; 103
    2ca2:	df 4f       	sbci	r29, 0xFF	; 255
    2ca4:	88 81       	ld	r24, Y
    2ca6:	99 81       	ldd	r25, Y+1	; 0x01
    2ca8:	aa 81       	ldd	r26, Y+2	; 0x02
    2caa:	c9 59       	subi	r28, 0x99	; 153
    2cac:	d0 40       	sbci	r29, 0x00	; 0
    2cae:	01 96       	adiw	r24, 0x01	; 1
    2cb0:	a1 1d       	adc	r26, r1
    2cb2:	c7 56       	subi	r28, 0x67	; 103
    2cb4:	df 4f       	sbci	r29, 0xFF	; 255
    2cb6:	88 83       	st	Y, r24
    2cb8:	99 83       	std	Y+1, r25	; 0x01
    2cba:	aa 83       	std	Y+2, r26	; 0x02
    2cbc:	c9 59       	subi	r28, 0x99	; 153
    2cbe:	d0 40       	sbci	r29, 0x00	; 0
    2cc0:	a6 01       	movw	r20, r12
    2cc2:	be 01       	movw	r22, r28
    2cc4:	6f 57       	subi	r22, 0x7F	; 127
    2cc6:	7f 4f       	sbci	r23, 0xFF	; 255
    2cc8:	c4 01       	movw	r24, r8
    2cca:	0e 94 f9 2b 	call	0x57f2	; 0x57f2 <__fmt_u>
    2cce:	4f c1       	rjmp	.+670    	; 0x2f6e <__printf_core+0x7cc>
    2cd0:	61 2f       	mov	r22, r17
    2cd2:	70 e0       	ldi	r23, 0x00	; 0
    2cd4:	95 01       	movw	r18, r10
    2cd6:	40 e0       	ldi	r20, 0x00	; 0
    2cd8:	50 e0       	ldi	r21, 0x00	; 0
    2cda:	c6 01       	movw	r24, r12
    2cdc:	0e 94 5d 24 	call	0x48ba	; 0x48ba <__pop_int>
    2ce0:	89 2b       	or	r24, r25
    2ce2:	09 f4       	brne	.+2      	; 0x2ce6 <__printf_core+0x544>
    2ce4:	47 c1       	rjmp	.+654    	; 0x2f74 <__printf_core+0x7d2>
    2ce6:	c7 56       	subi	r28, 0x67	; 103
    2ce8:	df 4f       	sbci	r29, 0xFF	; 255
    2cea:	88 81       	ld	r24, Y
    2cec:	99 81       	ldd	r25, Y+1	; 0x01
    2cee:	aa 81       	ldd	r26, Y+2	; 0x02
    2cf0:	c9 59       	subi	r28, 0x99	; 153
    2cf2:	d0 40       	sbci	r29, 0x00	; 0
    2cf4:	01 96       	adiw	r24, 0x01	; 1
    2cf6:	a1 1d       	adc	r26, r1
    2cf8:	c7 56       	subi	r28, 0x67	; 103
    2cfa:	df 4f       	sbci	r29, 0xFF	; 255
    2cfc:	88 83       	st	Y, r24
    2cfe:	99 83       	std	Y+1, r25	; 0x01
    2d00:	aa 83       	std	Y+2, r26	; 0x02
    2d02:	c9 59       	subi	r28, 0x99	; 153
    2d04:	d0 40       	sbci	r29, 0x00	; 0
    2d06:	a6 01       	movw	r20, r12
    2d08:	be 01       	movw	r22, r28
    2d0a:	6f 57       	subi	r22, 0x7F	; 127
    2d0c:	7f 4f       	sbci	r23, 0xFF	; 255
    2d0e:	c4 01       	movw	r24, r8
    2d10:	0e 94 67 2a 	call	0x54ce	; 0x54ce <__fmt_o>
    2d14:	2c c1       	rjmp	.+600    	; 0x2f6e <__printf_core+0x7cc>
    2d16:	61 2f       	mov	r22, r17
    2d18:	70 e0       	ldi	r23, 0x00	; 0
    2d1a:	95 01       	movw	r18, r10
    2d1c:	40 e0       	ldi	r20, 0x00	; 0
    2d1e:	50 e0       	ldi	r21, 0x00	; 0
    2d20:	c6 01       	movw	r24, r12
    2d22:	0e 94 5d 24 	call	0x48ba	; 0x48ba <__pop_int>
    2d26:	89 2b       	or	r24, r25
    2d28:	09 f4       	brne	.+2      	; 0x2d2c <__printf_core+0x58a>
    2d2a:	24 c1       	rjmp	.+584    	; 0x2f74 <__printf_core+0x7d2>
    2d2c:	c7 56       	subi	r28, 0x67	; 103
    2d2e:	df 4f       	sbci	r29, 0xFF	; 255
    2d30:	88 81       	ld	r24, Y
    2d32:	99 81       	ldd	r25, Y+1	; 0x01
    2d34:	aa 81       	ldd	r26, Y+2	; 0x02
    2d36:	c9 59       	subi	r28, 0x99	; 153
    2d38:	d0 40       	sbci	r29, 0x00	; 0
    2d3a:	9c 01       	movw	r18, r24
    2d3c:	4a 2f       	mov	r20, r26
    2d3e:	2f 5f       	subi	r18, 0xFF	; 255
    2d40:	3f 4f       	sbci	r19, 0xFF	; 255
    2d42:	4f 4f       	sbci	r20, 0xFF	; 255
    2d44:	c7 56       	subi	r28, 0x67	; 103
    2d46:	df 4f       	sbci	r29, 0xFF	; 255
    2d48:	28 83       	st	Y, r18
    2d4a:	39 83       	std	Y+1, r19	; 0x01
    2d4c:	4a 83       	std	Y+2, r20	; 0x02
    2d4e:	c9 59       	subi	r28, 0x99	; 153
    2d50:	d0 40       	sbci	r29, 0x00	; 0
    2d52:	fc 01       	movw	r30, r24
    2d54:	24 91       	lpm	r18, Z
    2d56:	a7 fd       	sbrc	r26, 7
    2d58:	20 81       	ld	r18, Z
    2d5a:	4b c0       	rjmp	.+150    	; 0x2df2 <__printf_core+0x650>
    2d5c:	95 01       	movw	r18, r10
    2d5e:	40 e0       	ldi	r20, 0x00	; 0
    2d60:	50 e0       	ldi	r21, 0x00	; 0
    2d62:	60 ef       	ldi	r22, 0xF0	; 240
    2d64:	70 e0       	ldi	r23, 0x00	; 0
    2d66:	c6 01       	movw	r24, r12
    2d68:	0e 94 5d 24 	call	0x48ba	; 0x48ba <__pop_int>
    2d6c:	89 2b       	or	r24, r25
    2d6e:	09 f4       	brne	.+2      	; 0x2d72 <__printf_core+0x5d0>
    2d70:	01 c1       	rjmp	.+514    	; 0x2f74 <__printf_core+0x7d2>
    2d72:	c7 56       	subi	r28, 0x67	; 103
    2d74:	df 4f       	sbci	r29, 0xFF	; 255
    2d76:	88 81       	ld	r24, Y
    2d78:	99 81       	ldd	r25, Y+1	; 0x01
    2d7a:	aa 81       	ldd	r26, Y+2	; 0x02
    2d7c:	c9 59       	subi	r28, 0x99	; 153
    2d7e:	d0 40       	sbci	r29, 0x00	; 0
    2d80:	01 96       	adiw	r24, 0x01	; 1
    2d82:	a1 1d       	adc	r26, r1
    2d84:	c7 56       	subi	r28, 0x67	; 103
    2d86:	df 4f       	sbci	r29, 0xFF	; 255
    2d88:	88 83       	st	Y, r24
    2d8a:	99 83       	std	Y+1, r25	; 0x01
    2d8c:	aa 83       	std	Y+2, r26	; 0x02
    2d8e:	c9 59       	subi	r28, 0x99	; 153
    2d90:	d0 40       	sbci	r29, 0x00	; 0
    2d92:	86 e0       	ldi	r24, 0x06	; 6
    2d94:	2b e7       	ldi	r18, 0x7B	; 123
    2d96:	36 e0       	ldi	r19, 0x06	; 6
    2d98:	40 e0       	ldi	r20, 0x00	; 0
    2d9a:	f9 01       	movw	r30, r18
    2d9c:	de 01       	movw	r26, r28
    2d9e:	ad 56       	subi	r26, 0x6D	; 109
    2da0:	bf 4f       	sbci	r27, 0xFF	; 255
    2da2:	74 2f       	mov	r23, r20
    2da4:	0e 94 41 38 	call	0x7082	; 0x7082 <__movmemx_qi>
    2da8:	d6 01       	movw	r26, r12
    2daa:	2c 91       	ld	r18, X
    2dac:	11 96       	adiw	r26, 0x01	; 1
    2dae:	3c 91       	ld	r19, X
    2db0:	11 97       	sbiw	r26, 0x01	; 1
    2db2:	12 96       	adiw	r26, 0x02	; 2
    2db4:	4c 91       	ld	r20, X
    2db6:	12 97       	sbiw	r26, 0x02	; 2
    2db8:	13 96       	adiw	r26, 0x03	; 3
    2dba:	5c 91       	ld	r21, X
    2dbc:	13 97       	sbiw	r26, 0x03	; 3
    2dbe:	14 96       	adiw	r26, 0x04	; 4
    2dc0:	6c 91       	ld	r22, X
    2dc2:	14 97       	sbiw	r26, 0x04	; 4
    2dc4:	15 96       	adiw	r26, 0x05	; 5
    2dc6:	7c 91       	ld	r23, X
    2dc8:	15 97       	sbiw	r26, 0x05	; 5
    2dca:	16 96       	adiw	r26, 0x06	; 6
    2dcc:	8c 91       	ld	r24, X
    2dce:	16 97       	sbiw	r26, 0x06	; 6
    2dd0:	17 96       	adiw	r26, 0x07	; 7
    2dd2:	9c 91       	ld	r25, X
    2dd4:	a0 e0       	ldi	r26, 0x00	; 0
    2dd6:	0e 94 67 38 	call	0x70ce	; 0x70ce <__cmpdi2_s8>
    2dda:	51 f4       	brne	.+20     	; 0x2df0 <__printf_core+0x64e>
    2ddc:	00 e0       	ldi	r16, 0x00	; 0
    2dde:	10 e0       	ldi	r17, 0x00	; 0
    2de0:	cf 55       	subi	r28, 0x5F	; 95
    2de2:	df 4f       	sbci	r29, 0xFF	; 255
    2de4:	28 81       	ld	r18, Y
    2de6:	39 81       	ldd	r19, Y+1	; 0x01
    2de8:	4a 81       	ldd	r20, Y+2	; 0x02
    2dea:	c1 5a       	subi	r28, 0xA1	; 161
    2dec:	d0 40       	sbci	r29, 0x00	; 0
    2dee:	b9 c0       	rjmp	.+370    	; 0x2f62 <__printf_core+0x7c0>
    2df0:	28 e7       	ldi	r18, 0x78	; 120
    2df2:	a6 01       	movw	r20, r12
    2df4:	be 01       	movw	r22, r28
    2df6:	6f 57       	subi	r22, 0x7F	; 127
    2df8:	7f 4f       	sbci	r23, 0xFF	; 255
    2dfa:	c4 01       	movw	r24, r8
    2dfc:	0e 94 cd 1f 	call	0x3f9a	; 0x3f9a <__fmt_x>
    2e00:	b6 c0       	rjmp	.+364    	; 0x2f6e <__printf_core+0x7cc>
    2e02:	61 2f       	mov	r22, r17
    2e04:	70 e0       	ldi	r23, 0x00	; 0
    2e06:	95 01       	movw	r18, r10
    2e08:	a1 01       	movw	r20, r2
    2e0a:	4e 0d       	add	r20, r14
    2e0c:	5f 1d       	adc	r21, r15
    2e0e:	c6 01       	movw	r24, r12
    2e10:	0e 94 26 29 	call	0x524c	; 0x524c <__pop_ptr>
    2e14:	af c0       	rjmp	.+350    	; 0x2f74 <__printf_core+0x7d2>
    2e16:	61 2f       	mov	r22, r17
    2e18:	70 e0       	ldi	r23, 0x00	; 0
    2e1a:	a5 01       	movw	r20, r10
    2e1c:	c6 01       	movw	r24, r12
    2e1e:	0e 94 77 34 	call	0x68ee	; 0x68ee <__pop_float>
    2e22:	89 2b       	or	r24, r25
    2e24:	09 f4       	brne	.+2      	; 0x2e28 <__printf_core+0x686>
    2e26:	a6 c0       	rjmp	.+332    	; 0x2f74 <__printf_core+0x7d2>
    2e28:	c7 56       	subi	r28, 0x67	; 103
    2e2a:	df 4f       	sbci	r29, 0xFF	; 255
    2e2c:	88 81       	ld	r24, Y
    2e2e:	99 81       	ldd	r25, Y+1	; 0x01
    2e30:	aa 81       	ldd	r26, Y+2	; 0x02
    2e32:	c9 59       	subi	r28, 0x99	; 153
    2e34:	d0 40       	sbci	r29, 0x00	; 0
    2e36:	9c 01       	movw	r18, r24
    2e38:	4a 2f       	mov	r20, r26
    2e3a:	2f 5f       	subi	r18, 0xFF	; 255
    2e3c:	3f 4f       	sbci	r19, 0xFF	; 255
    2e3e:	4f 4f       	sbci	r20, 0xFF	; 255
    2e40:	c7 56       	subi	r28, 0x67	; 103
    2e42:	df 4f       	sbci	r29, 0xFF	; 255
    2e44:	28 83       	st	Y, r18
    2e46:	39 83       	std	Y+1, r19	; 0x01
    2e48:	4a 83       	std	Y+2, r20	; 0x02
    2e4a:	c9 59       	subi	r28, 0x99	; 153
    2e4c:	d0 40       	sbci	r29, 0x00	; 0
    2e4e:	fc 01       	movw	r30, r24
    2e50:	24 91       	lpm	r18, Z
    2e52:	a7 fd       	sbrc	r26, 7
    2e54:	20 81       	ld	r18, Z
    2e56:	a6 01       	movw	r20, r12
    2e58:	be 01       	movw	r22, r28
    2e5a:	6f 57       	subi	r22, 0x7F	; 127
    2e5c:	7f 4f       	sbci	r23, 0xFF	; 255
    2e5e:	c4 01       	movw	r24, r8
    2e60:	0e 94 10 39 	call	0x7220	; 0x7220 <__fmt_a>
    2e64:	84 c0       	rjmp	.+264    	; 0x2f6e <__printf_core+0x7cc>
    2e66:	10 38       	cpi	r17, 0x80	; 128
    2e68:	09 f0       	breq	.+2      	; 0x2e6c <__printf_core+0x6ca>
    2e6a:	84 c0       	rjmp	.+264    	; 0x2f74 <__printf_core+0x7d2>
    2e6c:	c7 56       	subi	r28, 0x67	; 103
    2e6e:	df 4f       	sbci	r29, 0xFF	; 255
    2e70:	88 81       	ld	r24, Y
    2e72:	99 81       	ldd	r25, Y+1	; 0x01
    2e74:	aa 81       	ldd	r26, Y+2	; 0x02
    2e76:	c9 59       	subi	r28, 0x99	; 153
    2e78:	d0 40       	sbci	r29, 0x00	; 0
    2e7a:	01 96       	adiw	r24, 0x01	; 1
    2e7c:	a1 1d       	adc	r26, r1
    2e7e:	c7 56       	subi	r28, 0x67	; 103
    2e80:	df 4f       	sbci	r29, 0xFF	; 255
    2e82:	88 83       	st	Y, r24
    2e84:	99 83       	std	Y+1, r25	; 0x01
    2e86:	aa 83       	std	Y+2, r26	; 0x02
    2e88:	c9 59       	subi	r28, 0x99	; 153
    2e8a:	d0 40       	sbci	r29, 0x00	; 0
    2e8c:	d5 01       	movw	r26, r10
    2e8e:	ed 91       	ld	r30, X+
    2e90:	fc 91       	ld	r31, X
    2e92:	11 97       	sbiw	r26, 0x01	; 1
    2e94:	cf 01       	movw	r24, r30
    2e96:	02 96       	adiw	r24, 0x02	; 2
    2e98:	8d 93       	st	X+, r24
    2e9a:	9c 93       	st	X, r25
    2e9c:	80 81       	ld	r24, Z
    2e9e:	f6 01       	movw	r30, r12
    2ea0:	80 83       	st	Z, r24
    2ea2:	5b c0       	rjmp	.+182    	; 0x2f5a <__printf_core+0x7b8>
    2ea4:	10 38       	cpi	r17, 0x80	; 128
    2ea6:	09 f0       	breq	.+2      	; 0x2eaa <__printf_core+0x708>
    2ea8:	65 c0       	rjmp	.+202    	; 0x2f74 <__printf_core+0x7d2>
    2eaa:	c7 56       	subi	r28, 0x67	; 103
    2eac:	df 4f       	sbci	r29, 0xFF	; 255
    2eae:	88 81       	ld	r24, Y
    2eb0:	99 81       	ldd	r25, Y+1	; 0x01
    2eb2:	aa 81       	ldd	r26, Y+2	; 0x02
    2eb4:	c9 59       	subi	r28, 0x99	; 153
    2eb6:	d0 40       	sbci	r29, 0x00	; 0
    2eb8:	01 96       	adiw	r24, 0x01	; 1
    2eba:	a1 1d       	adc	r26, r1
    2ebc:	c7 56       	subi	r28, 0x67	; 103
    2ebe:	df 4f       	sbci	r29, 0xFF	; 255
    2ec0:	88 83       	st	Y, r24
    2ec2:	99 83       	std	Y+1, r25	; 0x01
    2ec4:	aa 83       	std	Y+2, r26	; 0x02
    2ec6:	c9 59       	subi	r28, 0x99	; 153
    2ec8:	d0 40       	sbci	r29, 0x00	; 0
    2eca:	d5 01       	movw	r26, r10
    2ecc:	ed 91       	ld	r30, X+
    2ece:	fc 91       	ld	r31, X
    2ed0:	11 97       	sbiw	r26, 0x01	; 1
    2ed2:	cf 01       	movw	r24, r30
    2ed4:	03 96       	adiw	r24, 0x03	; 3
    2ed6:	8d 93       	st	X+, r24
    2ed8:	9c 93       	st	X, r25
    2eda:	20 81       	ld	r18, Z
    2edc:	31 81       	ldd	r19, Z+1	; 0x01
    2ede:	42 81       	ldd	r20, Z+2	; 0x02
    2ee0:	00 e0       	ldi	r16, 0x00	; 0
    2ee2:	10 e0       	ldi	r17, 0x00	; 0
    2ee4:	3e c0       	rjmp	.+124    	; 0x2f62 <__printf_core+0x7c0>
    2ee6:	10 38       	cpi	r17, 0x80	; 128
    2ee8:	09 f0       	breq	.+2      	; 0x2eec <__printf_core+0x74a>
    2eea:	44 c0       	rjmp	.+136    	; 0x2f74 <__printf_core+0x7d2>
    2eec:	c7 56       	subi	r28, 0x67	; 103
    2eee:	df 4f       	sbci	r29, 0xFF	; 255
    2ef0:	88 81       	ld	r24, Y
    2ef2:	99 81       	ldd	r25, Y+1	; 0x01
    2ef4:	aa 81       	ldd	r26, Y+2	; 0x02
    2ef6:	c9 59       	subi	r28, 0x99	; 153
    2ef8:	d0 40       	sbci	r29, 0x00	; 0
    2efa:	01 96       	adiw	r24, 0x01	; 1
    2efc:	a1 1d       	adc	r26, r1
    2efe:	c7 56       	subi	r28, 0x67	; 103
    2f00:	df 4f       	sbci	r29, 0xFF	; 255
    2f02:	88 83       	st	Y, r24
    2f04:	99 83       	std	Y+1, r25	; 0x01
    2f06:	aa 83       	std	Y+2, r26	; 0x02
    2f08:	c9 59       	subi	r28, 0x99	; 153
    2f0a:	d0 40       	sbci	r29, 0x00	; 0
    2f0c:	f6 01       	movw	r30, r12
    2f0e:	70 82       	st	Z, r7
    2f10:	24 c0       	rjmp	.+72     	; 0x2f5a <__printf_core+0x7b8>
    2f12:	d6 01       	movw	r26, r12
    2f14:	7c 92       	st	X, r7
    2f16:	c2 56       	subi	r28, 0x62	; 98
    2f18:	df 4f       	sbci	r29, 0xFF	; 255
    2f1a:	28 81       	ld	r18, Y
    2f1c:	39 81       	ldd	r19, Y+1	; 0x01
    2f1e:	4a 81       	ldd	r20, Y+2	; 0x02
    2f20:	ce 59       	subi	r28, 0x9E	; 158
    2f22:	d0 40       	sbci	r29, 0x00	; 0
    2f24:	c7 56       	subi	r28, 0x67	; 103
    2f26:	df 4f       	sbci	r29, 0xFF	; 255
    2f28:	28 83       	st	Y, r18
    2f2a:	39 83       	std	Y+1, r19	; 0x01
    2f2c:	4a 83       	std	Y+2, r20	; 0x02
    2f2e:	c9 59       	subi	r28, 0x99	; 153
    2f30:	d0 40       	sbci	r29, 0x00	; 0
    2f32:	cf 57       	subi	r28, 0x7F	; 127
    2f34:	df 4f       	sbci	r29, 0xFF	; 255
    2f36:	19 82       	std	Y+1, r1	; 0x01
    2f38:	18 82       	st	Y, r1
    2f3a:	c1 58       	subi	r28, 0x81	; 129
    2f3c:	d0 40       	sbci	r29, 0x00	; 0
    2f3e:	cb 57       	subi	r28, 0x7B	; 123
    2f40:	df 4f       	sbci	r29, 0xFF	; 255
    2f42:	19 82       	std	Y+1, r1	; 0x01
    2f44:	18 82       	st	Y, r1
    2f46:	c5 58       	subi	r28, 0x85	; 133
    2f48:	d0 40       	sbci	r29, 0x00	; 0
    2f4a:	8f ef       	ldi	r24, 0xFF	; 255
    2f4c:	9f ef       	ldi	r25, 0xFF	; 255
    2f4e:	cd 57       	subi	r28, 0x7D	; 125
    2f50:	df 4f       	sbci	r29, 0xFF	; 255
    2f52:	99 83       	std	Y+1, r25	; 0x01
    2f54:	88 83       	st	Y, r24
    2f56:	c3 58       	subi	r28, 0x83	; 131
    2f58:	d0 40       	sbci	r29, 0x00	; 0
    2f5a:	01 e0       	ldi	r16, 0x01	; 1
    2f5c:	10 e0       	ldi	r17, 0x00	; 0
    2f5e:	46 2d       	mov	r20, r6
    2f60:	92 01       	movw	r18, r4
    2f62:	be 01       	movw	r22, r28
    2f64:	6f 57       	subi	r22, 0x7F	; 127
    2f66:	7f 4f       	sbci	r23, 0xFF	; 255
    2f68:	c4 01       	movw	r24, r8
    2f6a:	0e 94 37 2b 	call	0x566e	; 0x566e <__fmt_s>
    2f6e:	8e 0d       	add	r24, r14
    2f70:	9f 1d       	adc	r25, r15
    2f72:	11 c0       	rjmp	.+34     	; 0x2f96 <__printf_core+0x7f4>
    2f74:	c7 56       	subi	r28, 0x67	; 103
    2f76:	df 4f       	sbci	r29, 0xFF	; 255
    2f78:	88 81       	ld	r24, Y
    2f7a:	99 81       	ldd	r25, Y+1	; 0x01
    2f7c:	aa 81       	ldd	r26, Y+2	; 0x02
    2f7e:	c9 59       	subi	r28, 0x99	; 153
    2f80:	d0 40       	sbci	r29, 0x00	; 0
    2f82:	01 96       	adiw	r24, 0x01	; 1
    2f84:	a1 1d       	adc	r26, r1
    2f86:	c7 56       	subi	r28, 0x67	; 103
    2f88:	df 4f       	sbci	r29, 0xFF	; 255
    2f8a:	88 83       	st	Y, r24
    2f8c:	99 83       	std	Y+1, r25	; 0x01
    2f8e:	aa 83       	std	Y+2, r26	; 0x02
    2f90:	c9 59       	subi	r28, 0x99	; 153
    2f92:	d0 40       	sbci	r29, 0x00	; 0
    2f94:	c7 01       	movw	r24, r14
    2f96:	71 01       	movw	r14, r2
    2f98:	e8 0e       	add	r14, r24
    2f9a:	f9 1e       	adc	r15, r25
    2f9c:	e2 14       	cp	r14, r2
    2f9e:	f3 04       	cpc	r15, r3
    2fa0:	4c f4       	brge	.+18     	; 0x2fb4 <__printf_core+0x812>
    2fa2:	8f e4       	ldi	r24, 0x4F	; 79
    2fa4:	90 e0       	ldi	r25, 0x00	; 0
    2fa6:	90 93 23 01 	sts	0x0123, r25	; 0x800123 <__errno_val+0x1>
    2faa:	80 93 22 01 	sts	0x0122, r24	; 0x800122 <__errno_val>
    2fae:	8f ef       	ldi	r24, 0xFF	; 255
    2fb0:	9f ef       	ldi	r25, 0xFF	; 255
    2fb2:	03 c0       	rjmp	.+6      	; 0x2fba <__printf_core+0x818>
    2fb4:	17 01       	movw	r2, r14
    2fb6:	21 cc       	rjmp	.-1982   	; 0x27fa <__printf_core+0x58>
    2fb8:	c1 01       	movw	r24, r2
    2fba:	cd 55       	subi	r28, 0x5D	; 93
    2fbc:	df 4f       	sbci	r29, 0xFF	; 255
    2fbe:	e2 e1       	ldi	r30, 0x12	; 18
    2fc0:	0c 94 1a 36 	jmp	0x6c34	; 0x6c34 <__epilogue_restores__>

Disassembly of section .text.__read_int:

000053fa <__read_int>:
    53fa:	a0 e0       	ldi	r26, 0x00	; 0
    53fc:	b0 e0       	ldi	r27, 0x00	; 0
    53fe:	e3 e0       	ldi	r30, 0x03	; 3
    5400:	fa e2       	ldi	r31, 0x2A	; 42
    5402:	0c 94 f6 34 	jmp	0x69ec	; 0x69ec <__prologue_saves__+0xc>
    5406:	5c 01       	movw	r10, r24
    5408:	fb 01       	movw	r30, r22
    540a:	4a 01       	movw	r8, r20
    540c:	c4 80       	ldd	r12, Z+4	; 0x04
    540e:	d5 80       	ldd	r13, Z+5	; 0x05
    5410:	00 85       	ldd	r16, Z+8	; 0x08
    5412:	11 85       	ldd	r17, Z+9	; 0x09
    5414:	e6 80       	ldd	r14, Z+6	; 0x06
    5416:	f7 80       	ldd	r15, Z+7	; 0x07
    5418:	0e 94 ef 33 	call	0x67de	; 0x67de <__skipws>
    541c:	f4 01       	movw	r30, r8
    541e:	20 81       	ld	r18, Z
    5420:	31 81       	ldd	r19, Z+1	; 0x01
    5422:	82 0f       	add	r24, r18
    5424:	93 1f       	adc	r25, r19
    5426:	91 83       	std	Z+1, r25	; 0x01
    5428:	80 83       	st	Z, r24
    542a:	c1 14       	cp	r12, r1
    542c:	d1 04       	cpc	r13, r1
    542e:	21 f4       	brne	.+8      	; 0x5438 <__read_int+0x3e>
    5430:	68 01       	movw	r12, r16
    5432:	f1 e0       	ldi	r31, 0x01	; 1
    5434:	cf 1a       	sub	r12, r31
    5436:	d1 08       	sbc	r13, r1
    5438:	c0 e0       	ldi	r28, 0x00	; 0
    543a:	d0 e0       	ldi	r29, 0x00	; 0
    543c:	01 50       	subi	r16, 0x01	; 1
    543e:	11 09       	sbc	r17, r1
    5440:	cc 15       	cp	r28, r12
    5442:	dd 05       	cpc	r29, r13
    5444:	bc f5       	brge	.+110    	; 0x54b4 <__read_int+0xba>
    5446:	c0 17       	cp	r28, r16
    5448:	d1 07       	cpc	r29, r17
    544a:	a4 f5       	brge	.+104    	; 0x54b4 <__read_int+0xba>
    544c:	c5 01       	movw	r24, r10
    544e:	0e 94 a3 2c 	call	0x5946	; 0x5946 <fgetc>
    5452:	8f 3f       	cpi	r24, 0xFF	; 255
    5454:	2f ef       	ldi	r18, 0xFF	; 255
    5456:	92 07       	cpc	r25, r18
    5458:	21 f4       	brne	.+8      	; 0x5462 <__read_int+0x68>
    545a:	1c 16       	cp	r1, r28
    545c:	1d 06       	cpc	r1, r29
    545e:	54 f1       	brlt	.+84     	; 0x54b4 <__read_int+0xba>
    5460:	2f c0       	rjmp	.+94     	; 0x54c0 <__read_int+0xc6>
    5462:	20 97       	sbiw	r28, 0x00	; 0
    5464:	89 f4       	brne	.+34     	; 0x5488 <__read_int+0x8e>
    5466:	8b 32       	cpi	r24, 0x2B	; 43
    5468:	91 05       	cpc	r25, r1
    546a:	19 f0       	breq	.+6      	; 0x5472 <__read_int+0x78>
    546c:	8d 32       	cpi	r24, 0x2D	; 45
    546e:	91 05       	cpc	r25, r1
    5470:	59 f4       	brne	.+22     	; 0x5488 <__read_int+0x8e>
    5472:	f7 01       	movw	r30, r14
    5474:	80 83       	st	Z, r24
    5476:	f4 01       	movw	r30, r8
    5478:	80 81       	ld	r24, Z
    547a:	91 81       	ldd	r25, Z+1	; 0x01
    547c:	01 96       	adiw	r24, 0x01	; 1
    547e:	91 83       	std	Z+1, r25	; 0x01
    5480:	80 83       	st	Z, r24
    5482:	c1 e0       	ldi	r28, 0x01	; 1
    5484:	d0 e0       	ldi	r29, 0x00	; 0
    5486:	dc cf       	rjmp	.-72     	; 0x5440 <__read_int+0x46>
    5488:	9c 01       	movw	r18, r24
    548a:	20 53       	subi	r18, 0x30	; 48
    548c:	31 09       	sbc	r19, r1
    548e:	2a 30       	cpi	r18, 0x0A	; 10
    5490:	31 05       	cpc	r19, r1
    5492:	20 f0       	brcs	.+8      	; 0x549c <__read_int+0xa2>
    5494:	b5 01       	movw	r22, r10
    5496:	0e 94 97 34 	call	0x692e	; 0x692e <ungetc>
    549a:	0c c0       	rjmp	.+24     	; 0x54b4 <__read_int+0xba>
    549c:	f7 01       	movw	r30, r14
    549e:	ec 0f       	add	r30, r28
    54a0:	fd 1f       	adc	r31, r29
    54a2:	80 83       	st	Z, r24
    54a4:	21 96       	adiw	r28, 0x01	; 1
    54a6:	f4 01       	movw	r30, r8
    54a8:	80 81       	ld	r24, Z
    54aa:	91 81       	ldd	r25, Z+1	; 0x01
    54ac:	01 96       	adiw	r24, 0x01	; 1
    54ae:	91 83       	std	Z+1, r25	; 0x01
    54b0:	80 83       	st	Z, r24
    54b2:	c6 cf       	rjmp	.-116    	; 0x5440 <__read_int+0x46>
    54b4:	ce 0d       	add	r28, r14
    54b6:	df 1d       	adc	r29, r15
    54b8:	18 82       	st	Y, r1
    54ba:	80 e0       	ldi	r24, 0x00	; 0
    54bc:	90 e0       	ldi	r25, 0x00	; 0
    54be:	02 c0       	rjmp	.+4      	; 0x54c4 <__read_int+0xca>
    54c0:	8f ef       	ldi	r24, 0xFF	; 255
    54c2:	9f ef       	ldi	r25, 0xFF	; 255
    54c4:	cd b7       	in	r28, 0x3d	; 61
    54c6:	de b7       	in	r29, 0x3e	; 62
    54c8:	ec e0       	ldi	r30, 0x0C	; 12
    54ca:	0c 94 20 36 	jmp	0x6c40	; 0x6c40 <__epilogue_restores__+0xc>

Disassembly of section .text.__scan_d:

0000661c <__scan_d>:
    661c:	0f 93       	push	r16
    661e:	1f 93       	push	r17
    6620:	cf 93       	push	r28
    6622:	df 93       	push	r29
    6624:	eb 01       	movw	r28, r22
    6626:	ba 01       	movw	r22, r20
    6628:	fa 01       	movw	r30, r20
    662a:	06 81       	ldd	r16, Z+6	; 0x06
    662c:	17 81       	ldd	r17, Z+7	; 0x07
    662e:	a9 01       	movw	r20, r18
    6630:	0e 94 fd 29 	call	0x53fa	; 0x53fa <__read_int>
    6634:	8f 3f       	cpi	r24, 0xFF	; 255
    6636:	ff ef       	ldi	r31, 0xFF	; 255
    6638:	9f 07       	cpc	r25, r31
    663a:	91 f0       	breq	.+36     	; 0x6660 <__scan_d+0x44>
    663c:	b8 01       	movw	r22, r16
    663e:	80 e8       	ldi	r24, 0x80	; 128
    6640:	2a e0       	ldi	r18, 0x0A	; 10
    6642:	30 e0       	ldi	r19, 0x00	; 0
    6644:	40 e0       	ldi	r20, 0x00	; 0
    6646:	50 e0       	ldi	r21, 0x00	; 0
    6648:	0e 94 ea 38 	call	0x71d4	; 0x71d4 <strtoll>
    664c:	28 83       	st	Y, r18
    664e:	39 83       	std	Y+1, r19	; 0x01
    6650:	4a 83       	std	Y+2, r20	; 0x02
    6652:	5b 83       	std	Y+3, r21	; 0x03
    6654:	6c 83       	std	Y+4, r22	; 0x04
    6656:	7d 83       	std	Y+5, r23	; 0x05
    6658:	8e 83       	std	Y+6, r24	; 0x06
    665a:	9f 83       	std	Y+7, r25	; 0x07
    665c:	80 e0       	ldi	r24, 0x00	; 0
    665e:	90 e0       	ldi	r25, 0x00	; 0
    6660:	df 91       	pop	r29
    6662:	cf 91       	pop	r28
    6664:	1f 91       	pop	r17
    6666:	0f 91       	pop	r16
    6668:	08 95       	ret

Disassembly of section .text.__scan_i:

0000421a <__scan_i>:
    421a:	a8 e0       	ldi	r26, 0x08	; 8
    421c:	b0 e0       	ldi	r27, 0x00	; 0
    421e:	e3 e1       	ldi	r30, 0x13	; 19
    4220:	f1 e2       	ldi	r31, 0x21	; 33
    4222:	0c 94 f0 34 	jmp	0x69e0	; 0x69e0 <__prologue_saves__>
    4226:	4c 01       	movw	r8, r24
    4228:	78 87       	std	Y+8, r23	; 0x08
    422a:	6f 83       	std	Y+7, r22	; 0x07
    422c:	fa 01       	movw	r30, r20
    422e:	59 01       	movw	r10, r18
    4230:	84 81       	ldd	r24, Z+4	; 0x04
    4232:	95 81       	ldd	r25, Z+5	; 0x05
    4234:	9a 83       	std	Y+2, r25	; 0x02
    4236:	89 83       	std	Y+1, r24	; 0x01
    4238:	e0 84       	ldd	r14, Z+8	; 0x08
    423a:	f1 84       	ldd	r15, Z+9	; 0x09
    423c:	26 80       	ldd	r2, Z+6	; 0x06
    423e:	37 80       	ldd	r3, Z+7	; 0x07
    4240:	c4 01       	movw	r24, r8
    4242:	0e 94 ef 33 	call	0x67de	; 0x67de <__skipws>
    4246:	f5 01       	movw	r30, r10
    4248:	20 81       	ld	r18, Z
    424a:	31 81       	ldd	r19, Z+1	; 0x01
    424c:	82 0f       	add	r24, r18
    424e:	93 1f       	adc	r25, r19
    4250:	91 83       	std	Z+1, r25	; 0x01
    4252:	80 83       	st	Z, r24
    4254:	89 81       	ldd	r24, Y+1	; 0x01
    4256:	9a 81       	ldd	r25, Y+2	; 0x02
    4258:	89 2b       	or	r24, r25
    425a:	21 f4       	brne	.+8      	; 0x4264 <__scan_i+0x4a>
    425c:	f7 01       	movw	r30, r14
    425e:	31 97       	sbiw	r30, 0x01	; 1
    4260:	fa 83       	std	Y+2, r31	; 0x02
    4262:	e9 83       	std	Y+1, r30	; 0x01
    4264:	4a e0       	ldi	r20, 0x0A	; 10
    4266:	c4 2e       	mov	r12, r20
    4268:	d1 2c       	mov	r13, r1
    426a:	61 2c       	mov	r6, r1
    426c:	71 2c       	mov	r7, r1
    426e:	00 e0       	ldi	r16, 0x00	; 0
    4270:	10 e0       	ldi	r17, 0x00	; 0
    4272:	c7 01       	movw	r24, r14
    4274:	01 97       	sbiw	r24, 0x01	; 1
    4276:	9e 83       	std	Y+6, r25	; 0x06
    4278:	8d 83       	std	Y+5, r24	; 0x05
    427a:	89 81       	ldd	r24, Y+1	; 0x01
    427c:	9a 81       	ldd	r25, Y+2	; 0x02
    427e:	08 17       	cp	r16, r24
    4280:	19 07       	cpc	r17, r25
    4282:	0c f0       	brlt	.+2      	; 0x4286 <__scan_i+0x6c>
    4284:	97 c0       	rjmp	.+302    	; 0x43b4 <__scan_i+0x19a>
    4286:	ed 81       	ldd	r30, Y+5	; 0x05
    4288:	fe 81       	ldd	r31, Y+6	; 0x06
    428a:	0e 17       	cp	r16, r30
    428c:	1f 07       	cpc	r17, r31
    428e:	0c f0       	brlt	.+2      	; 0x4292 <__scan_i+0x78>
    4290:	91 c0       	rjmp	.+290    	; 0x43b4 <__scan_i+0x19a>
    4292:	c4 01       	movw	r24, r8
    4294:	0e 94 a3 2c 	call	0x5946	; 0x5946 <fgetc>
    4298:	7c 01       	movw	r14, r24
    429a:	9f ef       	ldi	r25, 0xFF	; 255
    429c:	e9 16       	cp	r14, r25
    429e:	f9 06       	cpc	r15, r25
    42a0:	39 f4       	brne	.+14     	; 0x42b0 <__scan_i+0x96>
    42a2:	10 16       	cp	r1, r16
    42a4:	11 06       	cpc	r1, r17
    42a6:	0c f4       	brge	.+2      	; 0x42aa <__scan_i+0x90>
    42a8:	85 c0       	rjmp	.+266    	; 0x43b4 <__scan_i+0x19a>
    42aa:	8f ef       	ldi	r24, 0xFF	; 255
    42ac:	9f ef       	ldi	r25, 0xFF	; 255
    42ae:	a4 c0       	rjmp	.+328    	; 0x43f8 <__scan_i+0x1de>
    42b0:	01 15       	cp	r16, r1
    42b2:	11 05       	cpc	r17, r1
    42b4:	b1 f4       	brne	.+44     	; 0x42e2 <__scan_i+0xc8>
    42b6:	eb e2       	ldi	r30, 0x2B	; 43
    42b8:	ee 16       	cp	r14, r30
    42ba:	f1 04       	cpc	r15, r1
    42bc:	21 f0       	breq	.+8      	; 0x42c6 <__scan_i+0xac>
    42be:	fd e2       	ldi	r31, 0x2D	; 45
    42c0:	ef 16       	cp	r14, r31
    42c2:	f1 04       	cpc	r15, r1
    42c4:	71 f4       	brne	.+28     	; 0x42e2 <__scan_i+0xc8>
    42c6:	f1 01       	movw	r30, r2
    42c8:	e0 82       	st	Z, r14
    42ca:	f5 01       	movw	r30, r10
    42cc:	80 81       	ld	r24, Z
    42ce:	91 81       	ldd	r25, Z+1	; 0x01
    42d0:	01 96       	adiw	r24, 0x01	; 1
    42d2:	91 83       	std	Z+1, r25	; 0x01
    42d4:	80 83       	st	Z, r24
    42d6:	66 24       	eor	r6, r6
    42d8:	63 94       	inc	r6
    42da:	71 2c       	mov	r7, r1
    42dc:	01 e0       	ldi	r16, 0x01	; 1
    42de:	10 e0       	ldi	r17, 0x00	; 0
    42e0:	cc cf       	rjmp	.-104    	; 0x427a <__scan_i+0x60>
    42e2:	c1 01       	movw	r24, r2
    42e4:	80 0f       	add	r24, r16
    42e6:	91 1f       	adc	r25, r17
    42e8:	9c 83       	std	Y+4, r25	; 0x04
    42ea:	8b 83       	std	Y+3, r24	; 0x03
    42ec:	06 15       	cp	r16, r6
    42ee:	17 05       	cpc	r17, r7
    42f0:	c1 f5       	brne	.+112    	; 0x4362 <__scan_i+0x148>
    42f2:	38 01       	movw	r6, r16
    42f4:	9f ef       	ldi	r25, 0xFF	; 255
    42f6:	69 1a       	sub	r6, r25
    42f8:	79 0a       	sbc	r7, r25
    42fa:	ea e0       	ldi	r30, 0x0A	; 10
    42fc:	ce 16       	cp	r12, r30
    42fe:	d1 04       	cpc	r13, r1
    4300:	41 f4       	brne	.+16     	; 0x4312 <__scan_i+0xf8>
    4302:	f0 e3       	ldi	r31, 0x30	; 48
    4304:	ef 16       	cp	r14, r31
    4306:	f1 04       	cpc	r15, r1
    4308:	51 f5       	brne	.+84     	; 0x435e <__scan_i+0x144>
    430a:	28 e0       	ldi	r18, 0x08	; 8
    430c:	c2 2e       	mov	r12, r18
    430e:	d1 2c       	mov	r13, r1
    4310:	28 c0       	rjmp	.+80     	; 0x4362 <__scan_i+0x148>
    4312:	88 e0       	ldi	r24, 0x08	; 8
    4314:	c8 16       	cp	r12, r24
    4316:	d1 04       	cpc	r13, r1
    4318:	11 f5       	brne	.+68     	; 0x435e <__scan_i+0x144>
    431a:	c7 01       	movw	r24, r14
    431c:	80 62       	ori	r24, 0x20	; 32
    431e:	88 37       	cpi	r24, 0x78	; 120
    4320:	91 05       	cpc	r25, r1
    4322:	e9 f4       	brne	.+58     	; 0x435e <__scan_i+0x144>
    4324:	c4 01       	movw	r24, r8
    4326:	0e 94 a3 2c 	call	0x5946	; 0x5946 <fgetc>
    432a:	2c 01       	movw	r4, r24
    432c:	b4 01       	movw	r22, r8
    432e:	0e 94 97 34 	call	0x692e	; 0x692e <ungetc>
    4332:	c2 01       	movw	r24, r4
    4334:	0e 94 8a 37 	call	0x6f14	; 0x6f14 <isxdigit>
    4338:	89 2b       	or	r24, r25
    433a:	71 f0       	breq	.+28     	; 0x4358 <__scan_i+0x13e>
    433c:	eb 81       	ldd	r30, Y+3	; 0x03
    433e:	fc 81       	ldd	r31, Y+4	; 0x04
    4340:	e0 82       	st	Z, r14
    4342:	83 01       	movw	r16, r6
    4344:	f5 01       	movw	r30, r10
    4346:	80 81       	ld	r24, Z
    4348:	91 81       	ldd	r25, Z+1	; 0x01
    434a:	01 96       	adiw	r24, 0x01	; 1
    434c:	91 83       	std	Z+1, r25	; 0x01
    434e:	80 83       	st	Z, r24
    4350:	90 e1       	ldi	r25, 0x10	; 16
    4352:	c9 2e       	mov	r12, r25
    4354:	d1 2c       	mov	r13, r1
    4356:	91 cf       	rjmp	.-222    	; 0x427a <__scan_i+0x60>
    4358:	b4 01       	movw	r22, r8
    435a:	c2 01       	movw	r24, r4
    435c:	11 c0       	rjmp	.+34     	; 0x4380 <__scan_i+0x166>
    435e:	61 2c       	mov	r6, r1
    4360:	71 2c       	mov	r7, r1
    4362:	c7 01       	movw	r24, r14
    4364:	c0 97       	sbiw	r24, 0x30	; 48
    4366:	0a 97       	sbiw	r24, 0x0a	; 10
    4368:	70 f0       	brcs	.+28     	; 0x4386 <__scan_i+0x16c>
    436a:	f0 e1       	ldi	r31, 0x10	; 16
    436c:	cf 16       	cp	r12, r31
    436e:	d1 04       	cpc	r13, r1
    4370:	29 f4       	brne	.+10     	; 0x437c <__scan_i+0x162>
    4372:	c7 01       	movw	r24, r14
    4374:	0e 94 8a 37 	call	0x6f14	; 0x6f14 <isxdigit>
    4378:	89 2b       	or	r24, r25
    437a:	81 f4       	brne	.+32     	; 0x439c <__scan_i+0x182>
    437c:	b4 01       	movw	r22, r8
    437e:	c7 01       	movw	r24, r14
    4380:	0e 94 97 34 	call	0x692e	; 0x692e <ungetc>
    4384:	17 c0       	rjmp	.+46     	; 0x43b4 <__scan_i+0x19a>
    4386:	88 e0       	ldi	r24, 0x08	; 8
    4388:	c8 16       	cp	r12, r24
    438a:	d1 04       	cpc	r13, r1
    438c:	39 f4       	brne	.+14     	; 0x439c <__scan_i+0x182>
    438e:	98 e3       	ldi	r25, 0x38	; 56
    4390:	e9 16       	cp	r14, r25
    4392:	f1 04       	cpc	r15, r1
    4394:	1c f0       	brlt	.+6      	; 0x439c <__scan_i+0x182>
    4396:	8a e0       	ldi	r24, 0x0A	; 10
    4398:	c8 2e       	mov	r12, r24
    439a:	d1 2c       	mov	r13, r1
    439c:	eb 81       	ldd	r30, Y+3	; 0x03
    439e:	fc 81       	ldd	r31, Y+4	; 0x04
    43a0:	e0 82       	st	Z, r14
    43a2:	0f 5f       	subi	r16, 0xFF	; 255
    43a4:	1f 4f       	sbci	r17, 0xFF	; 255
    43a6:	f5 01       	movw	r30, r10
    43a8:	80 81       	ld	r24, Z
    43aa:	91 81       	ldd	r25, Z+1	; 0x01
    43ac:	01 96       	adiw	r24, 0x01	; 1
    43ae:	91 83       	std	Z+1, r25	; 0x01
    43b0:	80 83       	st	Z, r24
    43b2:	63 cf       	rjmp	.-314    	; 0x427a <__scan_i+0x60>
    43b4:	f1 01       	movw	r30, r2
    43b6:	e0 0f       	add	r30, r16
    43b8:	f1 1f       	adc	r31, r17
    43ba:	10 82       	st	Z, r1
    43bc:	b1 01       	movw	r22, r2
    43be:	80 e8       	ldi	r24, 0x80	; 128
    43c0:	fa e0       	ldi	r31, 0x0A	; 10
    43c2:	cf 16       	cp	r12, r31
    43c4:	d1 04       	cpc	r13, r1
    43c6:	39 f4       	brne	.+14     	; 0x43d6 <__scan_i+0x1bc>
    43c8:	2a e0       	ldi	r18, 0x0A	; 10
    43ca:	30 e0       	ldi	r19, 0x00	; 0
    43cc:	40 e0       	ldi	r20, 0x00	; 0
    43ce:	50 e0       	ldi	r21, 0x00	; 0
    43d0:	0e 94 ea 38 	call	0x71d4	; 0x71d4 <strtoll>
    43d4:	05 c0       	rjmp	.+10     	; 0x43e0 <__scan_i+0x1c6>
    43d6:	96 01       	movw	r18, r12
    43d8:	40 e0       	ldi	r20, 0x00	; 0
    43da:	50 e0       	ldi	r21, 0x00	; 0
    43dc:	0e 94 f0 38 	call	0x71e0	; 0x71e0 <strtoull>
    43e0:	ef 81       	ldd	r30, Y+7	; 0x07
    43e2:	f8 85       	ldd	r31, Y+8	; 0x08
    43e4:	20 83       	st	Z, r18
    43e6:	31 83       	std	Z+1, r19	; 0x01
    43e8:	42 83       	std	Z+2, r20	; 0x02
    43ea:	53 83       	std	Z+3, r21	; 0x03
    43ec:	64 83       	std	Z+4, r22	; 0x04
    43ee:	75 83       	std	Z+5, r23	; 0x05
    43f0:	86 83       	std	Z+6, r24	; 0x06
    43f2:	97 83       	std	Z+7, r25	; 0x07
    43f4:	80 e0       	ldi	r24, 0x00	; 0
    43f6:	90 e0       	ldi	r25, 0x00	; 0
    43f8:	28 96       	adiw	r28, 0x08	; 8
    43fa:	e2 e1       	ldi	r30, 0x12	; 18
    43fc:	0c 94 1a 36 	jmp	0x6c34	; 0x6c34 <__epilogue_restores__>

Disassembly of section .text.__scan_o:

00005324 <__scan_o>:
    5324:	a0 e0       	ldi	r26, 0x00	; 0
    5326:	b0 e0       	ldi	r27, 0x00	; 0
    5328:	e8 e9       	ldi	r30, 0x98	; 152
    532a:	f9 e2       	ldi	r31, 0x29	; 41
    532c:	0c 94 f2 34 	jmp	0x69e4	; 0x69e4 <__prologue_saves__+0x4>
    5330:	4c 01       	movw	r8, r24
    5332:	eb 01       	movw	r28, r22
    5334:	fa 01       	movw	r30, r20
    5336:	69 01       	movw	r12, r18
    5338:	a4 80       	ldd	r10, Z+4	; 0x04
    533a:	b5 80       	ldd	r11, Z+5	; 0x05
    533c:	60 84       	ldd	r6, Z+8	; 0x08
    533e:	71 84       	ldd	r7, Z+9	; 0x09
    5340:	e6 80       	ldd	r14, Z+6	; 0x06
    5342:	f7 80       	ldd	r15, Z+7	; 0x07
    5344:	0e 94 ef 33 	call	0x67de	; 0x67de <__skipws>
    5348:	f6 01       	movw	r30, r12
    534a:	20 81       	ld	r18, Z
    534c:	31 81       	ldd	r19, Z+1	; 0x01
    534e:	82 0f       	add	r24, r18
    5350:	93 1f       	adc	r25, r19
    5352:	91 83       	std	Z+1, r25	; 0x01
    5354:	80 83       	st	Z, r24
    5356:	a1 14       	cp	r10, r1
    5358:	b1 04       	cpc	r11, r1
    535a:	21 f4       	brne	.+8      	; 0x5364 <__scan_o+0x40>
    535c:	53 01       	movw	r10, r6
    535e:	f1 e0       	ldi	r31, 0x01	; 1
    5360:	af 1a       	sub	r10, r31
    5362:	b1 08       	sbc	r11, r1
    5364:	27 01       	movw	r4, r14
    5366:	00 e0       	ldi	r16, 0x00	; 0
    5368:	10 e0       	ldi	r17, 0x00	; 0
    536a:	21 e0       	ldi	r18, 0x01	; 1
    536c:	62 1a       	sub	r6, r18
    536e:	71 08       	sbc	r7, r1
    5370:	0a 15       	cp	r16, r10
    5372:	1b 05       	cpc	r17, r11
    5374:	24 f5       	brge	.+72     	; 0x53be <__scan_o+0x9a>
    5376:	06 15       	cp	r16, r6
    5378:	17 05       	cpc	r17, r7
    537a:	0c f5       	brge	.+66     	; 0x53be <__scan_o+0x9a>
    537c:	c4 01       	movw	r24, r8
    537e:	0e 94 a3 2c 	call	0x5946	; 0x5946 <fgetc>
    5382:	8f 3f       	cpi	r24, 0xFF	; 255
    5384:	ef ef       	ldi	r30, 0xFF	; 255
    5386:	9e 07       	cpc	r25, r30
    5388:	21 f4       	brne	.+8      	; 0x5392 <__scan_o+0x6e>
    538a:	10 16       	cp	r1, r16
    538c:	11 06       	cpc	r1, r17
    538e:	bc f0       	brlt	.+46     	; 0x53be <__scan_o+0x9a>
    5390:	2d c0       	rjmp	.+90     	; 0x53ec <__scan_o+0xc8>
    5392:	9c 01       	movw	r18, r24
    5394:	20 53       	subi	r18, 0x30	; 48
    5396:	31 09       	sbc	r19, r1
    5398:	28 30       	cpi	r18, 0x08	; 8
    539a:	31 05       	cpc	r19, r1
    539c:	20 f0       	brcs	.+8      	; 0x53a6 <__scan_o+0x82>
    539e:	b4 01       	movw	r22, r8
    53a0:	0e 94 97 34 	call	0x692e	; 0x692e <ungetc>
    53a4:	0c c0       	rjmp	.+24     	; 0x53be <__scan_o+0x9a>
    53a6:	f2 01       	movw	r30, r4
    53a8:	81 93       	st	Z+, r24
    53aa:	2f 01       	movw	r4, r30
    53ac:	0f 5f       	subi	r16, 0xFF	; 255
    53ae:	1f 4f       	sbci	r17, 0xFF	; 255
    53b0:	f6 01       	movw	r30, r12
    53b2:	80 81       	ld	r24, Z
    53b4:	91 81       	ldd	r25, Z+1	; 0x01
    53b6:	01 96       	adiw	r24, 0x01	; 1
    53b8:	91 83       	std	Z+1, r25	; 0x01
    53ba:	80 83       	st	Z, r24
    53bc:	d9 cf       	rjmp	.-78     	; 0x5370 <__scan_o+0x4c>
    53be:	f7 01       	movw	r30, r14
    53c0:	e0 0f       	add	r30, r16
    53c2:	f1 1f       	adc	r31, r17
    53c4:	10 82       	st	Z, r1
    53c6:	b7 01       	movw	r22, r14
    53c8:	80 e8       	ldi	r24, 0x80	; 128
    53ca:	28 e0       	ldi	r18, 0x08	; 8
    53cc:	30 e0       	ldi	r19, 0x00	; 0
    53ce:	40 e0       	ldi	r20, 0x00	; 0
    53d0:	50 e0       	ldi	r21, 0x00	; 0
    53d2:	0e 94 f0 38 	call	0x71e0	; 0x71e0 <strtoull>
    53d6:	28 83       	st	Y, r18
    53d8:	39 83       	std	Y+1, r19	; 0x01
    53da:	4a 83       	std	Y+2, r20	; 0x02
    53dc:	5b 83       	std	Y+3, r21	; 0x03
    53de:	6c 83       	std	Y+4, r22	; 0x04
    53e0:	7d 83       	std	Y+5, r23	; 0x05
    53e2:	8e 83       	std	Y+6, r24	; 0x06
    53e4:	9f 83       	std	Y+7, r25	; 0x07
    53e6:	80 e0       	ldi	r24, 0x00	; 0
    53e8:	90 e0       	ldi	r25, 0x00	; 0
    53ea:	02 c0       	rjmp	.+4      	; 0x53f0 <__scan_o+0xcc>
    53ec:	8f ef       	ldi	r24, 0xFF	; 255
    53ee:	9f ef       	ldi	r25, 0xFF	; 255
    53f0:	cd b7       	in	r28, 0x3d	; 61
    53f2:	de b7       	in	r29, 0x3e	; 62
    53f4:	e0 e1       	ldi	r30, 0x10	; 16
    53f6:	0c 94 1c 36 	jmp	0x6c38	; 0x6c38 <__epilogue_restores__+0x4>

Disassembly of section .text.__scan_s:

000055a2 <__scan_s>:
    55a2:	a0 e0       	ldi	r26, 0x00	; 0
    55a4:	b0 e0       	ldi	r27, 0x00	; 0
    55a6:	e7 ed       	ldi	r30, 0xD7	; 215
    55a8:	fa e2       	ldi	r31, 0x2A	; 42
    55aa:	0c 94 f4 34 	jmp	0x69e8	; 0x69e8 <__prologue_saves__+0x8>
    55ae:	6c 01       	movw	r12, r24
    55b0:	eb 01       	movw	r28, r22
    55b2:	5a 01       	movw	r10, r20
    55b4:	79 01       	movw	r14, r18
    55b6:	45 2b       	or	r20, r21
    55b8:	49 f0       	breq	.+18     	; 0x55cc <__scan_s+0x2a>
    55ba:	0e 94 ef 33 	call	0x67de	; 0x67de <__skipws>
    55be:	f7 01       	movw	r30, r14
    55c0:	20 81       	ld	r18, Z
    55c2:	31 81       	ldd	r19, Z+1	; 0x01
    55c4:	82 0f       	add	r24, r18
    55c6:	93 1f       	adc	r25, r19
    55c8:	91 83       	std	Z+1, r25	; 0x01
    55ca:	80 83       	st	Z, r24
    55cc:	6c 80       	ldd	r6, Y+4	; 0x04
    55ce:	7d 80       	ldd	r7, Y+5	; 0x05
    55d0:	48 01       	movw	r8, r16
    55d2:	c0 e0       	ldi	r28, 0x00	; 0
    55d4:	d0 e0       	ldi	r29, 0x00	; 0
    55d6:	61 14       	cp	r6, r1
    55d8:	71 04       	cpc	r7, r1
    55da:	49 f5       	brne	.+82     	; 0x562e <__scan_s+0x8c>
    55dc:	c6 01       	movw	r24, r12
    55de:	0e 94 a3 2c 	call	0x5946	; 0x5946 <fgetc>
    55e2:	8f 3f       	cpi	r24, 0xFF	; 255
    55e4:	ff ef       	ldi	r31, 0xFF	; 255
    55e6:	9f 07       	cpc	r25, r31
    55e8:	31 f4       	brne	.+12     	; 0x55f6 <__scan_s+0x54>
    55ea:	20 97       	sbiw	r28, 0x00	; 0
    55ec:	89 f1       	breq	.+98     	; 0x5650 <__scan_s+0xae>
    55ee:	01 15       	cp	r16, r1
    55f0:	11 05       	cpc	r17, r1
    55f2:	09 f5       	brne	.+66     	; 0x5636 <__scan_s+0x94>
    55f4:	27 c0       	rjmp	.+78     	; 0x5644 <__scan_s+0xa2>
    55f6:	a1 14       	cp	r10, r1
    55f8:	b1 04       	cpc	r11, r1
    55fa:	49 f0       	breq	.+18     	; 0x560e <__scan_s+0x6c>
    55fc:	80 32       	cpi	r24, 0x20	; 32
    55fe:	91 05       	cpc	r25, r1
    5600:	51 f1       	breq	.+84     	; 0x5656 <__scan_s+0xb4>
    5602:	9c 01       	movw	r18, r24
    5604:	29 50       	subi	r18, 0x09	; 9
    5606:	31 09       	sbc	r19, r1
    5608:	25 30       	cpi	r18, 0x05	; 5
    560a:	31 05       	cpc	r19, r1
    560c:	20 f1       	brcs	.+72     	; 0x5656 <__scan_s+0xb4>
    560e:	01 15       	cp	r16, r1
    5610:	11 05       	cpc	r17, r1
    5612:	11 f0       	breq	.+4      	; 0x5618 <__scan_s+0x76>
    5614:	f4 01       	movw	r30, r8
    5616:	80 83       	st	Z, r24
    5618:	21 96       	adiw	r28, 0x01	; 1
    561a:	f7 01       	movw	r30, r14
    561c:	80 81       	ld	r24, Z
    561e:	91 81       	ldd	r25, Z+1	; 0x01
    5620:	01 96       	adiw	r24, 0x01	; 1
    5622:	91 83       	std	Z+1, r25	; 0x01
    5624:	80 83       	st	Z, r24
    5626:	ff ef       	ldi	r31, 0xFF	; 255
    5628:	8f 1a       	sub	r8, r31
    562a:	9f 0a       	sbc	r9, r31
    562c:	d4 cf       	rjmp	.-88     	; 0x55d6 <__scan_s+0x34>
    562e:	c6 15       	cp	r28, r6
    5630:	d7 05       	cpc	r29, r7
    5632:	a4 f2       	brlt	.-88     	; 0x55dc <__scan_s+0x3a>
    5634:	dc cf       	rjmp	.-72     	; 0x55ee <__scan_s+0x4c>
    5636:	a1 14       	cp	r10, r1
    5638:	b1 04       	cpc	r11, r1
    563a:	21 f0       	breq	.+8      	; 0x5644 <__scan_s+0xa2>
    563c:	f8 01       	movw	r30, r16
    563e:	ec 0f       	add	r30, r28
    5640:	fd 1f       	adc	r31, r29
    5642:	10 82       	st	Z, r1
    5644:	81 e0       	ldi	r24, 0x01	; 1
    5646:	90 e0       	ldi	r25, 0x00	; 0
    5648:	cd 2b       	or	r28, r29
    564a:	61 f4       	brne	.+24     	; 0x5664 <__scan_s+0xc2>
    564c:	80 e0       	ldi	r24, 0x00	; 0
    564e:	0a c0       	rjmp	.+20     	; 0x5664 <__scan_s+0xc2>
    5650:	8f ef       	ldi	r24, 0xFF	; 255
    5652:	9f ef       	ldi	r25, 0xFF	; 255
    5654:	07 c0       	rjmp	.+14     	; 0x5664 <__scan_s+0xc2>
    5656:	b6 01       	movw	r22, r12
    5658:	0e 94 97 34 	call	0x692e	; 0x692e <ungetc>
    565c:	01 15       	cp	r16, r1
    565e:	11 05       	cpc	r17, r1
    5660:	89 f3       	breq	.-30     	; 0x5644 <__scan_s+0xa2>
    5662:	ec cf       	rjmp	.-40     	; 0x563c <__scan_s+0x9a>
    5664:	cd b7       	in	r28, 0x3d	; 61
    5666:	de b7       	in	r29, 0x3e	; 62
    5668:	ee e0       	ldi	r30, 0x0E	; 14
    566a:	0c 94 1e 36 	jmp	0x6c3c	; 0x6c3c <__epilogue_restores__+0x8>

Disassembly of section .text.__scan_u:

0000666a <__scan_u>:
    666a:	0f 93       	push	r16
    666c:	1f 93       	push	r17
    666e:	cf 93       	push	r28
    6670:	df 93       	push	r29
    6672:	eb 01       	movw	r28, r22
    6674:	ba 01       	movw	r22, r20
    6676:	fa 01       	movw	r30, r20
    6678:	06 81       	ldd	r16, Z+6	; 0x06
    667a:	17 81       	ldd	r17, Z+7	; 0x07
    667c:	a9 01       	movw	r20, r18
    667e:	0e 94 fd 29 	call	0x53fa	; 0x53fa <__read_int>
    6682:	8f 3f       	cpi	r24, 0xFF	; 255
    6684:	ff ef       	ldi	r31, 0xFF	; 255
    6686:	9f 07       	cpc	r25, r31
    6688:	91 f0       	breq	.+36     	; 0x66ae <__scan_u+0x44>
    668a:	b8 01       	movw	r22, r16
    668c:	80 e8       	ldi	r24, 0x80	; 128
    668e:	2a e0       	ldi	r18, 0x0A	; 10
    6690:	30 e0       	ldi	r19, 0x00	; 0
    6692:	40 e0       	ldi	r20, 0x00	; 0
    6694:	50 e0       	ldi	r21, 0x00	; 0
    6696:	0e 94 f0 38 	call	0x71e0	; 0x71e0 <strtoull>
    669a:	28 83       	st	Y, r18
    669c:	39 83       	std	Y+1, r19	; 0x01
    669e:	4a 83       	std	Y+2, r20	; 0x02
    66a0:	5b 83       	std	Y+3, r21	; 0x03
    66a2:	6c 83       	std	Y+4, r22	; 0x04
    66a4:	7d 83       	std	Y+5, r23	; 0x05
    66a6:	8e 83       	std	Y+6, r24	; 0x06
    66a8:	9f 83       	std	Y+7, r25	; 0x07
    66aa:	80 e0       	ldi	r24, 0x00	; 0
    66ac:	90 e0       	ldi	r25, 0x00	; 0
    66ae:	df 91       	pop	r29
    66b0:	cf 91       	pop	r28
    66b2:	1f 91       	pop	r17
    66b4:	0f 91       	pop	r16
    66b6:	08 95       	ret

Disassembly of section .text.__scan_x:

00004b88 <__scan_x>:
    4b88:	a4 e0       	ldi	r26, 0x04	; 4
    4b8a:	b0 e0       	ldi	r27, 0x00	; 0
    4b8c:	ea ec       	ldi	r30, 0xCA	; 202
    4b8e:	f5 e2       	ldi	r31, 0x25	; 37
    4b90:	0c 94 f0 34 	jmp	0x69e0	; 0x69e0 <__prologue_saves__>
    4b94:	7c 01       	movw	r14, r24
    4b96:	7c 83       	std	Y+4, r23	; 0x04
    4b98:	6b 83       	std	Y+3, r22	; 0x03
    4b9a:	fa 01       	movw	r30, r20
    4b9c:	59 01       	movw	r10, r18
    4b9e:	44 80       	ldd	r4, Z+4	; 0x04
    4ba0:	55 80       	ldd	r5, Z+5	; 0x05
    4ba2:	c0 84       	ldd	r12, Z+8	; 0x08
    4ba4:	d1 84       	ldd	r13, Z+9	; 0x09
    4ba6:	66 80       	ldd	r6, Z+6	; 0x06
    4ba8:	77 80       	ldd	r7, Z+7	; 0x07
    4baa:	0e 94 ef 33 	call	0x67de	; 0x67de <__skipws>
    4bae:	f5 01       	movw	r30, r10
    4bb0:	20 81       	ld	r18, Z
    4bb2:	31 81       	ldd	r19, Z+1	; 0x01
    4bb4:	82 0f       	add	r24, r18
    4bb6:	93 1f       	adc	r25, r19
    4bb8:	91 83       	std	Z+1, r25	; 0x01
    4bba:	80 83       	st	Z, r24
    4bbc:	41 14       	cp	r4, r1
    4bbe:	51 04       	cpc	r5, r1
    4bc0:	21 f4       	brne	.+8      	; 0x4bca <__scan_x+0x42>
    4bc2:	26 01       	movw	r4, r12
    4bc4:	f1 e0       	ldi	r31, 0x01	; 1
    4bc6:	4f 1a       	sub	r4, r31
    4bc8:	51 08       	sbc	r5, r1
    4bca:	13 01       	movw	r2, r6
    4bcc:	00 e0       	ldi	r16, 0x00	; 0
    4bce:	10 e0       	ldi	r17, 0x00	; 0
    4bd0:	c6 01       	movw	r24, r12
    4bd2:	01 97       	sbiw	r24, 0x01	; 1
    4bd4:	9a 83       	std	Y+2, r25	; 0x02
    4bd6:	89 83       	std	Y+1, r24	; 0x01
    4bd8:	04 15       	cp	r16, r4
    4bda:	15 05       	cpc	r17, r5
    4bdc:	0c f0       	brlt	.+2      	; 0x4be0 <__scan_x+0x58>
    4bde:	42 c0       	rjmp	.+132    	; 0x4c64 <__scan_x+0xdc>
    4be0:	89 81       	ldd	r24, Y+1	; 0x01
    4be2:	9a 81       	ldd	r25, Y+2	; 0x02
    4be4:	08 17       	cp	r16, r24
    4be6:	19 07       	cpc	r17, r25
    4be8:	ec f5       	brge	.+122    	; 0x4c64 <__scan_x+0xdc>
    4bea:	c7 01       	movw	r24, r14
    4bec:	0e 94 a3 2c 	call	0x5946	; 0x5946 <fgetc>
    4bf0:	6c 01       	movw	r12, r24
    4bf2:	9f ef       	ldi	r25, 0xFF	; 255
    4bf4:	c9 16       	cp	r12, r25
    4bf6:	d9 06       	cpc	r13, r25
    4bf8:	31 f4       	brne	.+12     	; 0x4c06 <__scan_x+0x7e>
    4bfa:	10 16       	cp	r1, r16
    4bfc:	11 06       	cpc	r1, r17
    4bfe:	94 f1       	brlt	.+100    	; 0x4c64 <__scan_x+0xdc>
    4c00:	8f ef       	ldi	r24, 0xFF	; 255
    4c02:	9f ef       	ldi	r25, 0xFF	; 255
    4c04:	64 c0       	rjmp	.+200    	; 0x4cce <__scan_x+0x146>
    4c06:	c6 01       	movw	r24, r12
    4c08:	0e 94 8a 37 	call	0x6f14	; 0x6f14 <isxdigit>
    4c0c:	89 2b       	or	r24, r25
    4c0e:	f1 f4       	brne	.+60     	; 0x4c4c <__scan_x+0xc4>
    4c10:	01 30       	cpi	r16, 0x01	; 1
    4c12:	11 05       	cpc	r17, r1
    4c14:	b1 f4       	brne	.+44     	; 0x4c42 <__scan_x+0xba>
    4c16:	c6 01       	movw	r24, r12
    4c18:	0e 94 c7 38 	call	0x718e	; 0x718e <tolower>
    4c1c:	88 37       	cpi	r24, 0x78	; 120
    4c1e:	91 05       	cpc	r25, r1
    4c20:	81 f4       	brne	.+32     	; 0x4c42 <__scan_x+0xba>
    4c22:	f3 01       	movw	r30, r6
    4c24:	80 81       	ld	r24, Z
    4c26:	80 33       	cpi	r24, 0x30	; 48
    4c28:	61 f4       	brne	.+24     	; 0x4c42 <__scan_x+0xba>
    4c2a:	c7 01       	movw	r24, r14
    4c2c:	0e 94 a3 2c 	call	0x5946	; 0x5946 <fgetc>
    4c30:	4c 01       	movw	r8, r24
    4c32:	b7 01       	movw	r22, r14
    4c34:	0e 94 97 34 	call	0x692e	; 0x692e <ungetc>
    4c38:	c4 01       	movw	r24, r8
    4c3a:	0e 94 8a 37 	call	0x6f14	; 0x6f14 <isxdigit>
    4c3e:	89 2b       	or	r24, r25
    4c40:	29 f4       	brne	.+10     	; 0x4c4c <__scan_x+0xc4>
    4c42:	b7 01       	movw	r22, r14
    4c44:	c6 01       	movw	r24, r12
    4c46:	0e 94 97 34 	call	0x692e	; 0x692e <ungetc>
    4c4a:	0c c0       	rjmp	.+24     	; 0x4c64 <__scan_x+0xdc>
    4c4c:	f1 01       	movw	r30, r2
    4c4e:	c1 92       	st	Z+, r12
    4c50:	1f 01       	movw	r2, r30
    4c52:	0f 5f       	subi	r16, 0xFF	; 255
    4c54:	1f 4f       	sbci	r17, 0xFF	; 255
    4c56:	f5 01       	movw	r30, r10
    4c58:	80 81       	ld	r24, Z
    4c5a:	91 81       	ldd	r25, Z+1	; 0x01
    4c5c:	01 96       	adiw	r24, 0x01	; 1
    4c5e:	91 83       	std	Z+1, r25	; 0x01
    4c60:	80 83       	st	Z, r24
    4c62:	ba cf       	rjmp	.-140    	; 0x4bd8 <__scan_x+0x50>
    4c64:	d3 01       	movw	r26, r6
    4c66:	a0 0f       	add	r26, r16
    4c68:	b1 1f       	adc	r27, r17
    4c6a:	1c 92       	st	X, r1
    4c6c:	03 30       	cpi	r16, 0x03	; 3
    4c6e:	11 05       	cpc	r17, r1
    4c70:	3c f4       	brge	.+14     	; 0x4c80 <__scan_x+0xf8>
    4c72:	eb 81       	ldd	r30, Y+3	; 0x03
    4c74:	fc 81       	ldd	r31, Y+4	; 0x04
    4c76:	10 82       	st	Z, r1
    4c78:	11 82       	std	Z+1, r1	; 0x01
    4c7a:	12 82       	std	Z+2, r1	; 0x02
    4c7c:	13 82       	std	Z+3, r1	; 0x03
    4c7e:	21 c0       	rjmp	.+66     	; 0x4cc2 <__scan_x+0x13a>
    4c80:	f3 01       	movw	r30, r6
    4c82:	32 96       	adiw	r30, 0x02	; 2
    4c84:	00 e0       	ldi	r16, 0x00	; 0
    4c86:	10 e0       	ldi	r17, 0x00	; 0
    4c88:	98 01       	movw	r18, r16
    4c8a:	81 91       	ld	r24, Z+
    4c8c:	90 ed       	ldi	r25, 0xD0	; 208
    4c8e:	98 0f       	add	r25, r24
    4c90:	9a 30       	cpi	r25, 0x0A	; 10
    4c92:	18 f0       	brcs	.+6      	; 0x4c9a <__scan_x+0x112>
    4c94:	80 62       	ori	r24, 0x20	; 32
    4c96:	99 ea       	ldi	r25, 0xA9	; 169
    4c98:	98 0f       	add	r25, r24
    4c9a:	84 e0       	ldi	r24, 0x04	; 4
    4c9c:	00 0f       	add	r16, r16
    4c9e:	11 1f       	adc	r17, r17
    4ca0:	22 1f       	adc	r18, r18
    4ca2:	33 1f       	adc	r19, r19
    4ca4:	8a 95       	dec	r24
    4ca6:	d1 f7       	brne	.-12     	; 0x4c9c <__scan_x+0x114>
    4ca8:	09 0f       	add	r16, r25
    4caa:	11 1d       	adc	r17, r1
    4cac:	21 1d       	adc	r18, r1
    4cae:	31 1d       	adc	r19, r1
    4cb0:	ae 17       	cp	r26, r30
    4cb2:	bf 07       	cpc	r27, r31
    4cb4:	51 f7       	brne	.-44     	; 0x4c8a <__scan_x+0x102>
    4cb6:	eb 81       	ldd	r30, Y+3	; 0x03
    4cb8:	fc 81       	ldd	r31, Y+4	; 0x04
    4cba:	00 83       	st	Z, r16
    4cbc:	11 83       	std	Z+1, r17	; 0x01
    4cbe:	22 83       	std	Z+2, r18	; 0x02
    4cc0:	33 83       	std	Z+3, r19	; 0x03
    4cc2:	14 82       	std	Z+4, r1	; 0x04
    4cc4:	15 82       	std	Z+5, r1	; 0x05
    4cc6:	16 82       	std	Z+6, r1	; 0x06
    4cc8:	17 82       	std	Z+7, r1	; 0x07
    4cca:	80 e0       	ldi	r24, 0x00	; 0
    4ccc:	90 e0       	ldi	r25, 0x00	; 0
    4cce:	24 96       	adiw	r28, 0x04	; 4
    4cd0:	e2 e1       	ldi	r30, 0x12	; 18
    4cd2:	0c 94 1a 36 	jmp	0x6c34	; 0x6c34 <__epilogue_restores__>

Disassembly of section .text.__skipws:

000067de <__skipws>:
    67de:	0f 93       	push	r16
    67e0:	1f 93       	push	r17
    67e2:	cf 93       	push	r28
    67e4:	df 93       	push	r29
    67e6:	8c 01       	movw	r16, r24
    67e8:	c0 e0       	ldi	r28, 0x00	; 0
    67ea:	d0 e0       	ldi	r29, 0x00	; 0
    67ec:	c8 01       	movw	r24, r16
    67ee:	0e 94 a3 2c 	call	0x5946	; 0x5946 <fgetc>
    67f2:	8f 3f       	cpi	r24, 0xFF	; 255
    67f4:	2f ef       	ldi	r18, 0xFF	; 255
    67f6:	92 07       	cpc	r25, r18
    67f8:	79 f0       	breq	.+30     	; 0x6818 <__skipws+0x3a>
    67fa:	80 32       	cpi	r24, 0x20	; 32
    67fc:	91 05       	cpc	r25, r1
    67fe:	51 f0       	breq	.+20     	; 0x6814 <__skipws+0x36>
    6800:	9c 01       	movw	r18, r24
    6802:	29 50       	subi	r18, 0x09	; 9
    6804:	31 09       	sbc	r19, r1
    6806:	25 30       	cpi	r18, 0x05	; 5
    6808:	31 05       	cpc	r19, r1
    680a:	20 f0       	brcs	.+8      	; 0x6814 <__skipws+0x36>
    680c:	b8 01       	movw	r22, r16
    680e:	0e 94 97 34 	call	0x692e	; 0x692e <ungetc>
    6812:	02 c0       	rjmp	.+4      	; 0x6818 <__skipws+0x3a>
    6814:	21 96       	adiw	r28, 0x01	; 1
    6816:	ea cf       	rjmp	.-44     	; 0x67ec <__skipws+0xe>
    6818:	ce 01       	movw	r24, r28
    681a:	df 91       	pop	r29
    681c:	cf 91       	pop	r28
    681e:	1f 91       	pop	r17
    6820:	0f 91       	pop	r16
    6822:	08 95       	ret

Disassembly of section .text.__consumews:

000064ae <__consumews>:
    64ae:	cf 93       	push	r28
    64b0:	df 93       	push	r29
    64b2:	eb 01       	movw	r28, r22
    64b4:	48 81       	ld	r20, Y
    64b6:	29 81       	ldd	r18, Y+1	; 0x01
    64b8:	3a 81       	ldd	r19, Y+2	; 0x02
    64ba:	e4 2f       	mov	r30, r20
    64bc:	f2 2f       	mov	r31, r18
    64be:	24 91       	lpm	r18, Z
    64c0:	37 fd       	sbrc	r19, 7
    64c2:	20 81       	ld	r18, Z
    64c4:	20 32       	cpi	r18, 0x20	; 32
    64c6:	59 f0       	breq	.+22     	; 0x64de <__consumews+0x30>
    64c8:	02 2e       	mov	r0, r18
    64ca:	00 0c       	add	r0, r0
    64cc:	33 0b       	sbc	r19, r19
    64ce:	29 50       	subi	r18, 0x09	; 9
    64d0:	31 09       	sbc	r19, r1
    64d2:	25 30       	cpi	r18, 0x05	; 5
    64d4:	31 05       	cpc	r19, r1
    64d6:	18 f0       	brcs	.+6      	; 0x64de <__consumews+0x30>
    64d8:	80 e0       	ldi	r24, 0x00	; 0
    64da:	90 e0       	ldi	r25, 0x00	; 0
    64dc:	19 c0       	rjmp	.+50     	; 0x6510 <__consumews+0x62>
    64de:	0e 94 ef 33 	call	0x67de	; 0x67de <__skipws>
    64e2:	28 81       	ld	r18, Y
    64e4:	39 81       	ldd	r19, Y+1	; 0x01
    64e6:	4a 81       	ldd	r20, Y+2	; 0x02
    64e8:	2f 5f       	subi	r18, 0xFF	; 255
    64ea:	3f 4f       	sbci	r19, 0xFF	; 255
    64ec:	4f 4f       	sbci	r20, 0xFF	; 255
    64ee:	28 83       	st	Y, r18
    64f0:	39 83       	std	Y+1, r19	; 0x01
    64f2:	4a 83       	std	Y+2, r20	; 0x02
    64f4:	f9 01       	movw	r30, r18
    64f6:	24 91       	lpm	r18, Z
    64f8:	47 fd       	sbrc	r20, 7
    64fa:	20 81       	ld	r18, Z
    64fc:	20 32       	cpi	r18, 0x20	; 32
    64fe:	89 f3       	breq	.-30     	; 0x64e2 <__consumews+0x34>
    6500:	02 2e       	mov	r0, r18
    6502:	00 0c       	add	r0, r0
    6504:	33 0b       	sbc	r19, r19
    6506:	29 50       	subi	r18, 0x09	; 9
    6508:	31 09       	sbc	r19, r1
    650a:	25 30       	cpi	r18, 0x05	; 5
    650c:	31 05       	cpc	r19, r1
    650e:	48 f3       	brcs	.-46     	; 0x64e2 <__consumews+0x34>
    6510:	df 91       	pop	r29
    6512:	cf 91       	pop	r28
    6514:	08 95       	ret

Disassembly of section .text.__dummy_scan:

00007226 <__scan_a>:
    7226:	80 e0       	ldi	r24, 0x00	; 0
    7228:	90 e0       	ldi	r25, 0x00	; 0
    722a:	08 95       	ret

Disassembly of section .text.__scanf_core:

00001f08 <__scanf_core>:
    1f08:	a2 e9       	ldi	r26, 0x92	; 146
    1f0a:	b1 e0       	ldi	r27, 0x01	; 1
    1f0c:	ea e8       	ldi	r30, 0x8A	; 138
    1f0e:	ff e0       	ldi	r31, 0x0F	; 15
    1f10:	0c 94 f0 34 	jmp	0x69e0	; 0x69e0 <__prologue_saves__>
    1f14:	7c 01       	movw	r14, r24
    1f16:	59 01       	movw	r10, r18
    1f18:	c4 57       	subi	r28, 0x74	; 116
    1f1a:	de 4f       	sbci	r29, 0xFE	; 254
    1f1c:	48 83       	st	Y, r20
    1f1e:	59 83       	std	Y+1, r21	; 0x01
    1f20:	6a 83       	std	Y+2, r22	; 0x02
    1f22:	cc 58       	subi	r28, 0x8C	; 140
    1f24:	d1 40       	sbci	r29, 0x01	; 1
    1f26:	c1 57       	subi	r28, 0x71	; 113
    1f28:	de 4f       	sbci	r29, 0xFE	; 254
    1f2a:	19 82       	std	Y+1, r1	; 0x01
    1f2c:	18 82       	st	Y, r1
    1f2e:	cf 58       	subi	r28, 0x8F	; 143
    1f30:	d1 40       	sbci	r29, 0x01	; 1
    1f32:	61 2c       	mov	r6, r1
    1f34:	71 2c       	mov	r7, r1
    1f36:	6e 01       	movw	r12, r28
    1f38:	2e e7       	ldi	r18, 0x7E	; 126
    1f3a:	c2 1a       	sub	r12, r18
    1f3c:	2e ef       	ldi	r18, 0xFE	; 254
    1f3e:	d2 0a       	sbc	r13, r18
    1f40:	8c e8       	ldi	r24, 0x8C	; 140
    1f42:	91 e0       	ldi	r25, 0x01	; 1
    1f44:	8c 0f       	add	r24, r28
    1f46:	9d 1f       	adc	r25, r29
    1f48:	03 97       	sbiw	r24, 0x03	; 3
    1f4a:	cf 56       	subi	r28, 0x6F	; 111
    1f4c:	de 4f       	sbci	r29, 0xFE	; 254
    1f4e:	99 83       	std	Y+1, r25	; 0x01
    1f50:	88 83       	st	Y, r24
    1f52:	c1 59       	subi	r28, 0x91	; 145
    1f54:	d1 40       	sbci	r29, 0x01	; 1
    1f56:	c4 57       	subi	r28, 0x74	; 116
    1f58:	de 4f       	sbci	r29, 0xFE	; 254
    1f5a:	28 81       	ld	r18, Y
    1f5c:	cc 58       	subi	r28, 0x8C	; 140
    1f5e:	d1 40       	sbci	r29, 0x01	; 1
    1f60:	c3 57       	subi	r28, 0x73	; 115
    1f62:	de 4f       	sbci	r29, 0xFE	; 254
    1f64:	98 81       	ld	r25, Y
    1f66:	cd 58       	subi	r28, 0x8D	; 141
    1f68:	d1 40       	sbci	r29, 0x01	; 1
    1f6a:	c2 57       	subi	r28, 0x72	; 114
    1f6c:	de 4f       	sbci	r29, 0xFE	; 254
    1f6e:	88 81       	ld	r24, Y
    1f70:	ce 58       	subi	r28, 0x8E	; 142
    1f72:	d1 40       	sbci	r29, 0x01	; 1
    1f74:	e2 2f       	mov	r30, r18
    1f76:	f9 2f       	mov	r31, r25
    1f78:	94 91       	lpm	r25, Z
    1f7a:	87 fd       	sbrc	r24, 7
    1f7c:	90 81       	ld	r25, Z
    1f7e:	99 23       	and	r25, r25
    1f80:	09 f4       	brne	.+2      	; 0x1f84 <__scanf_core+0x7c>
    1f82:	09 c4       	rjmp	.+2066   	; 0x2796 <__scanf_core+0x88e>
    1f84:	8a e0       	ldi	r24, 0x0A	; 10
    1f86:	d6 01       	movw	r26, r12
    1f88:	1d 92       	st	X+, r1
    1f8a:	8a 95       	dec	r24
    1f8c:	e9 f7       	brne	.-6      	; 0x1f88 <__scanf_core+0x80>
    1f8e:	82 e0       	ldi	r24, 0x02	; 2
    1f90:	91 e0       	ldi	r25, 0x01	; 1
    1f92:	8c 0f       	add	r24, r28
    1f94:	9d 1f       	adc	r25, r29
    1f96:	f6 01       	movw	r30, r12
    1f98:	97 83       	std	Z+7, r25	; 0x07
    1f9a:	86 83       	std	Z+6, r24	; 0x06
    1f9c:	a0 e8       	ldi	r26, 0x80	; 128
    1f9e:	b0 e0       	ldi	r27, 0x00	; 0
    1fa0:	b1 87       	std	Z+9, r27	; 0x09
    1fa2:	a0 87       	std	Z+8, r26	; 0x08
    1fa4:	be 01       	movw	r22, r28
    1fa6:	64 57       	subi	r22, 0x74	; 116
    1fa8:	7e 4f       	sbci	r23, 0xFE	; 254
    1faa:	c7 01       	movw	r24, r14
    1fac:	0e 94 57 32 	call	0x64ae	; 0x64ae <__consumews>
    1fb0:	8c 01       	movw	r16, r24
    1fb2:	c4 57       	subi	r28, 0x74	; 116
    1fb4:	de 4f       	sbci	r29, 0xFE	; 254
    1fb6:	88 81       	ld	r24, Y
    1fb8:	99 81       	ldd	r25, Y+1	; 0x01
    1fba:	aa 81       	ldd	r26, Y+2	; 0x02
    1fbc:	cc 58       	subi	r28, 0x8C	; 140
    1fbe:	d1 40       	sbci	r29, 0x01	; 1
    1fc0:	fc 01       	movw	r30, r24
    1fc2:	24 91       	lpm	r18, Z
    1fc4:	a7 fd       	sbrc	r26, 7
    1fc6:	20 81       	ld	r18, Z
    1fc8:	21 11       	cpse	r18, r1
    1fca:	16 c0       	rjmp	.+44     	; 0x1ff8 <__scanf_core+0xf0>
    1fcc:	c1 57       	subi	r28, 0x71	; 113
    1fce:	de 4f       	sbci	r29, 0xFE	; 254
    1fd0:	28 81       	ld	r18, Y
    1fd2:	39 81       	ldd	r19, Y+1	; 0x01
    1fd4:	cf 58       	subi	r28, 0x8F	; 143
    1fd6:	d1 40       	sbci	r29, 0x01	; 1
    1fd8:	02 0f       	add	r16, r18
    1fda:	13 1f       	adc	r17, r19
    1fdc:	c1 57       	subi	r28, 0x71	; 113
    1fde:	de 4f       	sbci	r29, 0xFE	; 254
    1fe0:	19 83       	std	Y+1, r17	; 0x01
    1fe2:	08 83       	st	Y, r16
    1fe4:	cf 58       	subi	r28, 0x8F	; 143
    1fe6:	d1 40       	sbci	r29, 0x01	; 1
    1fe8:	fc 01       	movw	r30, r24
    1fea:	24 91       	lpm	r18, Z
    1fec:	a7 fd       	sbrc	r26, 7
    1fee:	20 81       	ld	r18, Z
    1ff0:	25 32       	cpi	r18, 0x25	; 37
    1ff2:	09 f0       	breq	.+2      	; 0x1ff6 <__scanf_core+0xee>
    1ff4:	b9 c3       	rjmp	.+1906   	; 0x2768 <__scanf_core+0x860>
    1ff6:	4f c0       	rjmp	.+158    	; 0x2096 <__scanf_core+0x18e>
    1ff8:	25 32       	cpi	r18, 0x25	; 37
    1ffa:	41 f3       	breq	.-48     	; 0x1fcc <__scanf_core+0xc4>
    1ffc:	c7 01       	movw	r24, r14
    1ffe:	0e 94 a3 2c 	call	0x5946	; 0x5946 <fgetc>
    2002:	4c 01       	movw	r8, r24
    2004:	01 96       	adiw	r24, 0x01	; 1
    2006:	09 f1       	breq	.+66     	; 0x204a <__scanf_core+0x142>
    2008:	c4 57       	subi	r28, 0x74	; 116
    200a:	de 4f       	sbci	r29, 0xFE	; 254
    200c:	28 81       	ld	r18, Y
    200e:	cc 58       	subi	r28, 0x8C	; 140
    2010:	d1 40       	sbci	r29, 0x01	; 1
    2012:	c3 57       	subi	r28, 0x73	; 115
    2014:	de 4f       	sbci	r29, 0xFE	; 254
    2016:	88 81       	ld	r24, Y
    2018:	cd 58       	subi	r28, 0x8D	; 141
    201a:	d1 40       	sbci	r29, 0x01	; 1
    201c:	c2 57       	subi	r28, 0x72	; 114
    201e:	de 4f       	sbci	r29, 0xFE	; 254
    2020:	98 81       	ld	r25, Y
    2022:	ce 58       	subi	r28, 0x8E	; 142
    2024:	d1 40       	sbci	r29, 0x01	; 1
    2026:	e2 2f       	mov	r30, r18
    2028:	f8 2f       	mov	r31, r24
    202a:	84 91       	lpm	r24, Z
    202c:	97 fd       	sbrc	r25, 7
    202e:	80 81       	ld	r24, Z
    2030:	08 2e       	mov	r0, r24
    2032:	00 0c       	add	r0, r0
    2034:	99 0b       	sbc	r25, r25
    2036:	88 16       	cp	r8, r24
    2038:	99 06       	cpc	r9, r25
    203a:	39 f0       	breq	.+14     	; 0x204a <__scanf_core+0x142>
    203c:	b7 01       	movw	r22, r14
    203e:	c4 01       	movw	r24, r8
    2040:	0e 94 97 34 	call	0x692e	; 0x692e <ungetc>
    2044:	8e ef       	ldi	r24, 0xFE	; 254
    2046:	9f ef       	ldi	r25, 0xFF	; 255
    2048:	9a c3       	rjmp	.+1844   	; 0x277e <__scanf_core+0x876>
    204a:	c1 57       	subi	r28, 0x71	; 113
    204c:	de 4f       	sbci	r29, 0xFE	; 254
    204e:	88 81       	ld	r24, Y
    2050:	99 81       	ldd	r25, Y+1	; 0x01
    2052:	cf 58       	subi	r28, 0x8F	; 143
    2054:	d1 40       	sbci	r29, 0x01	; 1
    2056:	01 96       	adiw	r24, 0x01	; 1
    2058:	c1 57       	subi	r28, 0x71	; 113
    205a:	de 4f       	sbci	r29, 0xFE	; 254
    205c:	99 83       	std	Y+1, r25	; 0x01
    205e:	88 83       	st	Y, r24
    2060:	cf 58       	subi	r28, 0x8F	; 143
    2062:	d1 40       	sbci	r29, 0x01	; 1
    2064:	c4 57       	subi	r28, 0x74	; 116
    2066:	de 4f       	sbci	r29, 0xFE	; 254
    2068:	88 81       	ld	r24, Y
    206a:	99 81       	ldd	r25, Y+1	; 0x01
    206c:	aa 81       	ldd	r26, Y+2	; 0x02
    206e:	cc 58       	subi	r28, 0x8C	; 140
    2070:	d1 40       	sbci	r29, 0x01	; 1
    2072:	01 96       	adiw	r24, 0x01	; 1
    2074:	a1 1d       	adc	r26, r1
    2076:	c4 57       	subi	r28, 0x74	; 116
    2078:	de 4f       	sbci	r29, 0xFE	; 254
    207a:	88 83       	st	Y, r24
    207c:	99 83       	std	Y+1, r25	; 0x01
    207e:	aa 83       	std	Y+2, r26	; 0x02
    2080:	cc 58       	subi	r28, 0x8C	; 140
    2082:	d1 40       	sbci	r29, 0x01	; 1
    2084:	be 01       	movw	r22, r28
    2086:	64 57       	subi	r22, 0x74	; 116
    2088:	7e 4f       	sbci	r23, 0xFE	; 254
    208a:	c7 01       	movw	r24, r14
    208c:	0e 94 57 32 	call	0x64ae	; 0x64ae <__consumews>
    2090:	08 0f       	add	r16, r24
    2092:	19 1f       	adc	r17, r25
    2094:	8e cf       	rjmp	.-228    	; 0x1fb2 <__scanf_core+0xaa>
    2096:	9c 01       	movw	r18, r24
    2098:	4a 2f       	mov	r20, r26
    209a:	2f 5f       	subi	r18, 0xFF	; 255
    209c:	3f 4f       	sbci	r19, 0xFF	; 255
    209e:	4f 4f       	sbci	r20, 0xFF	; 255
    20a0:	c4 57       	subi	r28, 0x74	; 116
    20a2:	de 4f       	sbci	r29, 0xFE	; 254
    20a4:	28 83       	st	Y, r18
    20a6:	39 83       	std	Y+1, r19	; 0x01
    20a8:	4a 83       	std	Y+2, r20	; 0x02
    20aa:	cc 58       	subi	r28, 0x8C	; 140
    20ac:	d1 40       	sbci	r29, 0x01	; 1
    20ae:	f6 01       	movw	r30, r12
    20b0:	15 82       	std	Z+5, r1	; 0x05
    20b2:	14 82       	std	Z+4, r1	; 0x04
    20b4:	f9 01       	movw	r30, r18
    20b6:	24 91       	lpm	r18, Z
    20b8:	47 fd       	sbrc	r20, 7
    20ba:	20 81       	ld	r18, Z
    20bc:	2a 32       	cpi	r18, 0x2A	; 42
    20be:	61 f4       	brne	.+24     	; 0x20d8 <__scanf_core+0x1d0>
    20c0:	02 96       	adiw	r24, 0x02	; 2
    20c2:	a1 1d       	adc	r26, r1
    20c4:	c4 57       	subi	r28, 0x74	; 116
    20c6:	de 4f       	sbci	r29, 0xFE	; 254
    20c8:	88 83       	st	Y, r24
    20ca:	99 83       	std	Y+1, r25	; 0x01
    20cc:	aa 83       	std	Y+2, r26	; 0x02
    20ce:	cc 58       	subi	r28, 0x8C	; 140
    20d0:	d1 40       	sbci	r29, 0x01	; 1
    20d2:	01 e0       	ldi	r16, 0x01	; 1
    20d4:	10 e0       	ldi	r17, 0x00	; 0
    20d6:	02 c0       	rjmp	.+4      	; 0x20dc <__scanf_core+0x1d4>
    20d8:	00 e0       	ldi	r16, 0x00	; 0
    20da:	10 e0       	ldi	r17, 0x00	; 0
    20dc:	c4 57       	subi	r28, 0x74	; 116
    20de:	de 4f       	sbci	r29, 0xFE	; 254
    20e0:	68 81       	ld	r22, Y
    20e2:	79 81       	ldd	r23, Y+1	; 0x01
    20e4:	8a 81       	ldd	r24, Y+2	; 0x02
    20e6:	cc 58       	subi	r28, 0x8C	; 140
    20e8:	d1 40       	sbci	r29, 0x01	; 1
    20ea:	0e 94 66 2f 	call	0x5ecc	; 0x5ecc <atoi>
    20ee:	d6 01       	movw	r26, r12
    20f0:	15 96       	adiw	r26, 0x05	; 5
    20f2:	9c 93       	st	X, r25
    20f4:	8e 93       	st	-X, r24
    20f6:	14 97       	sbiw	r26, 0x04	; 4
    20f8:	c4 57       	subi	r28, 0x74	; 116
    20fa:	de 4f       	sbci	r29, 0xFE	; 254
    20fc:	28 81       	ld	r18, Y
    20fe:	39 81       	ldd	r19, Y+1	; 0x01
    2100:	4a 81       	ldd	r20, Y+2	; 0x02
    2102:	cc 58       	subi	r28, 0x8C	; 140
    2104:	d1 40       	sbci	r29, 0x01	; 1
    2106:	f9 01       	movw	r30, r18
    2108:	84 91       	lpm	r24, Z
    210a:	47 fd       	sbrc	r20, 7
    210c:	80 81       	ld	r24, Z
    210e:	08 2e       	mov	r0, r24
    2110:	00 0c       	add	r0, r0
    2112:	99 0b       	sbc	r25, r25
    2114:	c0 97       	sbiw	r24, 0x30	; 48
    2116:	0a 97       	sbiw	r24, 0x0a	; 10
    2118:	58 f4       	brcc	.+22     	; 0x2130 <__scanf_core+0x228>
    211a:	2f 5f       	subi	r18, 0xFF	; 255
    211c:	3f 4f       	sbci	r19, 0xFF	; 255
    211e:	4f 4f       	sbci	r20, 0xFF	; 255
    2120:	c4 57       	subi	r28, 0x74	; 116
    2122:	de 4f       	sbci	r29, 0xFE	; 254
    2124:	28 83       	st	Y, r18
    2126:	39 83       	std	Y+1, r19	; 0x01
    2128:	4a 83       	std	Y+2, r20	; 0x02
    212a:	cc 58       	subi	r28, 0x8C	; 140
    212c:	d1 40       	sbci	r29, 0x01	; 1
    212e:	e4 cf       	rjmp	.-56     	; 0x20f8 <__scanf_core+0x1f0>
    2130:	ce 01       	movw	r24, r28
    2132:	84 57       	subi	r24, 0x74	; 116
    2134:	9e 4f       	sbci	r25, 0xFE	; 254
    2136:	0e 94 e4 2d 	call	0x5bc8	; 0x5bc8 <__fmt_state>
    213a:	58 2e       	mov	r5, r24
    213c:	c4 57       	subi	r28, 0x74	; 116
    213e:	de 4f       	sbci	r29, 0xFE	; 254
    2140:	28 81       	ld	r18, Y
    2142:	cc 58       	subi	r28, 0x8C	; 140
    2144:	d1 40       	sbci	r29, 0x01	; 1
    2146:	c3 57       	subi	r28, 0x73	; 115
    2148:	de 4f       	sbci	r29, 0xFE	; 254
    214a:	88 81       	ld	r24, Y
    214c:	cd 58       	subi	r28, 0x8D	; 141
    214e:	d1 40       	sbci	r29, 0x01	; 1
    2150:	c2 57       	subi	r28, 0x72	; 114
    2152:	de 4f       	sbci	r29, 0xFE	; 254
    2154:	98 81       	ld	r25, Y
    2156:	ce 58       	subi	r28, 0x8E	; 142
    2158:	d1 40       	sbci	r29, 0x01	; 1
    215a:	e2 2f       	mov	r30, r18
    215c:	f8 2f       	mov	r31, r24
    215e:	84 91       	lpm	r24, Z
    2160:	97 fd       	sbrc	r25, 7
    2162:	80 81       	ld	r24, Z
    2164:	08 2e       	mov	r0, r24
    2166:	00 0c       	add	r0, r0
    2168:	99 0b       	sbc	r25, r25
    216a:	0e 94 c7 38 	call	0x718e	; 0x718e <tolower>
    216e:	88 36       	cpi	r24, 0x68	; 104
    2170:	91 05       	cpc	r25, r1
    2172:	2c f5       	brge	.+74     	; 0x21be <__scanf_core+0x2b6>
    2174:	85 36       	cpi	r24, 0x65	; 101
    2176:	91 05       	cpc	r25, r1
    2178:	0c f0       	brlt	.+2      	; 0x217c <__scanf_core+0x274>
    217a:	fb c0       	rjmp	.+502    	; 0x2372 <__scanf_core+0x46a>
    217c:	81 36       	cpi	r24, 0x61	; 97
    217e:	91 05       	cpc	r25, r1
    2180:	09 f4       	brne	.+2      	; 0x2184 <__scanf_core+0x27c>
    2182:	f7 c0       	rjmp	.+494    	; 0x2372 <__scanf_core+0x46a>
    2184:	4c f4       	brge	.+18     	; 0x2198 <__scanf_core+0x290>
    2186:	85 32       	cpi	r24, 0x25	; 37
    2188:	91 05       	cpc	r25, r1
    218a:	09 f4       	brne	.+2      	; 0x218e <__scanf_core+0x286>
    218c:	77 c1       	rjmp	.+750    	; 0x247c <__scanf_core+0x574>
    218e:	8b 35       	cpi	r24, 0x5B	; 91
    2190:	91 05       	cpc	r25, r1
    2192:	09 f4       	brne	.+2      	; 0x2196 <__scanf_core+0x28e>
    2194:	a2 c1       	rjmp	.+836    	; 0x24da <__scanf_core+0x5d2>
    2196:	d8 c2       	rjmp	.+1456   	; 0x2748 <__scanf_core+0x840>
    2198:	83 36       	cpi	r24, 0x63	; 99
    219a:	91 05       	cpc	r25, r1
    219c:	09 f4       	brne	.+2      	; 0x21a0 <__scanf_core+0x298>
    219e:	11 c1       	rjmp	.+546    	; 0x23c2 <__scanf_core+0x4ba>
    21a0:	84 36       	cpi	r24, 0x64	; 100
    21a2:	91 05       	cpc	r25, r1
    21a4:	09 f0       	breq	.+2      	; 0x21a8 <__scanf_core+0x2a0>
    21a6:	d0 c2       	rjmp	.+1440   	; 0x2748 <__scanf_core+0x840>
    21a8:	9e 01       	movw	r18, r28
    21aa:	21 57       	subi	r18, 0x71	; 113
    21ac:	3e 4f       	sbci	r19, 0xFE	; 254
    21ae:	a6 01       	movw	r20, r12
    21b0:	be 01       	movw	r22, r28
    21b2:	6f 5f       	subi	r22, 0xFF	; 255
    21b4:	7f 4f       	sbci	r23, 0xFF	; 255
    21b6:	c7 01       	movw	r24, r14
    21b8:	0e 94 0e 33 	call	0x661c	; 0x661c <__scan_d>
    21bc:	25 c0       	rjmp	.+74     	; 0x2208 <__scanf_core+0x300>
    21be:	80 37       	cpi	r24, 0x70	; 112
    21c0:	91 05       	cpc	r25, r1
    21c2:	09 f4       	brne	.+2      	; 0x21c6 <__scanf_core+0x2be>
    21c4:	79 c0       	rjmp	.+242    	; 0x22b8 <__scanf_core+0x3b0>
    21c6:	ac f4       	brge	.+42     	; 0x21f2 <__scanf_core+0x2ea>
    21c8:	8e 36       	cpi	r24, 0x6E	; 110
    21ca:	91 05       	cpc	r25, r1
    21cc:	09 f4       	brne	.+2      	; 0x21d0 <__scanf_core+0x2c8>
    21ce:	9e c0       	rjmp	.+316    	; 0x230c <__scanf_core+0x404>
    21d0:	0c f0       	brlt	.+2      	; 0x21d4 <__scanf_core+0x2cc>
    21d2:	41 c0       	rjmp	.+130    	; 0x2256 <__scanf_core+0x34e>
    21d4:	89 36       	cpi	r24, 0x69	; 105
    21d6:	91 05       	cpc	r25, r1
    21d8:	09 f0       	breq	.+2      	; 0x21dc <__scanf_core+0x2d4>
    21da:	b6 c2       	rjmp	.+1388   	; 0x2748 <__scanf_core+0x840>
    21dc:	9e 01       	movw	r18, r28
    21de:	21 57       	subi	r18, 0x71	; 113
    21e0:	3e 4f       	sbci	r19, 0xFE	; 254
    21e2:	a6 01       	movw	r20, r12
    21e4:	be 01       	movw	r22, r28
    21e6:	6f 5f       	subi	r22, 0xFF	; 255
    21e8:	7f 4f       	sbci	r23, 0xFF	; 255
    21ea:	c7 01       	movw	r24, r14
    21ec:	0e 94 0d 21 	call	0x421a	; 0x421a <__scan_i>
    21f0:	0b c0       	rjmp	.+22     	; 0x2208 <__scanf_core+0x300>
    21f2:	85 37       	cpi	r24, 0x75	; 117
    21f4:	91 05       	cpc	r25, r1
    21f6:	21 f1       	breq	.+72     	; 0x2240 <__scanf_core+0x338>
    21f8:	88 37       	cpi	r24, 0x78	; 120
    21fa:	91 05       	cpc	r25, r1
    21fc:	b9 f1       	breq	.+110    	; 0x226c <__scanf_core+0x364>
    21fe:	83 37       	cpi	r24, 0x73	; 115
    2200:	91 05       	cpc	r25, r1
    2202:	09 f0       	breq	.+2      	; 0x2206 <__scanf_core+0x2fe>
    2204:	a1 c2       	rjmp	.+1346   	; 0x2748 <__scanf_core+0x840>
    2206:	0e c1       	rjmp	.+540    	; 0x2424 <__scanf_core+0x51c>
    2208:	97 fd       	sbrc	r25, 7
    220a:	b9 c2       	rjmp	.+1394   	; 0x277e <__scanf_core+0x876>
    220c:	c4 57       	subi	r28, 0x74	; 116
    220e:	de 4f       	sbci	r29, 0xFE	; 254
    2210:	88 81       	ld	r24, Y
    2212:	99 81       	ldd	r25, Y+1	; 0x01
    2214:	aa 81       	ldd	r26, Y+2	; 0x02
    2216:	cc 58       	subi	r28, 0x8C	; 140
    2218:	d1 40       	sbci	r29, 0x01	; 1
    221a:	01 96       	adiw	r24, 0x01	; 1
    221c:	a1 1d       	adc	r26, r1
    221e:	c4 57       	subi	r28, 0x74	; 116
    2220:	de 4f       	sbci	r29, 0xFE	; 254
    2222:	88 83       	st	Y, r24
    2224:	99 83       	std	Y+1, r25	; 0x01
    2226:	aa 83       	std	Y+2, r26	; 0x02
    2228:	cc 58       	subi	r28, 0x8C	; 140
    222a:	d1 40       	sbci	r29, 0x01	; 1
    222c:	01 15       	cp	r16, r1
    222e:	11 05       	cpc	r17, r1
    2230:	09 f0       	breq	.+2      	; 0x2234 <__scanf_core+0x32c>
    2232:	50 c1       	rjmp	.+672    	; 0x24d4 <__scanf_core+0x5cc>
    2234:	65 2d       	mov	r22, r5
    2236:	70 e0       	ldi	r23, 0x00	; 0
    2238:	95 01       	movw	r18, r10
    223a:	41 e0       	ldi	r20, 0x01	; 1
    223c:	50 e0       	ldi	r21, 0x00	; 0
    223e:	61 c0       	rjmp	.+194    	; 0x2302 <__scanf_core+0x3fa>
    2240:	9e 01       	movw	r18, r28
    2242:	21 57       	subi	r18, 0x71	; 113
    2244:	3e 4f       	sbci	r19, 0xFE	; 254
    2246:	a6 01       	movw	r20, r12
    2248:	be 01       	movw	r22, r28
    224a:	6f 5f       	subi	r22, 0xFF	; 255
    224c:	7f 4f       	sbci	r23, 0xFF	; 255
    224e:	c7 01       	movw	r24, r14
    2250:	0e 94 35 33 	call	0x666a	; 0x666a <__scan_u>
    2254:	15 c0       	rjmp	.+42     	; 0x2280 <__scanf_core+0x378>
    2256:	9e 01       	movw	r18, r28
    2258:	21 57       	subi	r18, 0x71	; 113
    225a:	3e 4f       	sbci	r19, 0xFE	; 254
    225c:	a6 01       	movw	r20, r12
    225e:	be 01       	movw	r22, r28
    2260:	6f 5f       	subi	r22, 0xFF	; 255
    2262:	7f 4f       	sbci	r23, 0xFF	; 255
    2264:	c7 01       	movw	r24, r14
    2266:	0e 94 92 29 	call	0x5324	; 0x5324 <__scan_o>
    226a:	0a c0       	rjmp	.+20     	; 0x2280 <__scanf_core+0x378>
    226c:	9e 01       	movw	r18, r28
    226e:	21 57       	subi	r18, 0x71	; 113
    2270:	3e 4f       	sbci	r19, 0xFE	; 254
    2272:	a6 01       	movw	r20, r12
    2274:	be 01       	movw	r22, r28
    2276:	6f 5f       	subi	r22, 0xFF	; 255
    2278:	7f 4f       	sbci	r23, 0xFF	; 255
    227a:	c7 01       	movw	r24, r14
    227c:	0e 94 c4 25 	call	0x4b88	; 0x4b88 <__scan_x>
    2280:	97 fd       	sbrc	r25, 7
    2282:	7d c2       	rjmp	.+1274   	; 0x277e <__scanf_core+0x876>
    2284:	c4 57       	subi	r28, 0x74	; 116
    2286:	de 4f       	sbci	r29, 0xFE	; 254
    2288:	88 81       	ld	r24, Y
    228a:	99 81       	ldd	r25, Y+1	; 0x01
    228c:	aa 81       	ldd	r26, Y+2	; 0x02
    228e:	cc 58       	subi	r28, 0x8C	; 140
    2290:	d1 40       	sbci	r29, 0x01	; 1
    2292:	01 96       	adiw	r24, 0x01	; 1
    2294:	a1 1d       	adc	r26, r1
    2296:	c4 57       	subi	r28, 0x74	; 116
    2298:	de 4f       	sbci	r29, 0xFE	; 254
    229a:	88 83       	st	Y, r24
    229c:	99 83       	std	Y+1, r25	; 0x01
    229e:	aa 83       	std	Y+2, r26	; 0x02
    22a0:	cc 58       	subi	r28, 0x8C	; 140
    22a2:	d1 40       	sbci	r29, 0x01	; 1
    22a4:	01 15       	cp	r16, r1
    22a6:	11 05       	cpc	r17, r1
    22a8:	09 f0       	breq	.+2      	; 0x22ac <__scanf_core+0x3a4>
    22aa:	14 c1       	rjmp	.+552    	; 0x24d4 <__scanf_core+0x5cc>
    22ac:	65 2d       	mov	r22, r5
    22ae:	70 e0       	ldi	r23, 0x00	; 0
    22b0:	95 01       	movw	r18, r10
    22b2:	40 e0       	ldi	r20, 0x00	; 0
    22b4:	50 e0       	ldi	r21, 0x00	; 0
    22b6:	25 c0       	rjmp	.+74     	; 0x2302 <__scanf_core+0x3fa>
    22b8:	9e 01       	movw	r18, r28
    22ba:	21 57       	subi	r18, 0x71	; 113
    22bc:	3e 4f       	sbci	r19, 0xFE	; 254
    22be:	a6 01       	movw	r20, r12
    22c0:	be 01       	movw	r22, r28
    22c2:	6f 5f       	subi	r22, 0xFF	; 255
    22c4:	7f 4f       	sbci	r23, 0xFF	; 255
    22c6:	c7 01       	movw	r24, r14
    22c8:	0e 94 c4 25 	call	0x4b88	; 0x4b88 <__scan_x>
    22cc:	97 fd       	sbrc	r25, 7
    22ce:	57 c2       	rjmp	.+1198   	; 0x277e <__scanf_core+0x876>
    22d0:	c4 57       	subi	r28, 0x74	; 116
    22d2:	de 4f       	sbci	r29, 0xFE	; 254
    22d4:	88 81       	ld	r24, Y
    22d6:	99 81       	ldd	r25, Y+1	; 0x01
    22d8:	aa 81       	ldd	r26, Y+2	; 0x02
    22da:	cc 58       	subi	r28, 0x8C	; 140
    22dc:	d1 40       	sbci	r29, 0x01	; 1
    22de:	01 96       	adiw	r24, 0x01	; 1
    22e0:	a1 1d       	adc	r26, r1
    22e2:	c4 57       	subi	r28, 0x74	; 116
    22e4:	de 4f       	sbci	r29, 0xFE	; 254
    22e6:	88 83       	st	Y, r24
    22e8:	99 83       	std	Y+1, r25	; 0x01
    22ea:	aa 83       	std	Y+2, r26	; 0x02
    22ec:	cc 58       	subi	r28, 0x8C	; 140
    22ee:	d1 40       	sbci	r29, 0x01	; 1
    22f0:	01 15       	cp	r16, r1
    22f2:	11 05       	cpc	r17, r1
    22f4:	09 f0       	breq	.+2      	; 0x22f8 <__scanf_core+0x3f0>
    22f6:	ee c0       	rjmp	.+476    	; 0x24d4 <__scanf_core+0x5cc>
    22f8:	95 01       	movw	r18, r10
    22fa:	40 e0       	ldi	r20, 0x00	; 0
    22fc:	50 e0       	ldi	r21, 0x00	; 0
    22fe:	60 ef       	ldi	r22, 0xF0	; 240
    2300:	70 e0       	ldi	r23, 0x00	; 0
    2302:	ce 01       	movw	r24, r28
    2304:	01 96       	adiw	r24, 0x01	; 1
    2306:	0e 94 10 27 	call	0x4e20	; 0x4e20 <__push_int>
    230a:	39 c2       	rjmp	.+1138   	; 0x277e <__scanf_core+0x876>
    230c:	c4 57       	subi	r28, 0x74	; 116
    230e:	de 4f       	sbci	r29, 0xFE	; 254
    2310:	88 81       	ld	r24, Y
    2312:	99 81       	ldd	r25, Y+1	; 0x01
    2314:	aa 81       	ldd	r26, Y+2	; 0x02
    2316:	cc 58       	subi	r28, 0x8C	; 140
    2318:	d1 40       	sbci	r29, 0x01	; 1
    231a:	01 96       	adiw	r24, 0x01	; 1
    231c:	a1 1d       	adc	r26, r1
    231e:	c4 57       	subi	r28, 0x74	; 116
    2320:	de 4f       	sbci	r29, 0xFE	; 254
    2322:	88 83       	st	Y, r24
    2324:	99 83       	std	Y+1, r25	; 0x01
    2326:	aa 83       	std	Y+2, r26	; 0x02
    2328:	cc 58       	subi	r28, 0x8C	; 140
    232a:	d1 40       	sbci	r29, 0x01	; 1
    232c:	c0 57       	subi	r28, 0x70	; 112
    232e:	de 4f       	sbci	r29, 0xFE	; 254
    2330:	98 81       	ld	r25, Y
    2332:	c0 59       	subi	r28, 0x90	; 144
    2334:	d1 40       	sbci	r29, 0x01	; 1
    2336:	c1 57       	subi	r28, 0x71	; 113
    2338:	de 4f       	sbci	r29, 0xFE	; 254
    233a:	28 81       	ld	r18, Y
    233c:	cf 58       	subi	r28, 0x8F	; 143
    233e:	d1 40       	sbci	r29, 0x01	; 1
    2340:	89 2f       	mov	r24, r25
    2342:	88 0f       	add	r24, r24
    2344:	88 0b       	sbc	r24, r24
    2346:	29 83       	std	Y+1, r18	; 0x01
    2348:	9a 83       	std	Y+2, r25	; 0x02
    234a:	8b 83       	std	Y+3, r24	; 0x03
    234c:	8c 83       	std	Y+4, r24	; 0x04
    234e:	8d 83       	std	Y+5, r24	; 0x05
    2350:	8e 83       	std	Y+6, r24	; 0x06
    2352:	8f 83       	std	Y+7, r24	; 0x07
    2354:	88 87       	std	Y+8, r24	; 0x08
    2356:	01 15       	cp	r16, r1
    2358:	11 05       	cpc	r17, r1
    235a:	09 f0       	breq	.+2      	; 0x235e <__scanf_core+0x456>
    235c:	bb c0       	rjmp	.+374    	; 0x24d4 <__scanf_core+0x5cc>
    235e:	65 2d       	mov	r22, r5
    2360:	70 e0       	ldi	r23, 0x00	; 0
    2362:	95 01       	movw	r18, r10
    2364:	40 e0       	ldi	r20, 0x00	; 0
    2366:	50 e0       	ldi	r21, 0x00	; 0
    2368:	ce 01       	movw	r24, r28
    236a:	01 96       	adiw	r24, 0x01	; 1
    236c:	0e 94 10 27 	call	0x4e20	; 0x4e20 <__push_int>
    2370:	b1 c0       	rjmp	.+354    	; 0x24d4 <__scanf_core+0x5cc>
    2372:	9e 01       	movw	r18, r28
    2374:	21 57       	subi	r18, 0x71	; 113
    2376:	3e 4f       	sbci	r19, 0xFE	; 254
    2378:	a6 01       	movw	r20, r12
    237a:	be 01       	movw	r22, r28
    237c:	6f 5f       	subi	r22, 0xFF	; 255
    237e:	7f 4f       	sbci	r23, 0xFF	; 255
    2380:	c7 01       	movw	r24, r14
    2382:	0e 94 13 39 	call	0x7226	; 0x7226 <__scan_a>
    2386:	97 fd       	sbrc	r25, 7
    2388:	fa c1       	rjmp	.+1012   	; 0x277e <__scanf_core+0x876>
    238a:	c4 57       	subi	r28, 0x74	; 116
    238c:	de 4f       	sbci	r29, 0xFE	; 254
    238e:	88 81       	ld	r24, Y
    2390:	99 81       	ldd	r25, Y+1	; 0x01
    2392:	aa 81       	ldd	r26, Y+2	; 0x02
    2394:	cc 58       	subi	r28, 0x8C	; 140
    2396:	d1 40       	sbci	r29, 0x01	; 1
    2398:	01 96       	adiw	r24, 0x01	; 1
    239a:	a1 1d       	adc	r26, r1
    239c:	c4 57       	subi	r28, 0x74	; 116
    239e:	de 4f       	sbci	r29, 0xFE	; 254
    23a0:	88 83       	st	Y, r24
    23a2:	99 83       	std	Y+1, r25	; 0x01
    23a4:	aa 83       	std	Y+2, r26	; 0x02
    23a6:	cc 58       	subi	r28, 0x8C	; 140
    23a8:	d1 40       	sbci	r29, 0x01	; 1
    23aa:	01 15       	cp	r16, r1
    23ac:	11 05       	cpc	r17, r1
    23ae:	09 f0       	breq	.+2      	; 0x23b2 <__scanf_core+0x4aa>
    23b0:	91 c0       	rjmp	.+290    	; 0x24d4 <__scanf_core+0x5cc>
    23b2:	65 2d       	mov	r22, r5
    23b4:	70 e0       	ldi	r23, 0x00	; 0
    23b6:	a5 01       	movw	r20, r10
    23b8:	ce 01       	movw	r24, r28
    23ba:	01 96       	adiw	r24, 0x01	; 1
    23bc:	0e 94 b9 31 	call	0x6372	; 0x6372 <__push_float>
    23c0:	de c1       	rjmp	.+956    	; 0x277e <__scanf_core+0x876>
    23c2:	b0 e8       	ldi	r27, 0x80	; 128
    23c4:	5b 12       	cpse	r5, r27
    23c6:	c0 c1       	rjmp	.+896    	; 0x2748 <__scanf_core+0x840>
    23c8:	f6 01       	movw	r30, r12
    23ca:	84 81       	ldd	r24, Z+4	; 0x04
    23cc:	95 81       	ldd	r25, Z+5	; 0x05
    23ce:	89 2b       	or	r24, r25
    23d0:	21 f4       	brne	.+8      	; 0x23da <__scanf_core+0x4d2>
    23d2:	81 e0       	ldi	r24, 0x01	; 1
    23d4:	90 e0       	ldi	r25, 0x00	; 0
    23d6:	95 83       	std	Z+5, r25	; 0x05
    23d8:	84 83       	std	Z+4, r24	; 0x04
    23da:	c4 57       	subi	r28, 0x74	; 116
    23dc:	de 4f       	sbci	r29, 0xFE	; 254
    23de:	88 81       	ld	r24, Y
    23e0:	99 81       	ldd	r25, Y+1	; 0x01
    23e2:	aa 81       	ldd	r26, Y+2	; 0x02
    23e4:	cc 58       	subi	r28, 0x8C	; 140
    23e6:	d1 40       	sbci	r29, 0x01	; 1
    23e8:	01 96       	adiw	r24, 0x01	; 1
    23ea:	a1 1d       	adc	r26, r1
    23ec:	c4 57       	subi	r28, 0x74	; 116
    23ee:	de 4f       	sbci	r29, 0xFE	; 254
    23f0:	88 83       	st	Y, r24
    23f2:	99 83       	std	Y+1, r25	; 0x01
    23f4:	aa 83       	std	Y+2, r26	; 0x02
    23f6:	cc 58       	subi	r28, 0x8C	; 140
    23f8:	d1 40       	sbci	r29, 0x01	; 1
    23fa:	01 2b       	or	r16, r17
    23fc:	59 f4       	brne	.+22     	; 0x2414 <__scanf_core+0x50c>
    23fe:	d5 01       	movw	r26, r10
    2400:	ed 91       	ld	r30, X+
    2402:	fc 91       	ld	r31, X
    2404:	11 97       	sbiw	r26, 0x01	; 1
    2406:	cf 01       	movw	r24, r30
    2408:	02 96       	adiw	r24, 0x02	; 2
    240a:	8d 93       	st	X+, r24
    240c:	9c 93       	st	X, r25
    240e:	00 81       	ld	r16, Z
    2410:	11 81       	ldd	r17, Z+1	; 0x01
    2412:	02 c0       	rjmp	.+4      	; 0x2418 <__scanf_core+0x510>
    2414:	00 e0       	ldi	r16, 0x00	; 0
    2416:	10 e0       	ldi	r17, 0x00	; 0
    2418:	9e 01       	movw	r18, r28
    241a:	21 57       	subi	r18, 0x71	; 113
    241c:	3e 4f       	sbci	r19, 0xFE	; 254
    241e:	40 e0       	ldi	r20, 0x00	; 0
    2420:	50 e0       	ldi	r21, 0x00	; 0
    2422:	27 c0       	rjmp	.+78     	; 0x2472 <__scanf_core+0x56a>
    2424:	b0 e8       	ldi	r27, 0x80	; 128
    2426:	5b 12       	cpse	r5, r27
    2428:	8f c1       	rjmp	.+798    	; 0x2748 <__scanf_core+0x840>
    242a:	c4 57       	subi	r28, 0x74	; 116
    242c:	de 4f       	sbci	r29, 0xFE	; 254
    242e:	88 81       	ld	r24, Y
    2430:	99 81       	ldd	r25, Y+1	; 0x01
    2432:	aa 81       	ldd	r26, Y+2	; 0x02
    2434:	cc 58       	subi	r28, 0x8C	; 140
    2436:	d1 40       	sbci	r29, 0x01	; 1
    2438:	01 96       	adiw	r24, 0x01	; 1
    243a:	a1 1d       	adc	r26, r1
    243c:	c4 57       	subi	r28, 0x74	; 116
    243e:	de 4f       	sbci	r29, 0xFE	; 254
    2440:	88 83       	st	Y, r24
    2442:	99 83       	std	Y+1, r25	; 0x01
    2444:	aa 83       	std	Y+2, r26	; 0x02
    2446:	cc 58       	subi	r28, 0x8C	; 140
    2448:	d1 40       	sbci	r29, 0x01	; 1
    244a:	01 2b       	or	r16, r17
    244c:	59 f4       	brne	.+22     	; 0x2464 <__scanf_core+0x55c>
    244e:	d5 01       	movw	r26, r10
    2450:	ed 91       	ld	r30, X+
    2452:	fc 91       	ld	r31, X
    2454:	11 97       	sbiw	r26, 0x01	; 1
    2456:	cf 01       	movw	r24, r30
    2458:	02 96       	adiw	r24, 0x02	; 2
    245a:	8d 93       	st	X+, r24
    245c:	9c 93       	st	X, r25
    245e:	00 81       	ld	r16, Z
    2460:	11 81       	ldd	r17, Z+1	; 0x01
    2462:	02 c0       	rjmp	.+4      	; 0x2468 <__scanf_core+0x560>
    2464:	00 e0       	ldi	r16, 0x00	; 0
    2466:	10 e0       	ldi	r17, 0x00	; 0
    2468:	9e 01       	movw	r18, r28
    246a:	21 57       	subi	r18, 0x71	; 113
    246c:	3e 4f       	sbci	r19, 0xFE	; 254
    246e:	41 e0       	ldi	r20, 0x01	; 1
    2470:	50 e0       	ldi	r21, 0x00	; 0
    2472:	b6 01       	movw	r22, r12
    2474:	c7 01       	movw	r24, r14
    2476:	0e 94 d1 2a 	call	0x55a2	; 0x55a2 <__scan_s>
    247a:	81 c1       	rjmp	.+770    	; 0x277e <__scanf_core+0x876>
    247c:	b0 e8       	ldi	r27, 0x80	; 128
    247e:	5b 12       	cpse	r5, r27
    2480:	63 c1       	rjmp	.+710    	; 0x2748 <__scanf_core+0x840>
    2482:	c4 57       	subi	r28, 0x74	; 116
    2484:	de 4f       	sbci	r29, 0xFE	; 254
    2486:	88 81       	ld	r24, Y
    2488:	99 81       	ldd	r25, Y+1	; 0x01
    248a:	aa 81       	ldd	r26, Y+2	; 0x02
    248c:	cc 58       	subi	r28, 0x8C	; 140
    248e:	d1 40       	sbci	r29, 0x01	; 1
    2490:	01 96       	adiw	r24, 0x01	; 1
    2492:	a1 1d       	adc	r26, r1
    2494:	c4 57       	subi	r28, 0x74	; 116
    2496:	de 4f       	sbci	r29, 0xFE	; 254
    2498:	88 83       	st	Y, r24
    249a:	99 83       	std	Y+1, r25	; 0x01
    249c:	aa 83       	std	Y+2, r26	; 0x02
    249e:	cc 58       	subi	r28, 0x8C	; 140
    24a0:	d1 40       	sbci	r29, 0x01	; 1
    24a2:	c7 01       	movw	r24, r14
    24a4:	0e 94 a3 2c 	call	0x5946	; 0x5946 <fgetc>
    24a8:	85 32       	cpi	r24, 0x25	; 37
    24aa:	91 05       	cpc	r25, r1
    24ac:	81 f4       	brne	.+32     	; 0x24ce <__scanf_core+0x5c6>
    24ae:	c1 57       	subi	r28, 0x71	; 113
    24b0:	de 4f       	sbci	r29, 0xFE	; 254
    24b2:	88 81       	ld	r24, Y
    24b4:	99 81       	ldd	r25, Y+1	; 0x01
    24b6:	cf 58       	subi	r28, 0x8F	; 143
    24b8:	d1 40       	sbci	r29, 0x01	; 1
    24ba:	01 96       	adiw	r24, 0x01	; 1
    24bc:	c1 57       	subi	r28, 0x71	; 113
    24be:	de 4f       	sbci	r29, 0xFE	; 254
    24c0:	99 83       	std	Y+1, r25	; 0x01
    24c2:	88 83       	st	Y, r24
    24c4:	cf 58       	subi	r28, 0x8F	; 143
    24c6:	d1 40       	sbci	r29, 0x01	; 1
    24c8:	81 e0       	ldi	r24, 0x01	; 1
    24ca:	90 e0       	ldi	r25, 0x00	; 0
    24cc:	58 c1       	rjmp	.+688    	; 0x277e <__scanf_core+0x876>
    24ce:	b7 01       	movw	r22, r14
    24d0:	0e 94 97 34 	call	0x692e	; 0x692e <ungetc>
    24d4:	80 e0       	ldi	r24, 0x00	; 0
    24d6:	90 e0       	ldi	r25, 0x00	; 0
    24d8:	52 c1       	rjmp	.+676    	; 0x277e <__scanf_core+0x876>
    24da:	e0 e8       	ldi	r30, 0x80	; 128
    24dc:	5e 12       	cpse	r5, r30
    24de:	34 c1       	rjmp	.+616    	; 0x2748 <__scanf_core+0x840>
    24e0:	01 2b       	or	r16, r17
    24e2:	59 f4       	brne	.+22     	; 0x24fa <__scanf_core+0x5f2>
    24e4:	d5 01       	movw	r26, r10
    24e6:	ed 91       	ld	r30, X+
    24e8:	fc 91       	ld	r31, X
    24ea:	11 97       	sbiw	r26, 0x01	; 1
    24ec:	cf 01       	movw	r24, r30
    24ee:	02 96       	adiw	r24, 0x02	; 2
    24f0:	8d 93       	st	X+, r24
    24f2:	9c 93       	st	X, r25
    24f4:	00 81       	ld	r16, Z
    24f6:	11 81       	ldd	r17, Z+1	; 0x01
    24f8:	02 c0       	rjmp	.+4      	; 0x24fe <__scanf_core+0x5f6>
    24fa:	00 e0       	ldi	r16, 0x00	; 0
    24fc:	10 e0       	ldi	r17, 0x00	; 0
    24fe:	c4 57       	subi	r28, 0x74	; 116
    2500:	de 4f       	sbci	r29, 0xFE	; 254
    2502:	88 81       	ld	r24, Y
    2504:	99 81       	ldd	r25, Y+1	; 0x01
    2506:	aa 81       	ldd	r26, Y+2	; 0x02
    2508:	cc 58       	subi	r28, 0x8C	; 140
    250a:	d1 40       	sbci	r29, 0x01	; 1
    250c:	9c 01       	movw	r18, r24
    250e:	4a 2f       	mov	r20, r26
    2510:	2f 5f       	subi	r18, 0xFF	; 255
    2512:	3f 4f       	sbci	r19, 0xFF	; 255
    2514:	4f 4f       	sbci	r20, 0xFF	; 255
    2516:	c4 57       	subi	r28, 0x74	; 116
    2518:	de 4f       	sbci	r29, 0xFE	; 254
    251a:	28 83       	st	Y, r18
    251c:	39 83       	std	Y+1, r19	; 0x01
    251e:	4a 83       	std	Y+2, r20	; 0x02
    2520:	cc 58       	subi	r28, 0x8C	; 140
    2522:	d1 40       	sbci	r29, 0x01	; 1
    2524:	f9 01       	movw	r30, r18
    2526:	24 91       	lpm	r18, Z
    2528:	47 fd       	sbrc	r20, 7
    252a:	20 81       	ld	r18, Z
    252c:	2e 35       	cpi	r18, 0x5E	; 94
    252e:	61 f4       	brne	.+24     	; 0x2548 <__scanf_core+0x640>
    2530:	02 96       	adiw	r24, 0x02	; 2
    2532:	a1 1d       	adc	r26, r1
    2534:	c4 57       	subi	r28, 0x74	; 116
    2536:	de 4f       	sbci	r29, 0xFE	; 254
    2538:	88 83       	st	Y, r24
    253a:	99 83       	std	Y+1, r25	; 0x01
    253c:	aa 83       	std	Y+2, r26	; 0x02
    253e:	cc 58       	subi	r28, 0x8C	; 140
    2540:	d1 40       	sbci	r29, 0x01	; 1
    2542:	99 24       	eor	r9, r9
    2544:	93 94       	inc	r9
    2546:	01 c0       	rjmp	.+2      	; 0x254a <__scanf_core+0x642>
    2548:	91 2c       	mov	r9, r1
    254a:	41 e0       	ldi	r20, 0x01	; 1
    254c:	51 e0       	ldi	r21, 0x01	; 1
    254e:	69 2d       	mov	r22, r9
    2550:	70 e0       	ldi	r23, 0x00	; 0
    2552:	ce 01       	movw	r24, r28
    2554:	01 96       	adiw	r24, 0x01	; 1
    2556:	0e 94 89 38 	call	0x7112	; 0x7112 <memset>
    255a:	19 82       	std	Y+1, r1	; 0x01
    255c:	c4 57       	subi	r28, 0x74	; 116
    255e:	de 4f       	sbci	r29, 0xFE	; 254
    2560:	88 81       	ld	r24, Y
    2562:	99 81       	ldd	r25, Y+1	; 0x01
    2564:	aa 81       	ldd	r26, Y+2	; 0x02
    2566:	cc 58       	subi	r28, 0x8C	; 140
    2568:	d1 40       	sbci	r29, 0x01	; 1
    256a:	fc 01       	movw	r30, r24
    256c:	24 91       	lpm	r18, Z
    256e:	a7 fd       	sbrc	r26, 7
    2570:	20 81       	ld	r18, Z
    2572:	2d 32       	cpi	r18, 0x2D	; 45
    2574:	79 f4       	brne	.+30     	; 0x2594 <__scanf_core+0x68c>
    2576:	01 96       	adiw	r24, 0x01	; 1
    2578:	a1 1d       	adc	r26, r1
    257a:	c4 57       	subi	r28, 0x74	; 116
    257c:	de 4f       	sbci	r29, 0xFE	; 254
    257e:	88 83       	st	Y, r24
    2580:	99 83       	std	Y+1, r25	; 0x01
    2582:	aa 83       	std	Y+2, r26	; 0x02
    2584:	cc 58       	subi	r28, 0x8C	; 140
    2586:	d1 40       	sbci	r29, 0x01	; 1
    2588:	81 e0       	ldi	r24, 0x01	; 1
    258a:	89 19       	sub	r24, r9
    258c:	8f a7       	std	Y+47, r24	; 0x2f
    258e:	51 e0       	ldi	r21, 0x01	; 1
    2590:	59 19       	sub	r21, r9
    2592:	33 c0       	rjmp	.+102    	; 0x25fa <__scanf_core+0x6f2>
    2594:	2d 35       	cpi	r18, 0x5D	; 93
    2596:	d9 f7       	brne	.-10     	; 0x258e <__scanf_core+0x686>
    2598:	01 96       	adiw	r24, 0x01	; 1
    259a:	a1 1d       	adc	r26, r1
    259c:	c4 57       	subi	r28, 0x74	; 116
    259e:	de 4f       	sbci	r29, 0xFE	; 254
    25a0:	88 83       	st	Y, r24
    25a2:	99 83       	std	Y+1, r25	; 0x01
    25a4:	aa 83       	std	Y+2, r26	; 0x02
    25a6:	cc 58       	subi	r28, 0x8C	; 140
    25a8:	d1 40       	sbci	r29, 0x01	; 1
    25aa:	81 e0       	ldi	r24, 0x01	; 1
    25ac:	89 19       	sub	r24, r9
    25ae:	a0 96       	adiw	r28, 0x20	; 32
    25b0:	8f af       	std	Y+63, r24	; 0x3f
    25b2:	a0 97       	sbiw	r28, 0x20	; 32
    25b4:	ec cf       	rjmp	.-40     	; 0x258e <__scanf_core+0x686>
    25b6:	88 23       	and	r24, r24
    25b8:	09 f4       	brne	.+2      	; 0x25bc <__scanf_core+0x6b4>
    25ba:	76 c0       	rjmp	.+236    	; 0x26a8 <__scanf_core+0x7a0>
    25bc:	8d 32       	cpi	r24, 0x2D	; 45
    25be:	59 f1       	breq	.+86     	; 0x2616 <__scanf_core+0x70e>
    25c0:	c4 57       	subi	r28, 0x74	; 116
    25c2:	de 4f       	sbci	r29, 0xFE	; 254
    25c4:	88 81       	ld	r24, Y
    25c6:	99 81       	ldd	r25, Y+1	; 0x01
    25c8:	aa 81       	ldd	r26, Y+2	; 0x02
    25ca:	cc 58       	subi	r28, 0x8C	; 140
    25cc:	d1 40       	sbci	r29, 0x01	; 1
    25ce:	fc 01       	movw	r30, r24
    25d0:	24 91       	lpm	r18, Z
    25d2:	a7 fd       	sbrc	r26, 7
    25d4:	20 81       	ld	r18, Z
    25d6:	e2 e0       	ldi	r30, 0x02	; 2
    25d8:	f0 e0       	ldi	r31, 0x00	; 0
    25da:	ec 0f       	add	r30, r28
    25dc:	fd 1f       	adc	r31, r29
    25de:	e2 0f       	add	r30, r18
    25e0:	f1 1d       	adc	r31, r1
    25e2:	27 fd       	sbrc	r18, 7
    25e4:	fa 95       	dec	r31
    25e6:	50 83       	st	Z, r21
    25e8:	01 96       	adiw	r24, 0x01	; 1
    25ea:	a1 1d       	adc	r26, r1
    25ec:	c4 57       	subi	r28, 0x74	; 116
    25ee:	de 4f       	sbci	r29, 0xFE	; 254
    25f0:	88 83       	st	Y, r24
    25f2:	99 83       	std	Y+1, r25	; 0x01
    25f4:	aa 83       	std	Y+2, r26	; 0x02
    25f6:	cc 58       	subi	r28, 0x8C	; 140
    25f8:	d1 40       	sbci	r29, 0x01	; 1
    25fa:	c4 57       	subi	r28, 0x74	; 116
    25fc:	de 4f       	sbci	r29, 0xFE	; 254
    25fe:	28 81       	ld	r18, Y
    2600:	39 81       	ldd	r19, Y+1	; 0x01
    2602:	4a 81       	ldd	r20, Y+2	; 0x02
    2604:	cc 58       	subi	r28, 0x8C	; 140
    2606:	d1 40       	sbci	r29, 0x01	; 1
    2608:	f9 01       	movw	r30, r18
    260a:	84 91       	lpm	r24, Z
    260c:	47 fd       	sbrc	r20, 7
    260e:	80 81       	ld	r24, Z
    2610:	8d 35       	cpi	r24, 0x5D	; 93
    2612:	89 f6       	brne	.-94     	; 0x25b6 <__scanf_core+0x6ae>
    2614:	49 c0       	rjmp	.+146    	; 0x26a8 <__scanf_core+0x7a0>
    2616:	c1 57       	subi	r28, 0x71	; 113
    2618:	de 4f       	sbci	r29, 0xFE	; 254
    261a:	68 81       	ld	r22, Y
    261c:	cf 58       	subi	r28, 0x8F	; 143
    261e:	d1 40       	sbci	r29, 0x01	; 1
    2620:	c0 57       	subi	r28, 0x70	; 112
    2622:	de 4f       	sbci	r29, 0xFE	; 254
    2624:	98 81       	ld	r25, Y
    2626:	c0 59       	subi	r28, 0x90	; 144
    2628:	d1 40       	sbci	r29, 0x01	; 1
    262a:	cf 56       	subi	r28, 0x6F	; 111
    262c:	de 4f       	sbci	r29, 0xFE	; 254
    262e:	88 81       	ld	r24, Y
    2630:	c1 59       	subi	r28, 0x91	; 145
    2632:	d1 40       	sbci	r29, 0x01	; 1
    2634:	e6 2f       	mov	r30, r22
    2636:	f9 2f       	mov	r31, r25
    2638:	94 91       	lpm	r25, Z
    263a:	87 fd       	sbrc	r24, 7
    263c:	90 81       	ld	r25, Z
    263e:	99 23       	and	r25, r25
    2640:	09 f4       	brne	.+2      	; 0x2644 <__scanf_core+0x73c>
    2642:	be cf       	rjmp	.-132    	; 0x25c0 <__scanf_core+0x6b8>
    2644:	9d 35       	cpi	r25, 0x5D	; 93
    2646:	09 f4       	brne	.+2      	; 0x264a <__scanf_core+0x742>
    2648:	bb cf       	rjmp	.-138    	; 0x25c0 <__scanf_core+0x6b8>
    264a:	2f 5f       	subi	r18, 0xFF	; 255
    264c:	3f 4f       	sbci	r19, 0xFF	; 255
    264e:	4f 4f       	sbci	r20, 0xFF	; 255
    2650:	c4 57       	subi	r28, 0x74	; 116
    2652:	de 4f       	sbci	r29, 0xFE	; 254
    2654:	28 83       	st	Y, r18
    2656:	39 83       	std	Y+1, r19	; 0x01
    2658:	4a 83       	std	Y+2, r20	; 0x02
    265a:	cc 58       	subi	r28, 0x8C	; 140
    265c:	d1 40       	sbci	r29, 0x01	; 1
    265e:	cf 56       	subi	r28, 0x6F	; 111
    2660:	de 4f       	sbci	r29, 0xFE	; 254
    2662:	e8 81       	ld	r30, Y
    2664:	f9 81       	ldd	r31, Y+1	; 0x01
    2666:	c1 59       	subi	r28, 0x91	; 145
    2668:	d1 40       	sbci	r29, 0x01	; 1
    266a:	60 81       	ld	r22, Z
    266c:	81 81       	ldd	r24, Z+1	; 0x01
    266e:	92 81       	ldd	r25, Z+2	; 0x02
    2670:	e6 2f       	mov	r30, r22
    2672:	f8 2f       	mov	r31, r24
    2674:	84 91       	lpm	r24, Z
    2676:	97 fd       	sbrc	r25, 7
    2678:	80 81       	ld	r24, Z
    267a:	08 2e       	mov	r0, r24
    267c:	00 0c       	add	r0, r0
    267e:	99 0b       	sbc	r25, r25
    2680:	f9 01       	movw	r30, r18
    2682:	64 91       	lpm	r22, Z
    2684:	47 fd       	sbrc	r20, 7
    2686:	60 81       	ld	r22, Z
    2688:	06 2e       	mov	r0, r22
    268a:	00 0c       	add	r0, r0
    268c:	77 0b       	sbc	r23, r23
    268e:	86 17       	cp	r24, r22
    2690:	97 07       	cpc	r25, r23
    2692:	0c f0       	brlt	.+2      	; 0x2696 <__scanf_core+0x78e>
    2694:	95 cf       	rjmp	.-214    	; 0x25c0 <__scanf_core+0x6b8>
    2696:	01 96       	adiw	r24, 0x01	; 1
    2698:	e1 e0       	ldi	r30, 0x01	; 1
    269a:	f0 e0       	ldi	r31, 0x00	; 0
    269c:	ec 0f       	add	r30, r28
    269e:	fd 1f       	adc	r31, r29
    26a0:	e8 0f       	add	r30, r24
    26a2:	f9 1f       	adc	r31, r25
    26a4:	50 83       	st	Z, r21
    26a6:	ec cf       	rjmp	.-40     	; 0x2680 <__scanf_core+0x778>
    26a8:	01 15       	cp	r16, r1
    26aa:	11 05       	cpc	r17, r1
    26ac:	11 f1       	breq	.+68     	; 0x26f2 <__scanf_core+0x7ea>
    26ae:	18 01       	movw	r2, r16
    26b0:	21 01       	movw	r4, r2
    26b2:	40 1a       	sub	r4, r16
    26b4:	51 0a       	sbc	r5, r17
    26b6:	c7 01       	movw	r24, r14
    26b8:	0e 94 a3 2c 	call	0x5946	; 0x5946 <fgetc>
    26bc:	4c 01       	movw	r8, r24
    26be:	e2 e0       	ldi	r30, 0x02	; 2
    26c0:	f0 e0       	ldi	r31, 0x00	; 0
    26c2:	ec 0f       	add	r30, r28
    26c4:	fd 1f       	adc	r31, r29
    26c6:	e8 0f       	add	r30, r24
    26c8:	f9 1f       	adc	r31, r25
    26ca:	80 81       	ld	r24, Z
    26cc:	88 23       	and	r24, r24
    26ce:	71 f1       	breq	.+92     	; 0x272c <__scanf_core+0x824>
    26d0:	d1 01       	movw	r26, r2
    26d2:	8d 92       	st	X+, r8
    26d4:	1d 01       	movw	r2, r26
    26d6:	c1 57       	subi	r28, 0x71	; 113
    26d8:	de 4f       	sbci	r29, 0xFE	; 254
    26da:	88 81       	ld	r24, Y
    26dc:	99 81       	ldd	r25, Y+1	; 0x01
    26de:	cf 58       	subi	r28, 0x8F	; 143
    26e0:	d1 40       	sbci	r29, 0x01	; 1
    26e2:	01 96       	adiw	r24, 0x01	; 1
    26e4:	c1 57       	subi	r28, 0x71	; 113
    26e6:	de 4f       	sbci	r29, 0xFE	; 254
    26e8:	99 83       	std	Y+1, r25	; 0x01
    26ea:	88 83       	st	Y, r24
    26ec:	cf 58       	subi	r28, 0x8F	; 143
    26ee:	d1 40       	sbci	r29, 0x01	; 1
    26f0:	df cf       	rjmp	.-66     	; 0x26b0 <__scanf_core+0x7a8>
    26f2:	c7 01       	movw	r24, r14
    26f4:	0e 94 a3 2c 	call	0x5946	; 0x5946 <fgetc>
    26f8:	4c 01       	movw	r8, r24
    26fa:	e2 e0       	ldi	r30, 0x02	; 2
    26fc:	f0 e0       	ldi	r31, 0x00	; 0
    26fe:	ec 0f       	add	r30, r28
    2700:	fd 1f       	adc	r31, r29
    2702:	e8 0f       	add	r30, r24
    2704:	f9 1f       	adc	r31, r25
    2706:	80 81       	ld	r24, Z
    2708:	88 23       	and	r24, r24
    270a:	71 f0       	breq	.+28     	; 0x2728 <__scanf_core+0x820>
    270c:	c1 57       	subi	r28, 0x71	; 113
    270e:	de 4f       	sbci	r29, 0xFE	; 254
    2710:	88 81       	ld	r24, Y
    2712:	99 81       	ldd	r25, Y+1	; 0x01
    2714:	cf 58       	subi	r28, 0x8F	; 143
    2716:	d1 40       	sbci	r29, 0x01	; 1
    2718:	01 96       	adiw	r24, 0x01	; 1
    271a:	c1 57       	subi	r28, 0x71	; 113
    271c:	de 4f       	sbci	r29, 0xFE	; 254
    271e:	99 83       	std	Y+1, r25	; 0x01
    2720:	88 83       	st	Y, r24
    2722:	cf 58       	subi	r28, 0x8F	; 143
    2724:	d1 40       	sbci	r29, 0x01	; 1
    2726:	e5 cf       	rjmp	.-54     	; 0x26f2 <__scanf_core+0x7ea>
    2728:	41 2c       	mov	r4, r1
    272a:	51 2c       	mov	r5, r1
    272c:	b7 01       	movw	r22, r14
    272e:	c4 01       	movw	r24, r8
    2730:	0e 94 97 34 	call	0x692e	; 0x692e <ungetc>
    2734:	41 14       	cp	r4, r1
    2736:	51 04       	cpc	r5, r1
    2738:	39 f0       	breq	.+14     	; 0x2748 <__scanf_core+0x840>
    273a:	01 15       	cp	r16, r1
    273c:	11 05       	cpc	r17, r1
    273e:	21 f0       	breq	.+8      	; 0x2748 <__scanf_core+0x840>
    2740:	f8 01       	movw	r30, r16
    2742:	e4 0d       	add	r30, r4
    2744:	f5 1d       	adc	r31, r5
    2746:	10 82       	st	Z, r1
    2748:	c4 57       	subi	r28, 0x74	; 116
    274a:	de 4f       	sbci	r29, 0xFE	; 254
    274c:	88 81       	ld	r24, Y
    274e:	99 81       	ldd	r25, Y+1	; 0x01
    2750:	aa 81       	ldd	r26, Y+2	; 0x02
    2752:	cc 58       	subi	r28, 0x8C	; 140
    2754:	d1 40       	sbci	r29, 0x01	; 1
    2756:	01 96       	adiw	r24, 0x01	; 1
    2758:	a1 1d       	adc	r26, r1
    275a:	c4 57       	subi	r28, 0x74	; 116
    275c:	de 4f       	sbci	r29, 0xFE	; 254
    275e:	88 83       	st	Y, r24
    2760:	99 83       	std	Y+1, r25	; 0x01
    2762:	aa 83       	std	Y+2, r26	; 0x02
    2764:	cc 58       	subi	r28, 0x8C	; 140
    2766:	d1 40       	sbci	r29, 0x01	; 1
    2768:	81 e0       	ldi	r24, 0x01	; 1
    276a:	90 e0       	ldi	r25, 0x00	; 0
    276c:	bf ef       	ldi	r27, 0xFF	; 255
    276e:	8b 16       	cp	r8, r27
    2770:	9b 06       	cpc	r9, r27
    2772:	11 f0       	breq	.+4      	; 0x2778 <__scanf_core+0x870>
    2774:	80 e0       	ldi	r24, 0x00	; 0
    2776:	90 e0       	ldi	r25, 0x00	; 0
    2778:	91 95       	neg	r25
    277a:	81 95       	neg	r24
    277c:	91 09       	sbc	r25, r1
    277e:	97 fd       	sbrc	r25, 7
    2780:	03 c0       	rjmp	.+6      	; 0x2788 <__scanf_core+0x880>
    2782:	68 0e       	add	r6, r24
    2784:	79 1e       	adc	r7, r25
    2786:	e7 cb       	rjmp	.-2098   	; 0x1f56 <__scanf_core+0x4e>
    2788:	8f 3f       	cpi	r24, 0xFF	; 255
    278a:	ef ef       	ldi	r30, 0xFF	; 255
    278c:	9e 07       	cpc	r25, r30
    278e:	19 f4       	brne	.+6      	; 0x2796 <__scanf_core+0x88e>
    2790:	61 14       	cp	r6, r1
    2792:	71 04       	cpc	r7, r1
    2794:	09 f0       	breq	.+2      	; 0x2798 <__scanf_core+0x890>
    2796:	c3 01       	movw	r24, r6
    2798:	ce 56       	subi	r28, 0x6E	; 110
    279a:	de 4f       	sbci	r29, 0xFE	; 254
    279c:	e2 e1       	ldi	r30, 0x12	; 18
    279e:	0c 94 1a 36 	jmp	0x6c34	; 0x6c34 <__epilogue_restores__>

Disassembly of section .text.fgetc:

00005946 <fgetc>:
    5946:	cf 93       	push	r28
    5948:	df 93       	push	r29
    594a:	dc 01       	movw	r26, r24
    594c:	1b 96       	adiw	r26, 0x0b	; 11
    594e:	8d 91       	ld	r24, X+
    5950:	9c 91       	ld	r25, X
    5952:	1c 97       	sbiw	r26, 0x0c	; 12
    5954:	00 97       	sbiw	r24, 0x00	; 0
    5956:	b9 f0       	breq	.+46     	; 0x5986 <fgetc+0x40>
    5958:	01 97       	sbiw	r24, 0x01	; 1
    595a:	1c 96       	adiw	r26, 0x0c	; 12
    595c:	9c 93       	st	X, r25
    595e:	8e 93       	st	-X, r24
    5960:	1b 97       	sbiw	r26, 0x0b	; 11
    5962:	fd 01       	movw	r30, r26
    5964:	e8 0f       	add	r30, r24
    5966:	f9 1f       	adc	r31, r25
    5968:	81 85       	ldd	r24, Z+9	; 0x09
    596a:	17 96       	adiw	r26, 0x07	; 7
    596c:	2d 91       	ld	r18, X+
    596e:	3c 91       	ld	r19, X
    5970:	18 97       	sbiw	r26, 0x08	; 8
    5972:	2f 5f       	subi	r18, 0xFF	; 255
    5974:	3f 4f       	sbci	r19, 0xFF	; 255
    5976:	18 96       	adiw	r26, 0x08	; 8
    5978:	3c 93       	st	X, r19
    597a:	2e 93       	st	-X, r18
    597c:	17 97       	sbiw	r26, 0x07	; 7
    597e:	08 2e       	mov	r0, r24
    5980:	00 0c       	add	r0, r0
    5982:	99 0b       	sbc	r25, r25
    5984:	2e c0       	rjmp	.+92     	; 0x59e2 <fgetc+0x9c>
    5986:	8d 91       	ld	r24, X+
    5988:	9c 91       	ld	r25, X
    598a:	11 97       	sbiw	r26, 0x01	; 1
    598c:	90 ff       	sbrs	r25, 0
    598e:	16 c0       	rjmp	.+44     	; 0x59bc <fgetc+0x76>
    5990:	12 96       	adiw	r26, 0x02	; 2
    5992:	2d 91       	ld	r18, X+
    5994:	3d 91       	ld	r19, X+
    5996:	4c 91       	ld	r20, X
    5998:	14 97       	sbiw	r26, 0x04	; 4
    599a:	f9 01       	movw	r30, r18
    599c:	84 91       	lpm	r24, Z
    599e:	47 fd       	sbrc	r20, 7
    59a0:	80 81       	ld	r24, Z
    59a2:	08 2e       	mov	r0, r24
    59a4:	00 0c       	add	r0, r0
    59a6:	99 0b       	sbc	r25, r25
    59a8:	00 97       	sbiw	r24, 0x00	; 0
    59aa:	c9 f0       	breq	.+50     	; 0x59de <fgetc+0x98>
    59ac:	2f 5f       	subi	r18, 0xFF	; 255
    59ae:	3f 4f       	sbci	r19, 0xFF	; 255
    59b0:	4f 4f       	sbci	r20, 0xFF	; 255
    59b2:	12 96       	adiw	r26, 0x02	; 2
    59b4:	2d 93       	st	X+, r18
    59b6:	3d 93       	st	X+, r19
    59b8:	4c 93       	st	X, r20
    59ba:	0f c0       	rjmp	.+30     	; 0x59da <fgetc+0x94>
    59bc:	1f 96       	adiw	r26, 0x0f	; 15
    59be:	ed 91       	ld	r30, X+
    59c0:	fc 91       	ld	r31, X
    59c2:	50 97       	sbiw	r26, 0x10	; 16
    59c4:	30 97       	sbiw	r30, 0x00	; 0
    59c6:	59 f0       	breq	.+22     	; 0x59de <fgetc+0x98>
    59c8:	ed 01       	movw	r28, r26
    59ca:	cd 01       	movw	r24, r26
    59cc:	09 95       	icall
    59ce:	2f 81       	ldd	r18, Y+7	; 0x07
    59d0:	38 85       	ldd	r19, Y+8	; 0x08
    59d2:	2f 5f       	subi	r18, 0xFF	; 255
    59d4:	3f 4f       	sbci	r19, 0xFF	; 255
    59d6:	38 87       	std	Y+8, r19	; 0x08
    59d8:	2f 83       	std	Y+7, r18	; 0x07
    59da:	99 27       	eor	r25, r25
    59dc:	02 c0       	rjmp	.+4      	; 0x59e2 <fgetc+0x9c>
    59de:	8f ef       	ldi	r24, 0xFF	; 255
    59e0:	9f ef       	ldi	r25, 0xFF	; 255
    59e2:	df 91       	pop	r29
    59e4:	cf 91       	pop	r28
    59e6:	08 95       	ret

Disassembly of section .text.ungetc:

0000692e <ungetc>:
    692e:	fb 01       	movw	r30, r22
    6930:	8f 3f       	cpi	r24, 0xFF	; 255
    6932:	2f ef       	ldi	r18, 0xFF	; 255
    6934:	92 07       	cpc	r25, r18
    6936:	b9 f0       	breq	.+46     	; 0x6966 <ungetc+0x38>
    6938:	23 85       	ldd	r18, Z+11	; 0x0b
    693a:	34 85       	ldd	r19, Z+12	; 0x0c
    693c:	22 30       	cpi	r18, 0x02	; 2
    693e:	31 05       	cpc	r19, r1
    6940:	94 f4       	brge	.+36     	; 0x6966 <ungetc+0x38>
    6942:	a9 01       	movw	r20, r18
    6944:	4f 5f       	subi	r20, 0xFF	; 255
    6946:	5f 4f       	sbci	r21, 0xFF	; 255
    6948:	54 87       	std	Z+12, r21	; 0x0c
    694a:	43 87       	std	Z+11, r20	; 0x0b
    694c:	db 01       	movw	r26, r22
    694e:	a2 0f       	add	r26, r18
    6950:	b3 1f       	adc	r27, r19
    6952:	19 96       	adiw	r26, 0x09	; 9
    6954:	8c 93       	st	X, r24
    6956:	27 81       	ldd	r18, Z+7	; 0x07
    6958:	30 85       	ldd	r19, Z+8	; 0x08
    695a:	21 50       	subi	r18, 0x01	; 1
    695c:	31 09       	sbc	r19, r1
    695e:	30 87       	std	Z+8, r19	; 0x08
    6960:	27 83       	std	Z+7, r18	; 0x07
    6962:	99 27       	eor	r25, r25
    6964:	08 95       	ret
    6966:	8f ef       	ldi	r24, 0xFF	; 255
    6968:	9f ef       	ldi	r25, 0xFF	; 255
    696a:	08 95       	ret

Disassembly of section .text.fputc:

00005e3a <fputc>:
    5e3a:	0f 93       	push	r16
    5e3c:	1f 93       	push	r17
    5e3e:	cf 93       	push	r28
    5e40:	df 93       	push	r29
    5e42:	db 01       	movw	r26, r22
    5e44:	2d 91       	ld	r18, X+
    5e46:	3c 91       	ld	r19, X
    5e48:	11 97       	sbiw	r26, 0x01	; 1
    5e4a:	30 ff       	sbrs	r19, 0
    5e4c:	25 c0       	rjmp	.+74     	; 0x5e98 <fputc+0x5e>
    5e4e:	17 96       	adiw	r26, 0x07	; 7
    5e50:	4d 91       	ld	r20, X+
    5e52:	5c 91       	ld	r21, X
    5e54:	18 97       	sbiw	r26, 0x08	; 8
    5e56:	15 96       	adiw	r26, 0x05	; 5
    5e58:	2d 91       	ld	r18, X+
    5e5a:	3c 91       	ld	r19, X
    5e5c:	16 97       	sbiw	r26, 0x06	; 6
    5e5e:	42 17       	cp	r20, r18
    5e60:	53 07       	cpc	r21, r19
    5e62:	78 f4       	brcc	.+30     	; 0x5e82 <fputc+0x48>
    5e64:	12 96       	adiw	r26, 0x02	; 2
    5e66:	ed 91       	ld	r30, X+
    5e68:	fc 91       	ld	r31, X
    5e6a:	13 97       	sbiw	r26, 0x03	; 3
    5e6c:	80 83       	st	Z, r24
    5e6e:	12 96       	adiw	r26, 0x02	; 2
    5e70:	2d 91       	ld	r18, X+
    5e72:	3c 91       	ld	r19, X
    5e74:	13 97       	sbiw	r26, 0x03	; 3
    5e76:	2f 5f       	subi	r18, 0xFF	; 255
    5e78:	3f 4f       	sbci	r19, 0xFF	; 255
    5e7a:	13 96       	adiw	r26, 0x03	; 3
    5e7c:	3c 93       	st	X, r19
    5e7e:	2e 93       	st	-X, r18
    5e80:	12 97       	sbiw	r26, 0x02	; 2
    5e82:	17 96       	adiw	r26, 0x07	; 7
    5e84:	2d 91       	ld	r18, X+
    5e86:	3c 91       	ld	r19, X
    5e88:	18 97       	sbiw	r26, 0x08	; 8
    5e8a:	2f 5f       	subi	r18, 0xFF	; 255
    5e8c:	3f 4f       	sbci	r19, 0xFF	; 255
    5e8e:	18 96       	adiw	r26, 0x08	; 8
    5e90:	3c 93       	st	X, r19
    5e92:	2e 93       	st	-X, r18
    5e94:	17 97       	sbiw	r26, 0x07	; 7
    5e96:	15 c0       	rjmp	.+42     	; 0x5ec2 <fputc+0x88>
    5e98:	1d 96       	adiw	r26, 0x0d	; 13
    5e9a:	ed 91       	ld	r30, X+
    5e9c:	fc 91       	ld	r31, X
    5e9e:	1e 97       	sbiw	r26, 0x0e	; 14
    5ea0:	30 97       	sbiw	r30, 0x00	; 0
    5ea2:	19 f4       	brne	.+6      	; 0x5eaa <fputc+0x70>
    5ea4:	8f ef       	ldi	r24, 0xFF	; 255
    5ea6:	9f ef       	ldi	r25, 0xFF	; 255
    5ea8:	0c c0       	rjmp	.+24     	; 0x5ec2 <fputc+0x88>
    5eaa:	8b 01       	movw	r16, r22
    5eac:	ec 01       	movw	r28, r24
    5eae:	09 95       	icall
    5eb0:	89 2b       	or	r24, r25
    5eb2:	c1 f7       	brne	.-16     	; 0x5ea4 <fputc+0x6a>
    5eb4:	f8 01       	movw	r30, r16
    5eb6:	87 81       	ldd	r24, Z+7	; 0x07
    5eb8:	90 85       	ldd	r25, Z+8	; 0x08
    5eba:	01 96       	adiw	r24, 0x01	; 1
    5ebc:	90 87       	std	Z+8, r25	; 0x08
    5ebe:	87 83       	std	Z+7, r24	; 0x07
    5ec0:	ce 01       	movw	r24, r28
    5ec2:	df 91       	pop	r29
    5ec4:	cf 91       	pop	r28
    5ec6:	1f 91       	pop	r17
    5ec8:	0f 91       	pop	r16
    5eca:	08 95       	ret

Disassembly of section .text.__fmt_d:

0000473c <__fmt_d>:
    473c:	ad e0       	ldi	r26, 0x0D	; 13
    473e:	b0 e0       	ldi	r27, 0x00	; 0
    4740:	e4 ea       	ldi	r30, 0xA4	; 164
    4742:	f3 e2       	ldi	r31, 0x23	; 35
    4744:	0c 94 f0 34 	jmp	0x69e0	; 0x69e0 <__prologue_saves__>
    4748:	9a 87       	std	Y+10, r25	; 0x0a
    474a:	89 87       	std	Y+9, r24	; 0x09
    474c:	7c 83       	std	Y+4, r23	; 0x04
    474e:	6b 83       	std	Y+3, r22	; 0x03
    4750:	fa 01       	movw	r30, r20
    4752:	db 01       	movw	r26, r22
    4754:	12 96       	adiw	r26, 0x02	; 2
    4756:	cd 90       	ld	r12, X+
    4758:	dc 90       	ld	r13, X
    475a:	13 97       	sbiw	r26, 0x03	; 3
    475c:	14 96       	adiw	r26, 0x04	; 4
    475e:	8d 91       	ld	r24, X+
    4760:	9c 91       	ld	r25, X
    4762:	15 97       	sbiw	r26, 0x05	; 5
    4764:	9e 83       	std	Y+6, r25	; 0x06
    4766:	8d 83       	std	Y+5, r24	; 0x05
    4768:	ed 90       	ld	r14, X+
    476a:	fc 90       	ld	r15, X
    476c:	11 97       	sbiw	r26, 0x01	; 1
    476e:	fa 82       	std	Y+2, r15	; 0x02
    4770:	e9 82       	std	Y+1, r14	; 0x01
    4772:	16 96       	adiw	r26, 0x06	; 6
    4774:	0d 90       	ld	r0, X+
    4776:	bc 91       	ld	r27, X
    4778:	a0 2d       	mov	r26, r0
    477a:	b8 87       	std	Y+8, r27	; 0x08
    477c:	af 83       	std	Y+7, r26	; 0x07
    477e:	20 80       	ld	r2, Z
    4780:	31 80       	ldd	r3, Z+1	; 0x01
    4782:	42 80       	ldd	r4, Z+2	; 0x02
    4784:	53 80       	ldd	r5, Z+3	; 0x03
    4786:	64 80       	ldd	r6, Z+4	; 0x04
    4788:	75 80       	ldd	r7, Z+5	; 0x05
    478a:	86 80       	ldd	r8, Z+6	; 0x06
    478c:	97 80       	ldd	r9, Z+7	; 0x07
    478e:	81 01       	movw	r16, r2
    4790:	b4 2d       	mov	r27, r4
    4792:	f5 2d       	mov	r31, r5
    4794:	e6 2d       	mov	r30, r6
    4796:	7b 86       	std	Y+11, r7	; 0x0b
    4798:	8c 86       	std	Y+12, r8	; 0x0c
    479a:	9d 86       	std	Y+13, r9	; 0x0d
    479c:	91 01       	movw	r18, r2
    479e:	a2 01       	movw	r20, r4
    47a0:	b3 01       	movw	r22, r6
    47a2:	c4 01       	movw	r24, r8
    47a4:	a0 e0       	ldi	r26, 0x00	; 0
    47a6:	0e 94 67 38 	call	0x70ce	; 0x70ce <__cmpdi2_s8>
    47aa:	4c f4       	brge	.+18     	; 0x47be <__fmt_d+0x82>
    47ac:	0e 94 f7 37 	call	0x6fee	; 0x6fee <__negdi2>
    47b0:	89 01       	movw	r16, r18
    47b2:	b4 2f       	mov	r27, r20
    47b4:	f5 2f       	mov	r31, r21
    47b6:	e6 2f       	mov	r30, r22
    47b8:	7b 87       	std	Y+11, r23	; 0x0b
    47ba:	8c 87       	std	Y+12, r24	; 0x0c
    47bc:	9d 87       	std	Y+13, r25	; 0x0d
    47be:	d7 fc       	sbrc	r13, 7
    47c0:	04 c0       	rjmp	.+8      	; 0x47ca <__fmt_d+0x8e>
    47c2:	e8 94       	clt
    47c4:	e1 f8       	bld	r14, 1
    47c6:	fa 82       	std	Y+2, r15	; 0x02
    47c8:	e9 82       	std	Y+1, r14	; 0x01
    47ca:	91 01       	movw	r18, r2
    47cc:	a2 01       	movw	r20, r4
    47ce:	b3 01       	movw	r22, r6
    47d0:	c4 01       	movw	r24, r8
    47d2:	a0 e0       	ldi	r26, 0x00	; 0
    47d4:	ed 80       	ldd	r14, Y+5	; 0x05
    47d6:	fe 80       	ldd	r15, Y+6	; 0x06
    47d8:	0e 94 67 38 	call	0x70ce	; 0x70ce <__cmpdi2_s8>
    47dc:	1c f0       	brlt	.+6      	; 0x47e4 <__fmt_d+0xa8>
    47de:	89 81       	ldd	r24, Y+1	; 0x01
    47e0:	82 ff       	sbrs	r24, 2
    47e2:	04 c0       	rjmp	.+8      	; 0x47ec <__fmt_d+0xb0>
    47e4:	81 e0       	ldi	r24, 0x01	; 1
    47e6:	e8 1a       	sub	r14, r24
    47e8:	f1 08       	sbc	r15, r1
    47ea:	05 c0       	rjmp	.+10     	; 0x47f6 <__fmt_d+0xba>
    47ec:	83 ff       	sbrs	r24, 3
    47ee:	03 c0       	rjmp	.+6      	; 0x47f6 <__fmt_d+0xba>
    47f0:	91 e0       	ldi	r25, 0x01	; 1
    47f2:	e9 1a       	sub	r14, r25
    47f4:	f1 08       	sbc	r15, r1
    47f6:	ce 01       	movw	r24, r28
    47f8:	01 96       	adiw	r24, 0x01	; 1
    47fa:	5c 01       	movw	r10, r24
    47fc:	8a e0       	ldi	r24, 0x0A	; 10
    47fe:	c8 2e       	mov	r12, r24
    4800:	d1 2c       	mov	r13, r1
    4802:	2b 2f       	mov	r18, r27
    4804:	3f 2f       	mov	r19, r31
    4806:	4e 2f       	mov	r20, r30
    4808:	5b 85       	ldd	r21, Y+11	; 0x0b
    480a:	6c 85       	ldd	r22, Y+12	; 0x0c
    480c:	7d 85       	ldd	r23, Y+13	; 0x0d
    480e:	8b 81       	ldd	r24, Y+3	; 0x03
    4810:	9c 81       	ldd	r25, Y+4	; 0x04
    4812:	0e 94 6b 26 	call	0x4cd6	; 0x4cd6 <__cvt_u>
    4816:	fc 01       	movw	r30, r24
    4818:	91 01       	movw	r18, r2
    481a:	a2 01       	movw	r20, r4
    481c:	b3 01       	movw	r22, r6
    481e:	c4 01       	movw	r24, r8
    4820:	a0 e0       	ldi	r26, 0x00	; 0
    4822:	0e 94 67 38 	call	0x70ce	; 0x70ce <__cmpdi2_s8>
    4826:	1c f0       	brlt	.+6      	; 0x482e <__fmt_d+0xf2>
    4828:	89 81       	ldd	r24, Y+1	; 0x01
    482a:	82 ff       	sbrs	r24, 2
    482c:	12 c0       	rjmp	.+36     	; 0x4852 <__fmt_d+0x116>
    482e:	31 97       	sbiw	r30, 0x01	; 1
    4830:	0f 81       	ldd	r16, Y+7	; 0x07
    4832:	18 85       	ldd	r17, Y+8	; 0x08
    4834:	0e 0f       	add	r16, r30
    4836:	1f 1f       	adc	r17, r31
    4838:	91 01       	movw	r18, r2
    483a:	a2 01       	movw	r20, r4
    483c:	b3 01       	movw	r22, r6
    483e:	c4 01       	movw	r24, r8
    4840:	a0 e0       	ldi	r26, 0x00	; 0
    4842:	0e 94 67 38 	call	0x70ce	; 0x70ce <__cmpdi2_s8>
    4846:	14 f0       	brlt	.+4      	; 0x484c <__fmt_d+0x110>
    4848:	8b e2       	ldi	r24, 0x2B	; 43
    484a:	01 c0       	rjmp	.+2      	; 0x484e <__fmt_d+0x112>
    484c:	8d e2       	ldi	r24, 0x2D	; 45
    484e:	d8 01       	movw	r26, r16
    4850:	08 c0       	rjmp	.+16     	; 0x4862 <__fmt_d+0x126>
    4852:	83 ff       	sbrs	r24, 3
    4854:	07 c0       	rjmp	.+14     	; 0x4864 <__fmt_d+0x128>
    4856:	31 97       	sbiw	r30, 0x01	; 1
    4858:	af 81       	ldd	r26, Y+7	; 0x07
    485a:	b8 85       	ldd	r27, Y+8	; 0x08
    485c:	ae 0f       	add	r26, r30
    485e:	bf 1f       	adc	r27, r31
    4860:	80 e2       	ldi	r24, 0x20	; 32
    4862:	8c 93       	st	X, r24
    4864:	e9 80       	ldd	r14, Y+1	; 0x01
    4866:	fa 80       	ldd	r15, Y+2	; 0x02
    4868:	ab 81       	ldd	r26, Y+3	; 0x03
    486a:	bc 81       	ldd	r27, Y+4	; 0x04
    486c:	18 96       	adiw	r26, 0x08	; 8
    486e:	2d 91       	ld	r18, X+
    4870:	3c 91       	ld	r19, X
    4872:	19 97       	sbiw	r26, 0x09	; 9
    4874:	21 50       	subi	r18, 0x01	; 1
    4876:	31 09       	sbc	r19, r1
    4878:	2e 1b       	sub	r18, r30
    487a:	3f 0b       	sbc	r19, r31
    487c:	8f 81       	ldd	r24, Y+7	; 0x07
    487e:	98 85       	ldd	r25, Y+8	; 0x08
    4880:	e8 0f       	add	r30, r24
    4882:	f9 1f       	adc	r31, r25
    4884:	af 01       	movw	r20, r30
    4886:	60 e8       	ldi	r22, 0x80	; 128
    4888:	0d 81       	ldd	r16, Y+5	; 0x05
    488a:	1e 81       	ldd	r17, Y+6	; 0x06
    488c:	89 85       	ldd	r24, Y+9	; 0x09
    488e:	9a 85       	ldd	r25, Y+10	; 0x0a
    4890:	0e 94 ab 27 	call	0x4f56	; 0x4f56 <__pad>
    4894:	9c 01       	movw	r18, r24
    4896:	a9 85       	ldd	r26, Y+9	; 0x09
    4898:	ba 85       	ldd	r27, Y+10	; 0x0a
    489a:	8d 91       	ld	r24, X+
    489c:	9c 91       	ld	r25, X
    489e:	90 ff       	sbrs	r25, 0
    48a0:	07 c0       	rjmp	.+14     	; 0x48b0 <__fmt_d+0x174>
    48a2:	eb 81       	ldd	r30, Y+3	; 0x03
    48a4:	fc 81       	ldd	r31, Y+4	; 0x04
    48a6:	82 81       	ldd	r24, Z+2	; 0x02
    48a8:	93 81       	ldd	r25, Z+3	; 0x03
    48aa:	82 17       	cp	r24, r18
    48ac:	93 07       	cpc	r25, r19
    48ae:	0c f4       	brge	.+2      	; 0x48b2 <__fmt_d+0x176>
    48b0:	c9 01       	movw	r24, r18
    48b2:	2d 96       	adiw	r28, 0x0d	; 13
    48b4:	e2 e1       	ldi	r30, 0x12	; 18
    48b6:	0c 94 1a 36 	jmp	0x6c34	; 0x6c34 <__epilogue_restores__>

Disassembly of section .text.__fmt_o:

000054ce <__fmt_o>:
    54ce:	a2 e0       	ldi	r26, 0x02	; 2
    54d0:	b0 e0       	ldi	r27, 0x00	; 0
    54d2:	ed e6       	ldi	r30, 0x6D	; 109
    54d4:	fa e2       	ldi	r31, 0x2A	; 42
    54d6:	0c 94 f0 34 	jmp	0x69e0	; 0x69e0 <__prologue_saves__>
    54da:	1c 01       	movw	r2, r24
    54dc:	4b 01       	movw	r8, r22
    54de:	fa 01       	movw	r30, r20
    54e0:	db 01       	movw	r26, r22
    54e2:	12 96       	adiw	r26, 0x02	; 2
    54e4:	2d 91       	ld	r18, X+
    54e6:	3c 91       	ld	r19, X
    54e8:	13 97       	sbiw	r26, 0x03	; 3
    54ea:	14 96       	adiw	r26, 0x04	; 4
    54ec:	4d 90       	ld	r4, X+
    54ee:	5c 90       	ld	r5, X
    54f0:	15 97       	sbiw	r26, 0x05	; 5
    54f2:	8d 91       	ld	r24, X+
    54f4:	9c 91       	ld	r25, X
    54f6:	11 97       	sbiw	r26, 0x01	; 1
    54f8:	9a 83       	std	Y+2, r25	; 0x02
    54fa:	89 83       	std	Y+1, r24	; 0x01
    54fc:	16 96       	adiw	r26, 0x06	; 6
    54fe:	6d 90       	ld	r6, X+
    5500:	7c 90       	ld	r7, X
    5502:	17 97       	sbiw	r26, 0x07	; 7
    5504:	37 fd       	sbrc	r19, 7
    5506:	03 c0       	rjmp	.+6      	; 0x550e <__fmt_o+0x40>
    5508:	8d 7f       	andi	r24, 0xFD	; 253
    550a:	9a 83       	std	Y+2, r25	; 0x02
    550c:	89 83       	std	Y+1, r24	; 0x01
    550e:	00 81       	ld	r16, Z
    5510:	11 81       	ldd	r17, Z+1	; 0x01
    5512:	22 81       	ldd	r18, Z+2	; 0x02
    5514:	33 81       	ldd	r19, Z+3	; 0x03
    5516:	44 81       	ldd	r20, Z+4	; 0x04
    5518:	55 81       	ldd	r21, Z+5	; 0x05
    551a:	66 81       	ldd	r22, Z+6	; 0x06
    551c:	77 81       	ldd	r23, Z+7	; 0x07
    551e:	fe 01       	movw	r30, r28
    5520:	31 96       	adiw	r30, 0x01	; 1
    5522:	5f 01       	movw	r10, r30
    5524:	88 e0       	ldi	r24, 0x08	; 8
    5526:	c8 2e       	mov	r12, r24
    5528:	d1 2c       	mov	r13, r1
    552a:	72 01       	movw	r14, r4
    552c:	c4 01       	movw	r24, r8
    552e:	0e 94 6b 26 	call	0x4cd6	; 0x4cd6 <__cvt_u>
    5532:	29 81       	ldd	r18, Y+1	; 0x01
    5534:	24 ff       	sbrs	r18, 4
    5536:	06 c0       	rjmp	.+12     	; 0x5544 <__fmt_o+0x76>
    5538:	01 97       	sbiw	r24, 0x01	; 1
    553a:	f3 01       	movw	r30, r6
    553c:	e8 0f       	add	r30, r24
    553e:	f9 1f       	adc	r31, r25
    5540:	20 e3       	ldi	r18, 0x30	; 48
    5542:	20 83       	st	Z, r18
    5544:	29 81       	ldd	r18, Y+1	; 0x01
    5546:	23 ff       	sbrs	r18, 3
    5548:	06 c0       	rjmp	.+12     	; 0x5556 <__fmt_o+0x88>
    554a:	01 97       	sbiw	r24, 0x01	; 1
    554c:	f3 01       	movw	r30, r6
    554e:	e8 0f       	add	r30, r24
    5550:	f9 1f       	adc	r31, r25
    5552:	20 e2       	ldi	r18, 0x20	; 32
    5554:	20 83       	st	Z, r18
    5556:	e9 80       	ldd	r14, Y+1	; 0x01
    5558:	fa 80       	ldd	r15, Y+2	; 0x02
    555a:	d4 01       	movw	r26, r8
    555c:	18 96       	adiw	r26, 0x08	; 8
    555e:	2d 91       	ld	r18, X+
    5560:	3c 91       	ld	r19, X
    5562:	19 97       	sbiw	r26, 0x09	; 9
    5564:	21 50       	subi	r18, 0x01	; 1
    5566:	31 09       	sbc	r19, r1
    5568:	28 1b       	sub	r18, r24
    556a:	39 0b       	sbc	r19, r25
    556c:	86 0d       	add	r24, r6
    556e:	97 1d       	adc	r25, r7
    5570:	ac 01       	movw	r20, r24
    5572:	60 e8       	ldi	r22, 0x80	; 128
    5574:	82 01       	movw	r16, r4
    5576:	c1 01       	movw	r24, r2
    5578:	0e 94 ab 27 	call	0x4f56	; 0x4f56 <__pad>
    557c:	9c 01       	movw	r18, r24
    557e:	f1 01       	movw	r30, r2
    5580:	80 81       	ld	r24, Z
    5582:	91 81       	ldd	r25, Z+1	; 0x01
    5584:	90 ff       	sbrs	r25, 0
    5586:	08 c0       	rjmp	.+16     	; 0x5598 <__fmt_o+0xca>
    5588:	d4 01       	movw	r26, r8
    558a:	12 96       	adiw	r26, 0x02	; 2
    558c:	8d 91       	ld	r24, X+
    558e:	9c 91       	ld	r25, X
    5590:	13 97       	sbiw	r26, 0x03	; 3
    5592:	82 17       	cp	r24, r18
    5594:	93 07       	cpc	r25, r19
    5596:	0c f4       	brge	.+2      	; 0x559a <__fmt_o+0xcc>
    5598:	c9 01       	movw	r24, r18
    559a:	22 96       	adiw	r28, 0x02	; 2
    559c:	e2 e1       	ldi	r30, 0x12	; 18
    559e:	0c 94 1a 36 	jmp	0x6c34	; 0x6c34 <__epilogue_restores__>

Disassembly of section .text.__cvt_u:

00004cd6 <__cvt_u>:
    4cd6:	a2 e1       	ldi	r26, 0x12	; 18
    4cd8:	b0 e0       	ldi	r27, 0x00	; 0
    4cda:	e1 e7       	ldi	r30, 0x71	; 113
    4cdc:	f6 e2       	ldi	r31, 0x26	; 38
    4cde:	0c 94 f0 34 	jmp	0x69e0	; 0x69e0 <__prologue_saves__>
    4ce2:	fc 01       	movw	r30, r24
    4ce4:	0a 8b       	std	Y+18, r16	; 0x12
    4ce6:	1b 83       	std	Y+3, r17	; 0x03
    4ce8:	2c 83       	std	Y+4, r18	; 0x04
    4cea:	73 2e       	mov	r7, r19
    4cec:	64 2e       	mov	r6, r20
    4cee:	55 2e       	mov	r5, r21
    4cf0:	46 2e       	mov	r4, r22
    4cf2:	7d 83       	std	Y+5, r23	; 0x05
    4cf4:	cc 86       	std	Y+12, r12	; 0x0c
    4cf6:	d8 86       	std	Y+8, r13	; 0x08
    4cf8:	bf 82       	std	Y+7, r11	; 0x07
    4cfa:	ae 82       	std	Y+6, r10	; 0x06
    4cfc:	86 81       	ldd	r24, Z+6	; 0x06
    4cfe:	97 81       	ldd	r25, Z+7	; 0x07
    4d00:	9b 87       	std	Y+11, r25	; 0x0b
    4d02:	8a 87       	std	Y+10, r24	; 0x0a
    4d04:	d5 01       	movw	r26, r10
    4d06:	4d 91       	ld	r20, X+
    4d08:	5c 91       	ld	r21, X
    4d0a:	22 81       	ldd	r18, Z+2	; 0x02
    4d0c:	33 81       	ldd	r19, Z+3	; 0x03
    4d0e:	80 85       	ldd	r24, Z+8	; 0x08
    4d10:	91 85       	ldd	r25, Z+9	; 0x09
    4d12:	01 97       	sbiw	r24, 0x01	; 1
    4d14:	1c 01       	movw	r2, r24
    4d16:	37 ff       	sbrs	r19, 7
    4d18:	02 c0       	rjmp	.+4      	; 0x4d1e <__cvt_u+0x48>
    4d1a:	21 e0       	ldi	r18, 0x01	; 1
    4d1c:	30 e0       	ldi	r19, 0x00	; 0
    4d1e:	ea 85       	ldd	r30, Y+10	; 0x0a
    4d20:	fb 85       	ldd	r31, Y+11	; 0x0b
    4d22:	e8 0f       	add	r30, r24
    4d24:	f9 1f       	adc	r31, r25
    4d26:	10 82       	st	Z, r1
    4d28:	47 01       	movw	r8, r14
    4d2a:	e1 e0       	ldi	r30, 0x01	; 1
    4d2c:	f0 e0       	ldi	r31, 0x00	; 0
    4d2e:	fa 83       	std	Y+2, r31	; 0x02
    4d30:	e9 83       	std	Y+1, r30	; 0x01
    4d32:	c9 01       	movw	r24, r18
    4d34:	8e 19       	sub	r24, r14
    4d36:	9f 09       	sbc	r25, r15
    4d38:	9e 87       	std	Y+14, r25	; 0x0e
    4d3a:	8d 87       	std	Y+13, r24	; 0x0d
    4d3c:	da 01       	movw	r26, r20
    4d3e:	a2 70       	andi	r26, 0x02	; 2
    4d40:	bb 27       	eor	r27, r27
    4d42:	b8 8b       	std	Y+16, r27	; 0x10
    4d44:	af 87       	std	Y+15, r26	; 0x0f
    4d46:	b8 85       	ldd	r27, Y+8	; 0x08
    4d48:	bb 0f       	add	r27, r27
    4d4a:	bb 0b       	sbc	r27, r27
    4d4c:	b9 8b       	std	Y+17, r27	; 0x11
    4d4e:	12 14       	cp	r1, r2
    4d50:	13 04       	cpc	r1, r3
    4d52:	74 f0       	brlt	.+28     	; 0x4d70 <__cvt_u+0x9a>
    4d54:	a9 81       	ldd	r26, Y+1	; 0x01
    4d56:	ba 81       	ldd	r27, Y+2	; 0x02
    4d58:	ab 2b       	or	r26, r27
    4d5a:	09 f0       	breq	.+2      	; 0x4d5e <__cvt_u+0x88>
    4d5c:	5c c0       	rjmp	.+184    	; 0x4e16 <__cvt_u+0x140>
    4d5e:	ae 81       	ldd	r26, Y+6	; 0x06
    4d60:	bf 81       	ldd	r27, Y+7	; 0x07
    4d62:	8d 91       	ld	r24, X+
    4d64:	9c 91       	ld	r25, X
    4d66:	11 97       	sbiw	r26, 0x01	; 1
    4d68:	8f 7e       	andi	r24, 0xEF	; 239
    4d6a:	8d 93       	st	X+, r24
    4d6c:	9c 93       	st	X, r25
    4d6e:	53 c0       	rjmp	.+166    	; 0x4e16 <__cvt_u+0x140>
    4d70:	2a 89       	ldd	r18, Y+18	; 0x12
    4d72:	3b 81       	ldd	r19, Y+3	; 0x03
    4d74:	4c 81       	ldd	r20, Y+4	; 0x04
    4d76:	57 2d       	mov	r21, r7
    4d78:	66 2d       	mov	r22, r6
    4d7a:	75 2d       	mov	r23, r5
    4d7c:	84 2d       	mov	r24, r4
    4d7e:	9d 81       	ldd	r25, Y+5	; 0x05
    4d80:	a0 e0       	ldi	r26, 0x00	; 0
    4d82:	0e 94 67 38 	call	0x70ce	; 0x70ce <__cmpdi2_s8>
    4d86:	b1 f1       	breq	.+108    	; 0x4df4 <__cvt_u+0x11e>
    4d88:	e1 e0       	ldi	r30, 0x01	; 1
    4d8a:	2e 1a       	sub	r2, r30
    4d8c:	31 08       	sbc	r3, r1
    4d8e:	fc 85       	ldd	r31, Y+12	; 0x0c
    4d90:	f9 87       	std	Y+9, r31	; 0x09
    4d92:	af 2e       	mov	r10, r31
    4d94:	b8 84       	ldd	r11, Y+8	; 0x08
    4d96:	c9 88       	ldd	r12, Y+17	; 0x11
    4d98:	dc 2c       	mov	r13, r12
    4d9a:	ec 2c       	mov	r14, r12
    4d9c:	fc 2c       	mov	r15, r12
    4d9e:	0c 2d       	mov	r16, r12
    4da0:	1c 2d       	mov	r17, r12
    4da2:	2a 89       	ldd	r18, Y+18	; 0x12
    4da4:	3b 81       	ldd	r19, Y+3	; 0x03
    4da6:	4c 81       	ldd	r20, Y+4	; 0x04
    4da8:	57 2d       	mov	r21, r7
    4daa:	66 2d       	mov	r22, r6
    4dac:	75 2d       	mov	r23, r5
    4dae:	84 2d       	mov	r24, r4
    4db0:	9d 81       	ldd	r25, Y+5	; 0x05
    4db2:	0e 94 33 38 	call	0x7066	; 0x7066 <__umoddi3>
    4db6:	c9 01       	movw	r24, r18
    4db8:	29 83       	std	Y+1, r18	; 0x01
    4dba:	9a 83       	std	Y+2, r25	; 0x02
    4dbc:	ea 85       	ldd	r30, Y+10	; 0x0a
    4dbe:	fb 85       	ldd	r31, Y+11	; 0x0b
    4dc0:	e2 0d       	add	r30, r2
    4dc2:	f3 1d       	adc	r31, r3
    4dc4:	80 5d       	subi	r24, 0xD0	; 208
    4dc6:	80 83       	st	Z, r24
    4dc8:	81 e0       	ldi	r24, 0x01	; 1
    4dca:	88 1a       	sub	r8, r24
    4dcc:	91 08       	sbc	r9, r1
    4dce:	2a 89       	ldd	r18, Y+18	; 0x12
    4dd0:	3b 81       	ldd	r19, Y+3	; 0x03
    4dd2:	4c 81       	ldd	r20, Y+4	; 0x04
    4dd4:	57 2d       	mov	r21, r7
    4dd6:	66 2d       	mov	r22, r6
    4dd8:	75 2d       	mov	r23, r5
    4dda:	84 2d       	mov	r24, r4
    4ddc:	9d 81       	ldd	r25, Y+5	; 0x05
    4dde:	0e 94 35 38 	call	0x706a	; 0x706a <__udivdi3>
    4de2:	2a 8b       	std	Y+18, r18	; 0x12
    4de4:	3b 83       	std	Y+3, r19	; 0x03
    4de6:	4c 83       	std	Y+4, r20	; 0x04
    4de8:	75 2e       	mov	r7, r21
    4dea:	66 2e       	mov	r6, r22
    4dec:	57 2e       	mov	r5, r23
    4dee:	48 2e       	mov	r4, r24
    4df0:	9d 83       	std	Y+5, r25	; 0x05
    4df2:	ad cf       	rjmp	.-166    	; 0x4d4e <__cvt_u+0x78>
    4df4:	8d 85       	ldd	r24, Y+13	; 0x0d
    4df6:	9e 85       	ldd	r25, Y+14	; 0x0e
    4df8:	88 0d       	add	r24, r8
    4dfa:	99 1d       	adc	r25, r9
    4dfc:	18 16       	cp	r1, r24
    4dfe:	19 06       	cpc	r1, r25
    4e00:	1c f2       	brlt	.-122    	; 0x4d88 <__cvt_u+0xb2>
    4e02:	18 14       	cp	r1, r8
    4e04:	19 04       	cpc	r1, r9
    4e06:	0c f0       	brlt	.+2      	; 0x4e0a <__cvt_u+0x134>
    4e08:	a5 cf       	rjmp	.-182    	; 0x4d54 <__cvt_u+0x7e>
    4e0a:	ef 85       	ldd	r30, Y+15	; 0x0f
    4e0c:	f8 89       	ldd	r31, Y+16	; 0x10
    4e0e:	ef 2b       	or	r30, r31
    4e10:	09 f0       	breq	.+2      	; 0x4e14 <__cvt_u+0x13e>
    4e12:	ba cf       	rjmp	.-140    	; 0x4d88 <__cvt_u+0xb2>
    4e14:	9f cf       	rjmp	.-194    	; 0x4d54 <__cvt_u+0x7e>
    4e16:	c1 01       	movw	r24, r2
    4e18:	62 96       	adiw	r28, 0x12	; 18
    4e1a:	e2 e1       	ldi	r30, 0x12	; 18
    4e1c:	0c 94 1a 36 	jmp	0x6c34	; 0x6c34 <__epilogue_restores__>

Disassembly of section .text.__fmt_u:

000057f2 <__fmt_u>:
    57f2:	a2 e0       	ldi	r26, 0x02	; 2
    57f4:	b0 e0       	ldi	r27, 0x00	; 0
    57f6:	ef ef       	ldi	r30, 0xFF	; 255
    57f8:	fb e2       	ldi	r31, 0x2B	; 43
    57fa:	0c 94 f0 34 	jmp	0x69e0	; 0x69e0 <__prologue_saves__>
    57fe:	3c 01       	movw	r6, r24
    5800:	4b 01       	movw	r8, r22
    5802:	fa 01       	movw	r30, r20
    5804:	db 01       	movw	r26, r22
    5806:	12 96       	adiw	r26, 0x02	; 2
    5808:	2d 91       	ld	r18, X+
    580a:	3c 91       	ld	r19, X
    580c:	13 97       	sbiw	r26, 0x03	; 3
    580e:	14 96       	adiw	r26, 0x04	; 4
    5810:	4d 90       	ld	r4, X+
    5812:	5c 90       	ld	r5, X
    5814:	15 97       	sbiw	r26, 0x05	; 5
    5816:	8d 91       	ld	r24, X+
    5818:	9c 91       	ld	r25, X
    581a:	11 97       	sbiw	r26, 0x01	; 1
    581c:	9a 83       	std	Y+2, r25	; 0x02
    581e:	89 83       	std	Y+1, r24	; 0x01
    5820:	16 96       	adiw	r26, 0x06	; 6
    5822:	2d 90       	ld	r2, X+
    5824:	3c 90       	ld	r3, X
    5826:	17 97       	sbiw	r26, 0x07	; 7
    5828:	37 fd       	sbrc	r19, 7
    582a:	03 c0       	rjmp	.+6      	; 0x5832 <__fmt_u+0x40>
    582c:	8d 7f       	andi	r24, 0xFD	; 253
    582e:	9a 83       	std	Y+2, r25	; 0x02
    5830:	89 83       	std	Y+1, r24	; 0x01
    5832:	00 81       	ld	r16, Z
    5834:	11 81       	ldd	r17, Z+1	; 0x01
    5836:	22 81       	ldd	r18, Z+2	; 0x02
    5838:	33 81       	ldd	r19, Z+3	; 0x03
    583a:	44 81       	ldd	r20, Z+4	; 0x04
    583c:	55 81       	ldd	r21, Z+5	; 0x05
    583e:	66 81       	ldd	r22, Z+6	; 0x06
    5840:	77 81       	ldd	r23, Z+7	; 0x07
    5842:	fe 01       	movw	r30, r28
    5844:	31 96       	adiw	r30, 0x01	; 1
    5846:	5f 01       	movw	r10, r30
    5848:	8a e0       	ldi	r24, 0x0A	; 10
    584a:	c8 2e       	mov	r12, r24
    584c:	d1 2c       	mov	r13, r1
    584e:	72 01       	movw	r14, r4
    5850:	c4 01       	movw	r24, r8
    5852:	0e 94 6b 26 	call	0x4cd6	; 0x4cd6 <__cvt_u>
    5856:	e9 80       	ldd	r14, Y+1	; 0x01
    5858:	fa 80       	ldd	r15, Y+2	; 0x02
    585a:	d4 01       	movw	r26, r8
    585c:	18 96       	adiw	r26, 0x08	; 8
    585e:	2d 91       	ld	r18, X+
    5860:	3c 91       	ld	r19, X
    5862:	19 97       	sbiw	r26, 0x09	; 9
    5864:	21 50       	subi	r18, 0x01	; 1
    5866:	31 09       	sbc	r19, r1
    5868:	28 1b       	sub	r18, r24
    586a:	39 0b       	sbc	r19, r25
    586c:	82 0d       	add	r24, r2
    586e:	93 1d       	adc	r25, r3
    5870:	ac 01       	movw	r20, r24
    5872:	60 e8       	ldi	r22, 0x80	; 128
    5874:	82 01       	movw	r16, r4
    5876:	c3 01       	movw	r24, r6
    5878:	0e 94 ab 27 	call	0x4f56	; 0x4f56 <__pad>
    587c:	9c 01       	movw	r18, r24
    587e:	f3 01       	movw	r30, r6
    5880:	80 81       	ld	r24, Z
    5882:	91 81       	ldd	r25, Z+1	; 0x01
    5884:	90 ff       	sbrs	r25, 0
    5886:	08 c0       	rjmp	.+16     	; 0x5898 <__fmt_u+0xa6>
    5888:	d4 01       	movw	r26, r8
    588a:	12 96       	adiw	r26, 0x02	; 2
    588c:	8d 91       	ld	r24, X+
    588e:	9c 91       	ld	r25, X
    5890:	13 97       	sbiw	r26, 0x03	; 3
    5892:	82 17       	cp	r24, r18
    5894:	93 07       	cpc	r25, r19
    5896:	0c f4       	brge	.+2      	; 0x589a <__fmt_u+0xa8>
    5898:	c9 01       	movw	r24, r18
    589a:	22 96       	adiw	r28, 0x02	; 2
    589c:	e2 e1       	ldi	r30, 0x12	; 18
    589e:	0c 94 1a 36 	jmp	0x6c34	; 0x6c34 <__epilogue_restores__>

Disassembly of section .text.__fmt_x:

00003f9a <__fmt_x>:
    3f9a:	a4 e1       	ldi	r26, 0x14	; 20
    3f9c:	b0 e0       	ldi	r27, 0x00	; 0
    3f9e:	e3 ed       	ldi	r30, 0xD3	; 211
    3fa0:	ff e1       	ldi	r31, 0x1F	; 31
    3fa2:	0c 94 f0 34 	jmp	0x69e0	; 0x69e0 <__prologue_saves__>
    3fa6:	98 87       	std	Y+8, r25	; 0x08
    3fa8:	8f 83       	std	Y+7, r24	; 0x07
    3faa:	7a 83       	std	Y+2, r23	; 0x02
    3fac:	69 83       	std	Y+1, r22	; 0x01
    3fae:	5c 8b       	std	Y+20, r21	; 0x14
    3fb0:	4b 8b       	std	Y+19, r20	; 0x13
    3fb2:	12 2f       	mov	r17, r18
    3fb4:	db 01       	movw	r26, r22
    3fb6:	12 96       	adiw	r26, 0x02	; 2
    3fb8:	ed 91       	ld	r30, X+
    3fba:	fc 91       	ld	r31, X
    3fbc:	13 97       	sbiw	r26, 0x03	; 3
    3fbe:	14 96       	adiw	r26, 0x04	; 4
    3fc0:	2d 91       	ld	r18, X+
    3fc2:	3c 91       	ld	r19, X
    3fc4:	15 97       	sbiw	r26, 0x05	; 5
    3fc6:	3e 83       	std	Y+6, r19	; 0x06
    3fc8:	2d 83       	std	Y+5, r18	; 0x05
    3fca:	ed 90       	ld	r14, X+
    3fcc:	fc 90       	ld	r15, X
    3fce:	11 97       	sbiw	r26, 0x01	; 1
    3fd0:	16 96       	adiw	r26, 0x06	; 6
    3fd2:	2d 90       	ld	r2, X+
    3fd4:	3c 90       	ld	r3, X
    3fd6:	17 97       	sbiw	r26, 0x07	; 7
    3fd8:	f7 fd       	sbrc	r31, 7
    3fda:	03 c0       	rjmp	.+6      	; 0x3fe2 <__fmt_x+0x48>
    3fdc:	e8 94       	clt
    3fde:	e1 f8       	bld	r14, 1
    3fe0:	02 c0       	rjmp	.+4      	; 0x3fe6 <__fmt_x+0x4c>
    3fe2:	e1 e0       	ldi	r30, 0x01	; 1
    3fe4:	f0 e0       	ldi	r31, 0x00	; 0
    3fe6:	c7 01       	movw	r24, r14
    3fe8:	80 71       	andi	r24, 0x10	; 16
    3fea:	99 27       	eor	r25, r25
    3fec:	9a 87       	std	Y+10, r25	; 0x0a
    3fee:	89 87       	std	Y+9, r24	; 0x09
    3ff0:	e4 fe       	sbrs	r14, 4
    3ff2:	1f c0       	rjmp	.+62     	; 0x4032 <__fmt_x+0x98>
    3ff4:	ab 89       	ldd	r26, Y+19	; 0x13
    3ff6:	bc 89       	ldd	r27, Y+20	; 0x14
    3ff8:	2c 91       	ld	r18, X
    3ffa:	11 96       	adiw	r26, 0x01	; 1
    3ffc:	3c 91       	ld	r19, X
    3ffe:	11 97       	sbiw	r26, 0x01	; 1
    4000:	12 96       	adiw	r26, 0x02	; 2
    4002:	4c 91       	ld	r20, X
    4004:	12 97       	sbiw	r26, 0x02	; 2
    4006:	13 96       	adiw	r26, 0x03	; 3
    4008:	5c 91       	ld	r21, X
    400a:	13 97       	sbiw	r26, 0x03	; 3
    400c:	14 96       	adiw	r26, 0x04	; 4
    400e:	6c 91       	ld	r22, X
    4010:	14 97       	sbiw	r26, 0x04	; 4
    4012:	15 96       	adiw	r26, 0x05	; 5
    4014:	7c 91       	ld	r23, X
    4016:	15 97       	sbiw	r26, 0x05	; 5
    4018:	16 96       	adiw	r26, 0x06	; 6
    401a:	8c 91       	ld	r24, X
    401c:	16 97       	sbiw	r26, 0x06	; 6
    401e:	17 96       	adiw	r26, 0x07	; 7
    4020:	9c 91       	ld	r25, X
    4022:	a0 e0       	ldi	r26, 0x00	; 0
    4024:	0e 94 67 38 	call	0x70ce	; 0x70ce <__cmpdi2_s8>
    4028:	21 f0       	breq	.+8      	; 0x4032 <__fmt_x+0x98>
    402a:	8d 81       	ldd	r24, Y+5	; 0x05
    402c:	9e 81       	ldd	r25, Y+6	; 0x06
    402e:	02 97       	sbiw	r24, 0x02	; 2
    4030:	02 c0       	rjmp	.+4      	; 0x4036 <__fmt_x+0x9c>
    4032:	8d 81       	ldd	r24, Y+5	; 0x05
    4034:	9e 81       	ldd	r25, Y+6	; 0x06
    4036:	97 01       	movw	r18, r14
    4038:	28 70       	andi	r18, 0x08	; 8
    403a:	33 27       	eor	r19, r19
    403c:	3c 87       	std	Y+12, r19	; 0x0c
    403e:	2b 87       	std	Y+11, r18	; 0x0b
    4040:	e3 fc       	sbrc	r14, 3
    4042:	01 97       	sbiw	r24, 0x01	; 1
    4044:	ab 89       	ldd	r26, Y+19	; 0x13
    4046:	bc 89       	ldd	r27, Y+20	; 0x14
    4048:	4c 90       	ld	r4, X
    404a:	11 96       	adiw	r26, 0x01	; 1
    404c:	5c 90       	ld	r5, X
    404e:	11 97       	sbiw	r26, 0x01	; 1
    4050:	12 96       	adiw	r26, 0x02	; 2
    4052:	6c 90       	ld	r6, X
    4054:	12 97       	sbiw	r26, 0x02	; 2
    4056:	13 96       	adiw	r26, 0x03	; 3
    4058:	7c 90       	ld	r7, X
    405a:	13 97       	sbiw	r26, 0x03	; 3
    405c:	14 96       	adiw	r26, 0x04	; 4
    405e:	8c 90       	ld	r8, X
    4060:	14 97       	sbiw	r26, 0x04	; 4
    4062:	15 96       	adiw	r26, 0x05	; 5
    4064:	9c 90       	ld	r9, X
    4066:	15 97       	sbiw	r26, 0x05	; 5
    4068:	16 96       	adiw	r26, 0x06	; 6
    406a:	ac 90       	ld	r10, X
    406c:	16 97       	sbiw	r26, 0x06	; 6
    406e:	17 96       	adiw	r26, 0x07	; 7
    4070:	bc 90       	ld	r11, X
    4072:	a9 81       	ldd	r26, Y+1	; 0x01
    4074:	ba 81       	ldd	r27, Y+2	; 0x02
    4076:	18 96       	adiw	r26, 0x08	; 8
    4078:	cd 90       	ld	r12, X+
    407a:	dc 90       	ld	r13, X
    407c:	19 97       	sbiw	r26, 0x09	; 9
    407e:	b1 e0       	ldi	r27, 0x01	; 1
    4080:	cb 1a       	sub	r12, r27
    4082:	d1 08       	sbc	r13, r1
    4084:	d1 01       	movw	r26, r2
    4086:	ac 0d       	add	r26, r12
    4088:	bd 1d       	adc	r27, r13
    408a:	1c 92       	st	X, r1
    408c:	9c 83       	std	Y+4, r25	; 0x04
    408e:	8b 83       	std	Y+3, r24	; 0x03
    4090:	9f 01       	movw	r18, r30
    4092:	28 1b       	sub	r18, r24
    4094:	39 0b       	sbc	r19, r25
    4096:	3e 87       	std	Y+14, r19	; 0x0e
    4098:	2d 87       	std	Y+13, r18	; 0x0d
    409a:	c7 01       	movw	r24, r14
    409c:	82 70       	andi	r24, 0x02	; 2
    409e:	99 27       	eor	r25, r25
    40a0:	98 8b       	std	Y+16, r25	; 0x10
    40a2:	8f 87       	std	Y+15, r24	; 0x0f
    40a4:	81 2f       	mov	r24, r17
    40a6:	01 2e       	mov	r0, r17
    40a8:	00 0c       	add	r0, r0
    40aa:	99 0b       	sbc	r25, r25
    40ac:	dc 01       	movw	r26, r24
    40ae:	a1 54       	subi	r26, 0x41	; 65
    40b0:	b1 09       	sbc	r27, r1
    40b2:	ba 8b       	std	Y+18, r27	; 0x12
    40b4:	a9 8b       	std	Y+17, r26	; 0x11
    40b6:	32 e0       	ldi	r19, 0x02	; 2
    40b8:	c3 16       	cp	r12, r19
    40ba:	d1 04       	cpc	r13, r1
    40bc:	34 f4       	brge	.+12     	; 0x40ca <__fmt_x+0x130>
    40be:	89 85       	ldd	r24, Y+9	; 0x09
    40c0:	9a 85       	ldd	r25, Y+10	; 0x0a
    40c2:	89 2b       	or	r24, r25
    40c4:	09 f0       	breq	.+2      	; 0x40c8 <__fmt_x+0x12e>
    40c6:	4c c0       	rjmp	.+152    	; 0x4160 <__fmt_x+0x1c6>
    40c8:	73 c0       	rjmp	.+230    	; 0x41b0 <__fmt_x+0x216>
    40ca:	92 01       	movw	r18, r4
    40cc:	a3 01       	movw	r20, r6
    40ce:	b4 01       	movw	r22, r8
    40d0:	c5 01       	movw	r24, r10
    40d2:	a0 e0       	ldi	r26, 0x00	; 0
    40d4:	0e 94 67 38 	call	0x70ce	; 0x70ce <__cmpdi2_s8>
    40d8:	81 f1       	breq	.+96     	; 0x413a <__fmt_x+0x1a0>
    40da:	b1 e0       	ldi	r27, 0x01	; 1
    40dc:	cb 1a       	sub	r12, r27
    40de:	d1 08       	sbc	r13, r1
    40e0:	c2 01       	movw	r24, r4
    40e2:	8f 70       	andi	r24, 0x0F	; 15
    40e4:	99 27       	eor	r25, r25
    40e6:	8a 30       	cpi	r24, 0x0A	; 10
    40e8:	91 05       	cpc	r25, r1
    40ea:	14 f4       	brge	.+4      	; 0x40f0 <__fmt_x+0x156>
    40ec:	c0 96       	adiw	r24, 0x30	; 48
    40ee:	02 c0       	rjmp	.+4      	; 0x40f4 <__fmt_x+0x15a>
    40f0:	89 5a       	subi	r24, 0xA9	; 169
    40f2:	9f 4f       	sbci	r25, 0xFF	; 255
    40f4:	e9 89       	ldd	r30, Y+17	; 0x11
    40f6:	fa 89       	ldd	r31, Y+18	; 0x12
    40f8:	7a 97       	sbiw	r30, 0x1a	; 26
    40fa:	48 f4       	brcc	.+18     	; 0x410e <__fmt_x+0x174>
    40fc:	9c 01       	movw	r18, r24
    40fe:	20 62       	ori	r18, 0x20	; 32
    4100:	21 56       	subi	r18, 0x61	; 97
    4102:	31 09       	sbc	r19, r1
    4104:	2a 31       	cpi	r18, 0x1A	; 26
    4106:	31 05       	cpc	r19, r1
    4108:	10 f4       	brcc	.+4      	; 0x410e <__fmt_x+0x174>
    410a:	0e 94 92 38 	call	0x7124	; 0x7124 <toupper>
    410e:	f1 01       	movw	r30, r2
    4110:	ec 0d       	add	r30, r12
    4112:	fd 1d       	adc	r31, r13
    4114:	80 83       	st	Z, r24
    4116:	2b 81       	ldd	r18, Y+3	; 0x03
    4118:	3c 81       	ldd	r19, Y+4	; 0x04
    411a:	21 50       	subi	r18, 0x01	; 1
    411c:	31 09       	sbc	r19, r1
    411e:	3c 83       	std	Y+4, r19	; 0x04
    4120:	2b 83       	std	Y+3, r18	; 0x03
    4122:	92 01       	movw	r18, r4
    4124:	a3 01       	movw	r20, r6
    4126:	b4 01       	movw	r22, r8
    4128:	c5 01       	movw	r24, r10
    412a:	04 e0       	ldi	r16, 0x04	; 4
    412c:	0e 94 b8 34 	call	0x6970	; 0x6970 <__lshrdi3>
    4130:	29 01       	movw	r4, r18
    4132:	3a 01       	movw	r6, r20
    4134:	4b 01       	movw	r8, r22
    4136:	5c 01       	movw	r10, r24
    4138:	be cf       	rjmp	.-132    	; 0x40b6 <__fmt_x+0x11c>
    413a:	8d 85       	ldd	r24, Y+13	; 0x0d
    413c:	9e 85       	ldd	r25, Y+14	; 0x0e
    413e:	ab 81       	ldd	r26, Y+3	; 0x03
    4140:	bc 81       	ldd	r27, Y+4	; 0x04
    4142:	8a 0f       	add	r24, r26
    4144:	9b 1f       	adc	r25, r27
    4146:	18 16       	cp	r1, r24
    4148:	19 06       	cpc	r1, r25
    414a:	3c f2       	brlt	.-114    	; 0x40da <__fmt_x+0x140>
    414c:	1a 16       	cp	r1, r26
    414e:	1b 06       	cpc	r1, r27
    4150:	0c f0       	brlt	.+2      	; 0x4154 <__fmt_x+0x1ba>
    4152:	b5 cf       	rjmp	.-150    	; 0x40be <__fmt_x+0x124>
    4154:	ef 85       	ldd	r30, Y+15	; 0x0f
    4156:	f8 89       	ldd	r31, Y+16	; 0x10
    4158:	ef 2b       	or	r30, r31
    415a:	09 f0       	breq	.+2      	; 0x415e <__fmt_x+0x1c4>
    415c:	be cf       	rjmp	.-132    	; 0x40da <__fmt_x+0x140>
    415e:	af cf       	rjmp	.-162    	; 0x40be <__fmt_x+0x124>
    4160:	ab 89       	ldd	r26, Y+19	; 0x13
    4162:	bc 89       	ldd	r27, Y+20	; 0x14
    4164:	2c 91       	ld	r18, X
    4166:	11 96       	adiw	r26, 0x01	; 1
    4168:	3c 91       	ld	r19, X
    416a:	11 97       	sbiw	r26, 0x01	; 1
    416c:	12 96       	adiw	r26, 0x02	; 2
    416e:	4c 91       	ld	r20, X
    4170:	12 97       	sbiw	r26, 0x02	; 2
    4172:	13 96       	adiw	r26, 0x03	; 3
    4174:	5c 91       	ld	r21, X
    4176:	13 97       	sbiw	r26, 0x03	; 3
    4178:	14 96       	adiw	r26, 0x04	; 4
    417a:	6c 91       	ld	r22, X
    417c:	14 97       	sbiw	r26, 0x04	; 4
    417e:	15 96       	adiw	r26, 0x05	; 5
    4180:	7c 91       	ld	r23, X
    4182:	15 97       	sbiw	r26, 0x05	; 5
    4184:	16 96       	adiw	r26, 0x06	; 6
    4186:	8c 91       	ld	r24, X
    4188:	16 97       	sbiw	r26, 0x06	; 6
    418a:	17 96       	adiw	r26, 0x07	; 7
    418c:	9c 91       	ld	r25, X
    418e:	a0 e0       	ldi	r26, 0x00	; 0
    4190:	0e 94 67 38 	call	0x70ce	; 0x70ce <__cmpdi2_s8>
    4194:	69 f0       	breq	.+26     	; 0x41b0 <__fmt_x+0x216>
    4196:	f1 01       	movw	r30, r2
    4198:	ec 0d       	add	r30, r12
    419a:	fd 1d       	adc	r31, r13
    419c:	31 97       	sbiw	r30, 0x01	; 1
    419e:	10 83       	st	Z, r17
    41a0:	b2 e0       	ldi	r27, 0x02	; 2
    41a2:	cb 1a       	sub	r12, r27
    41a4:	d1 08       	sbc	r13, r1
    41a6:	f1 01       	movw	r30, r2
    41a8:	ec 0d       	add	r30, r12
    41aa:	fd 1d       	adc	r31, r13
    41ac:	80 e3       	ldi	r24, 0x30	; 48
    41ae:	80 83       	st	Z, r24
    41b0:	eb 85       	ldd	r30, Y+11	; 0x0b
    41b2:	fc 85       	ldd	r31, Y+12	; 0x0c
    41b4:	ef 2b       	or	r30, r31
    41b6:	41 f0       	breq	.+16     	; 0x41c8 <__fmt_x+0x22e>
    41b8:	f1 e0       	ldi	r31, 0x01	; 1
    41ba:	cf 1a       	sub	r12, r31
    41bc:	d1 08       	sbc	r13, r1
    41be:	f1 01       	movw	r30, r2
    41c0:	ec 0d       	add	r30, r12
    41c2:	fd 1d       	adc	r31, r13
    41c4:	80 e2       	ldi	r24, 0x20	; 32
    41c6:	80 83       	st	Z, r24
    41c8:	a9 81       	ldd	r26, Y+1	; 0x01
    41ca:	ba 81       	ldd	r27, Y+2	; 0x02
    41cc:	18 96       	adiw	r26, 0x08	; 8
    41ce:	2d 91       	ld	r18, X+
    41d0:	3c 91       	ld	r19, X
    41d2:	19 97       	sbiw	r26, 0x09	; 9
    41d4:	21 50       	subi	r18, 0x01	; 1
    41d6:	31 09       	sbc	r19, r1
    41d8:	2c 19       	sub	r18, r12
    41da:	3d 09       	sbc	r19, r13
    41dc:	c2 0c       	add	r12, r2
    41de:	d3 1c       	adc	r13, r3
    41e0:	a6 01       	movw	r20, r12
    41e2:	60 e8       	ldi	r22, 0x80	; 128
    41e4:	0d 81       	ldd	r16, Y+5	; 0x05
    41e6:	1e 81       	ldd	r17, Y+6	; 0x06
    41e8:	8f 81       	ldd	r24, Y+7	; 0x07
    41ea:	98 85       	ldd	r25, Y+8	; 0x08
    41ec:	0e 94 ab 27 	call	0x4f56	; 0x4f56 <__pad>
    41f0:	9c 01       	movw	r18, r24
    41f2:	ef 81       	ldd	r30, Y+7	; 0x07
    41f4:	f8 85       	ldd	r31, Y+8	; 0x08
    41f6:	80 81       	ld	r24, Z
    41f8:	91 81       	ldd	r25, Z+1	; 0x01
    41fa:	90 ff       	sbrs	r25, 0
    41fc:	09 c0       	rjmp	.+18     	; 0x4210 <__fmt_x+0x276>
    41fe:	a9 81       	ldd	r26, Y+1	; 0x01
    4200:	ba 81       	ldd	r27, Y+2	; 0x02
    4202:	12 96       	adiw	r26, 0x02	; 2
    4204:	8d 91       	ld	r24, X+
    4206:	9c 91       	ld	r25, X
    4208:	13 97       	sbiw	r26, 0x03	; 3
    420a:	82 17       	cp	r24, r18
    420c:	93 07       	cpc	r25, r19
    420e:	0c f4       	brge	.+2      	; 0x4212 <__fmt_x+0x278>
    4210:	c9 01       	movw	r24, r18
    4212:	64 96       	adiw	r28, 0x14	; 20
    4214:	e2 e1       	ldi	r30, 0x12	; 18
    4216:	0c 94 1a 36 	jmp	0x6c34	; 0x6c34 <__epilogue_restores__>

Disassembly of section .text.__pop_float:

000068ee <__pop_float>:
    68ee:	fa 01       	movw	r30, r20
    68f0:	60 38       	cpi	r22, 0x80	; 128
    68f2:	71 05       	cpc	r23, r1
    68f4:	cc f0       	brlt	.+50     	; 0x6928 <__pop_float+0x3a>
    68f6:	62 38       	cpi	r22, 0x82	; 130
    68f8:	71 05       	cpc	r23, r1
    68fa:	1c f0       	brlt	.+6      	; 0x6902 <__pop_float+0x14>
    68fc:	63 38       	cpi	r22, 0x83	; 131
    68fe:	71 05       	cpc	r23, r1
    6900:	99 f4       	brne	.+38     	; 0x6928 <__pop_float+0x3a>
    6902:	a0 81       	ld	r26, Z
    6904:	b1 81       	ldd	r27, Z+1	; 0x01
    6906:	9d 01       	movw	r18, r26
    6908:	2c 5f       	subi	r18, 0xFC	; 252
    690a:	3f 4f       	sbci	r19, 0xFF	; 255
    690c:	31 83       	std	Z+1, r19	; 0x01
    690e:	20 83       	st	Z, r18
    6910:	4d 91       	ld	r20, X+
    6912:	5d 91       	ld	r21, X+
    6914:	6d 91       	ld	r22, X+
    6916:	7c 91       	ld	r23, X
    6918:	fc 01       	movw	r30, r24
    691a:	40 83       	st	Z, r20
    691c:	51 83       	std	Z+1, r21	; 0x01
    691e:	62 83       	std	Z+2, r22	; 0x02
    6920:	73 83       	std	Z+3, r23	; 0x03
    6922:	81 e0       	ldi	r24, 0x01	; 1
    6924:	90 e0       	ldi	r25, 0x00	; 0
    6926:	08 95       	ret
    6928:	80 e0       	ldi	r24, 0x00	; 0
    692a:	90 e0       	ldi	r25, 0x00	; 0
    692c:	08 95       	ret

Disassembly of section .text.__pop_int:

000048ba <__pop_int>:
    48ba:	0f 93       	push	r16
    48bc:	1f 93       	push	r17
    48be:	cf 93       	push	r28
    48c0:	df 93       	push	r29
    48c2:	fc 01       	movw	r30, r24
    48c4:	d9 01       	movw	r26, r18
    48c6:	68 38       	cpi	r22, 0x88	; 136
    48c8:	71 05       	cpc	r23, r1
    48ca:	31 f1       	breq	.+76     	; 0x4918 <__pop_int+0x5e>
    48cc:	94 f4       	brge	.+36     	; 0x48f2 <__pop_int+0x38>
    48ce:	61 38       	cpi	r22, 0x81	; 129
    48d0:	71 05       	cpc	r23, r1
    48d2:	b1 f1       	breq	.+108    	; 0x4940 <__pop_int+0x86>
    48d4:	2c f4       	brge	.+10     	; 0x48e0 <__pop_int+0x26>
    48d6:	60 38       	cpi	r22, 0x80	; 128
    48d8:	71 05       	cpc	r23, r1
    48da:	09 f4       	brne	.+2      	; 0x48de <__pop_int+0x24>
    48dc:	78 c0       	rjmp	.+240    	; 0x49ce <__pop_int+0x114>
    48de:	9f c0       	rjmp	.+318    	; 0x4a1e <__pop_int+0x164>
    48e0:	62 38       	cpi	r22, 0x82	; 130
    48e2:	71 05       	cpc	r23, r1
    48e4:	09 f4       	brne	.+2      	; 0x48e8 <__pop_int+0x2e>
    48e6:	59 c0       	rjmp	.+178    	; 0x499a <__pop_int+0xe0>
    48e8:	64 38       	cpi	r22, 0x84	; 132
    48ea:	71 05       	cpc	r23, r1
    48ec:	09 f4       	brne	.+2      	; 0x48f0 <__pop_int+0x36>
    48ee:	6f c0       	rjmp	.+222    	; 0x49ce <__pop_int+0x114>
    48f0:	96 c0       	rjmp	.+300    	; 0x4a1e <__pop_int+0x164>
    48f2:	60 3a       	cpi	r22, 0xA0	; 160
    48f4:	71 05       	cpc	r23, r1
    48f6:	09 f4       	brne	.+2      	; 0x48fa <__pop_int+0x40>
    48f8:	48 c0       	rjmp	.+144    	; 0x498a <__pop_int+0xd0>
    48fa:	2c f4       	brge	.+10     	; 0x4906 <__pop_int+0x4c>
    48fc:	60 39       	cpi	r22, 0x90	; 144
    48fe:	71 05       	cpc	r23, r1
    4900:	09 f4       	brne	.+2      	; 0x4904 <__pop_int+0x4a>
    4902:	4b c0       	rjmp	.+150    	; 0x499a <__pop_int+0xe0>
    4904:	8c c0       	rjmp	.+280    	; 0x4a1e <__pop_int+0x164>
    4906:	60 3c       	cpi	r22, 0xC0	; 192
    4908:	71 05       	cpc	r23, r1
    490a:	09 f4       	brne	.+2      	; 0x490e <__pop_int+0x54>
    490c:	76 c0       	rjmp	.+236    	; 0x49fa <__pop_int+0x140>
    490e:	60 3f       	cpi	r22, 0xF0	; 240
    4910:	71 05       	cpc	r23, r1
    4912:	09 f4       	brne	.+2      	; 0x4916 <__pop_int+0x5c>
    4914:	72 c0       	rjmp	.+228    	; 0x49fa <__pop_int+0x140>
    4916:	83 c0       	rjmp	.+262    	; 0x4a1e <__pop_int+0x164>
    4918:	cd 91       	ld	r28, X+
    491a:	dc 91       	ld	r29, X
    491c:	11 97       	sbiw	r26, 0x01	; 1
    491e:	ce 01       	movw	r24, r28
    4920:	02 96       	adiw	r24, 0x02	; 2
    4922:	8d 93       	st	X+, r24
    4924:	9c 93       	st	X, r25
    4926:	45 2b       	or	r20, r21
    4928:	39 f0       	breq	.+14     	; 0x4938 <__pop_int+0x7e>
    492a:	98 81       	ld	r25, Y
    492c:	89 2f       	mov	r24, r25
    492e:	88 0f       	add	r24, r24
    4930:	88 0b       	sbc	r24, r24
    4932:	90 83       	st	Z, r25
    4934:	81 83       	std	Z+1, r24	; 0x01
    4936:	5b c0       	rjmp	.+182    	; 0x49ee <__pop_int+0x134>
    4938:	88 81       	ld	r24, Y
    493a:	80 83       	st	Z, r24
    493c:	11 82       	std	Z+1, r1	; 0x01
    493e:	68 c0       	rjmp	.+208    	; 0x4a10 <__pop_int+0x156>
    4940:	cd 91       	ld	r28, X+
    4942:	dc 91       	ld	r29, X
    4944:	11 97       	sbiw	r26, 0x01	; 1
    4946:	ce 01       	movw	r24, r28
    4948:	04 96       	adiw	r24, 0x04	; 4
    494a:	8d 93       	st	X+, r24
    494c:	9c 93       	st	X, r25
    494e:	45 2b       	or	r20, r21
    4950:	99 f0       	breq	.+38     	; 0x4978 <__pop_int+0xbe>
    4952:	88 81       	ld	r24, Y
    4954:	99 81       	ldd	r25, Y+1	; 0x01
    4956:	aa 81       	ldd	r26, Y+2	; 0x02
    4958:	bb 81       	ldd	r27, Y+3	; 0x03
    495a:	ac 01       	movw	r20, r24
    495c:	bd 01       	movw	r22, r26
    495e:	77 0f       	add	r23, r23
    4960:	44 0b       	sbc	r20, r20
    4962:	54 2f       	mov	r21, r20
    4964:	ba 01       	movw	r22, r20
    4966:	80 83       	st	Z, r24
    4968:	91 83       	std	Z+1, r25	; 0x01
    496a:	a2 83       	std	Z+2, r26	; 0x02
    496c:	b3 83       	std	Z+3, r27	; 0x03
    496e:	44 83       	std	Z+4, r20	; 0x04
    4970:	45 83       	std	Z+5, r20	; 0x05
    4972:	46 83       	std	Z+6, r20	; 0x06
    4974:	47 83       	std	Z+7, r20	; 0x07
    4976:	28 c0       	rjmp	.+80     	; 0x49c8 <__pop_int+0x10e>
    4978:	08 81       	ld	r16, Y
    497a:	19 81       	ldd	r17, Y+1	; 0x01
    497c:	2a 81       	ldd	r18, Y+2	; 0x02
    497e:	3b 81       	ldd	r19, Y+3	; 0x03
    4980:	00 83       	st	Z, r16
    4982:	11 83       	std	Z+1, r17	; 0x01
    4984:	22 83       	std	Z+2, r18	; 0x02
    4986:	33 83       	std	Z+3, r19	; 0x03
    4988:	45 c0       	rjmp	.+138    	; 0x4a14 <__pop_int+0x15a>
    498a:	cd 91       	ld	r28, X+
    498c:	dc 91       	ld	r29, X
    498e:	11 97       	sbiw	r26, 0x01	; 1
    4990:	ce 01       	movw	r24, r28
    4992:	02 96       	adiw	r24, 0x02	; 2
    4994:	8d 93       	st	X+, r24
    4996:	9c 93       	st	X, r25
    4998:	23 c0       	rjmp	.+70     	; 0x49e0 <__pop_int+0x126>
    499a:	cd 91       	ld	r28, X+
    499c:	dc 91       	ld	r29, X
    499e:	11 97       	sbiw	r26, 0x01	; 1
    49a0:	ce 01       	movw	r24, r28
    49a2:	08 96       	adiw	r24, 0x08	; 8
    49a4:	8d 93       	st	X+, r24
    49a6:	9c 93       	st	X, r25
    49a8:	78 81       	ld	r23, Y
    49aa:	69 81       	ldd	r22, Y+1	; 0x01
    49ac:	5a 81       	ldd	r21, Y+2	; 0x02
    49ae:	4b 81       	ldd	r20, Y+3	; 0x03
    49b0:	3c 81       	ldd	r19, Y+4	; 0x04
    49b2:	2d 81       	ldd	r18, Y+5	; 0x05
    49b4:	9e 81       	ldd	r25, Y+6	; 0x06
    49b6:	8f 81       	ldd	r24, Y+7	; 0x07
    49b8:	70 83       	st	Z, r23
    49ba:	61 83       	std	Z+1, r22	; 0x01
    49bc:	52 83       	std	Z+2, r21	; 0x02
    49be:	43 83       	std	Z+3, r20	; 0x03
    49c0:	34 83       	std	Z+4, r19	; 0x04
    49c2:	25 83       	std	Z+5, r18	; 0x05
    49c4:	96 83       	std	Z+6, r25	; 0x06
    49c6:	87 83       	std	Z+7, r24	; 0x07
    49c8:	81 e0       	ldi	r24, 0x01	; 1
    49ca:	90 e0       	ldi	r25, 0x00	; 0
    49cc:	2a c0       	rjmp	.+84     	; 0x4a22 <__pop_int+0x168>
    49ce:	cd 91       	ld	r28, X+
    49d0:	dc 91       	ld	r29, X
    49d2:	11 97       	sbiw	r26, 0x01	; 1
    49d4:	ce 01       	movw	r24, r28
    49d6:	02 96       	adiw	r24, 0x02	; 2
    49d8:	8d 93       	st	X+, r24
    49da:	9c 93       	st	X, r25
    49dc:	45 2b       	or	r20, r21
    49de:	a1 f0       	breq	.+40     	; 0x4a08 <__pop_int+0x14e>
    49e0:	99 81       	ldd	r25, Y+1	; 0x01
    49e2:	28 81       	ld	r18, Y
    49e4:	89 2f       	mov	r24, r25
    49e6:	88 0f       	add	r24, r24
    49e8:	88 0b       	sbc	r24, r24
    49ea:	20 83       	st	Z, r18
    49ec:	91 83       	std	Z+1, r25	; 0x01
    49ee:	82 83       	std	Z+2, r24	; 0x02
    49f0:	83 83       	std	Z+3, r24	; 0x03
    49f2:	84 83       	std	Z+4, r24	; 0x04
    49f4:	85 83       	std	Z+5, r24	; 0x05
    49f6:	86 83       	std	Z+6, r24	; 0x06
    49f8:	e6 cf       	rjmp	.-52     	; 0x49c6 <__pop_int+0x10c>
    49fa:	cd 91       	ld	r28, X+
    49fc:	dc 91       	ld	r29, X
    49fe:	11 97       	sbiw	r26, 0x01	; 1
    4a00:	ce 01       	movw	r24, r28
    4a02:	02 96       	adiw	r24, 0x02	; 2
    4a04:	8d 93       	st	X+, r24
    4a06:	9c 93       	st	X, r25
    4a08:	08 81       	ld	r16, Y
    4a0a:	19 81       	ldd	r17, Y+1	; 0x01
    4a0c:	00 83       	st	Z, r16
    4a0e:	11 83       	std	Z+1, r17	; 0x01
    4a10:	12 82       	std	Z+2, r1	; 0x02
    4a12:	13 82       	std	Z+3, r1	; 0x03
    4a14:	14 82       	std	Z+4, r1	; 0x04
    4a16:	15 82       	std	Z+5, r1	; 0x05
    4a18:	16 82       	std	Z+6, r1	; 0x06
    4a1a:	17 82       	std	Z+7, r1	; 0x07
    4a1c:	d5 cf       	rjmp	.-86     	; 0x49c8 <__pop_int+0x10e>
    4a1e:	80 e0       	ldi	r24, 0x00	; 0
    4a20:	90 e0       	ldi	r25, 0x00	; 0
    4a22:	df 91       	pop	r29
    4a24:	cf 91       	pop	r28
    4a26:	1f 91       	pop	r17
    4a28:	0f 91       	pop	r16
    4a2a:	08 95       	ret

Disassembly of section .text.__pop_ptr:

0000524c <__pop_ptr>:
    524c:	cf 93       	push	r28
    524e:	df 93       	push	r29
    5250:	dc 01       	movw	r26, r24
    5252:	f9 01       	movw	r30, r18
    5254:	64 38       	cpi	r22, 0x84	; 132
    5256:	71 05       	cpc	r23, r1
    5258:	d9 f1       	breq	.+118    	; 0x52d0 <__pop_ptr+0x84>
    525a:	64 f4       	brge	.+24     	; 0x5274 <__pop_ptr+0x28>
    525c:	61 38       	cpi	r22, 0x81	; 129
    525e:	71 05       	cpc	r23, r1
    5260:	21 f1       	breq	.+72     	; 0x52aa <__pop_ptr+0x5e>
    5262:	62 38       	cpi	r22, 0x82	; 130
    5264:	71 05       	cpc	r23, r1
    5266:	09 f4       	brne	.+2      	; 0x526a <__pop_ptr+0x1e>
    5268:	40 c0       	rjmp	.+128    	; 0x52ea <__pop_ptr+0x9e>
    526a:	60 38       	cpi	r22, 0x80	; 128
    526c:	71 05       	cpc	r23, r1
    526e:	09 f0       	breq	.+2      	; 0x5272 <__pop_ptr+0x26>
    5270:	54 c0       	rjmp	.+168    	; 0x531a <__pop_ptr+0xce>
    5272:	2e c0       	rjmp	.+92     	; 0x52d0 <__pop_ptr+0x84>
    5274:	60 39       	cpi	r22, 0x90	; 144
    5276:	71 05       	cpc	r23, r1
    5278:	c1 f1       	breq	.+112    	; 0x52ea <__pop_ptr+0x9e>
    527a:	84 f4       	brge	.+32     	; 0x529c <__pop_ptr+0x50>
    527c:	68 38       	cpi	r22, 0x88	; 136
    527e:	71 05       	cpc	r23, r1
    5280:	09 f0       	breq	.+2      	; 0x5284 <__pop_ptr+0x38>
    5282:	4b c0       	rjmp	.+150    	; 0x531a <__pop_ptr+0xce>
    5284:	c0 81       	ld	r28, Z
    5286:	d1 81       	ldd	r29, Z+1	; 0x01
    5288:	ce 01       	movw	r24, r28
    528a:	02 96       	adiw	r24, 0x02	; 2
    528c:	91 83       	std	Z+1, r25	; 0x01
    528e:	80 83       	st	Z, r24
    5290:	e8 81       	ld	r30, Y
    5292:	f9 81       	ldd	r31, Y+1	; 0x01
    5294:	ed 93       	st	X+, r30
    5296:	fc 93       	st	X, r31
    5298:	40 83       	st	Z, r20
    529a:	3c c0       	rjmp	.+120    	; 0x5314 <__pop_ptr+0xc8>
    529c:	60 3a       	cpi	r22, 0xA0	; 160
    529e:	71 05       	cpc	r23, r1
    52a0:	b9 f0       	breq	.+46     	; 0x52d0 <__pop_ptr+0x84>
    52a2:	60 3c       	cpi	r22, 0xC0	; 192
    52a4:	71 05       	cpc	r23, r1
    52a6:	a1 f0       	breq	.+40     	; 0x52d0 <__pop_ptr+0x84>
    52a8:	38 c0       	rjmp	.+112    	; 0x531a <__pop_ptr+0xce>
    52aa:	c0 81       	ld	r28, Z
    52ac:	d1 81       	ldd	r29, Z+1	; 0x01
    52ae:	ce 01       	movw	r24, r28
    52b0:	02 96       	adiw	r24, 0x02	; 2
    52b2:	91 83       	std	Z+1, r25	; 0x01
    52b4:	80 83       	st	Z, r24
    52b6:	e8 81       	ld	r30, Y
    52b8:	f9 81       	ldd	r31, Y+1	; 0x01
    52ba:	ed 93       	st	X+, r30
    52bc:	fc 93       	st	X, r31
    52be:	05 2e       	mov	r0, r21
    52c0:	00 0c       	add	r0, r0
    52c2:	66 0b       	sbc	r22, r22
    52c4:	77 0b       	sbc	r23, r23
    52c6:	40 83       	st	Z, r20
    52c8:	51 83       	std	Z+1, r21	; 0x01
    52ca:	62 83       	std	Z+2, r22	; 0x02
    52cc:	73 83       	std	Z+3, r23	; 0x03
    52ce:	22 c0       	rjmp	.+68     	; 0x5314 <__pop_ptr+0xc8>
    52d0:	c0 81       	ld	r28, Z
    52d2:	d1 81       	ldd	r29, Z+1	; 0x01
    52d4:	ce 01       	movw	r24, r28
    52d6:	02 96       	adiw	r24, 0x02	; 2
    52d8:	91 83       	std	Z+1, r25	; 0x01
    52da:	80 83       	st	Z, r24
    52dc:	e8 81       	ld	r30, Y
    52de:	f9 81       	ldd	r31, Y+1	; 0x01
    52e0:	ed 93       	st	X+, r30
    52e2:	fc 93       	st	X, r31
    52e4:	51 83       	std	Z+1, r21	; 0x01
    52e6:	40 83       	st	Z, r20
    52e8:	15 c0       	rjmp	.+42     	; 0x5314 <__pop_ptr+0xc8>
    52ea:	c0 81       	ld	r28, Z
    52ec:	d1 81       	ldd	r29, Z+1	; 0x01
    52ee:	ce 01       	movw	r24, r28
    52f0:	02 96       	adiw	r24, 0x02	; 2
    52f2:	91 83       	std	Z+1, r25	; 0x01
    52f4:	80 83       	st	Z, r24
    52f6:	e8 81       	ld	r30, Y
    52f8:	f9 81       	ldd	r31, Y+1	; 0x01
    52fa:	ed 93       	st	X+, r30
    52fc:	fc 93       	st	X, r31
    52fe:	51 83       	std	Z+1, r21	; 0x01
    5300:	40 83       	st	Z, r20
    5302:	85 2f       	mov	r24, r21
    5304:	88 0f       	add	r24, r24
    5306:	88 0b       	sbc	r24, r24
    5308:	82 83       	std	Z+2, r24	; 0x02
    530a:	83 83       	std	Z+3, r24	; 0x03
    530c:	84 83       	std	Z+4, r24	; 0x04
    530e:	85 83       	std	Z+5, r24	; 0x05
    5310:	86 83       	std	Z+6, r24	; 0x06
    5312:	87 83       	std	Z+7, r24	; 0x07
    5314:	81 e0       	ldi	r24, 0x01	; 1
    5316:	90 e0       	ldi	r25, 0x00	; 0
    5318:	02 c0       	rjmp	.+4      	; 0x531e <__pop_ptr+0xd2>
    531a:	80 e0       	ldi	r24, 0x00	; 0
    531c:	90 e0       	ldi	r25, 0x00	; 0
    531e:	df 91       	pop	r29
    5320:	cf 91       	pop	r28
    5322:	08 95       	ret

Disassembly of section .text.__push_float:

00006372 <__push_float>:
    6372:	cf 93       	push	r28
    6374:	df 93       	push	r29
    6376:	dc 01       	movw	r26, r24
    6378:	fa 01       	movw	r30, r20
    637a:	61 38       	cpi	r22, 0x81	; 129
    637c:	71 05       	cpc	r23, r1
    637e:	a9 f0       	breq	.+42     	; 0x63aa <__push_float+0x38>
    6380:	63 38       	cpi	r22, 0x83	; 131
    6382:	71 05       	cpc	r23, r1
    6384:	21 f0       	breq	.+8      	; 0x638e <__push_float+0x1c>
    6386:	60 38       	cpi	r22, 0x80	; 128
    6388:	71 05       	cpc	r23, r1
    638a:	19 f5       	brne	.+70     	; 0x63d2 <__push_float+0x60>
    638c:	0e c0       	rjmp	.+28     	; 0x63aa <__push_float+0x38>
    638e:	c0 81       	ld	r28, Z
    6390:	d1 81       	ldd	r29, Z+1	; 0x01
    6392:	ce 01       	movw	r24, r28
    6394:	02 96       	adiw	r24, 0x02	; 2
    6396:	91 83       	std	Z+1, r25	; 0x01
    6398:	80 83       	st	Z, r24
    639a:	8d 91       	ld	r24, X+
    639c:	9d 91       	ld	r25, X+
    639e:	0d 90       	ld	r0, X+
    63a0:	bc 91       	ld	r27, X
    63a2:	a0 2d       	mov	r26, r0
    63a4:	e8 81       	ld	r30, Y
    63a6:	f9 81       	ldd	r31, Y+1	; 0x01
    63a8:	0d c0       	rjmp	.+26     	; 0x63c4 <__push_float+0x52>
    63aa:	c0 81       	ld	r28, Z
    63ac:	d1 81       	ldd	r29, Z+1	; 0x01
    63ae:	ce 01       	movw	r24, r28
    63b0:	02 96       	adiw	r24, 0x02	; 2
    63b2:	91 83       	std	Z+1, r25	; 0x01
    63b4:	80 83       	st	Z, r24
    63b6:	e8 81       	ld	r30, Y
    63b8:	f9 81       	ldd	r31, Y+1	; 0x01
    63ba:	8d 91       	ld	r24, X+
    63bc:	9d 91       	ld	r25, X+
    63be:	0d 90       	ld	r0, X+
    63c0:	bc 91       	ld	r27, X
    63c2:	a0 2d       	mov	r26, r0
    63c4:	80 83       	st	Z, r24
    63c6:	91 83       	std	Z+1, r25	; 0x01
    63c8:	a2 83       	std	Z+2, r26	; 0x02
    63ca:	b3 83       	std	Z+3, r27	; 0x03
    63cc:	81 e0       	ldi	r24, 0x01	; 1
    63ce:	90 e0       	ldi	r25, 0x00	; 0
    63d0:	02 c0       	rjmp	.+4      	; 0x63d6 <__push_float+0x64>
    63d2:	80 e0       	ldi	r24, 0x00	; 0
    63d4:	90 e0       	ldi	r25, 0x00	; 0
    63d6:	df 91       	pop	r29
    63d8:	cf 91       	pop	r28
    63da:	08 95       	ret

Disassembly of section .text.__push_int:

00004e20 <__push_int>:
    4e20:	cf 93       	push	r28
    4e22:	df 93       	push	r29
    4e24:	fc 01       	movw	r30, r24
    4e26:	d9 01       	movw	r26, r18
    4e28:	68 38       	cpi	r22, 0x88	; 136
    4e2a:	71 05       	cpc	r23, r1
    4e2c:	21 f1       	breq	.+72     	; 0x4e76 <__push_int+0x56>
    4e2e:	8c f4       	brge	.+34     	; 0x4e52 <__push_int+0x32>
    4e30:	61 38       	cpi	r22, 0x81	; 129
    4e32:	71 05       	cpc	r23, r1
    4e34:	61 f1       	breq	.+88     	; 0x4e8e <__push_int+0x6e>
    4e36:	2c f4       	brge	.+10     	; 0x4e42 <__push_int+0x22>
    4e38:	60 38       	cpi	r22, 0x80	; 128
    4e3a:	71 05       	cpc	r23, r1
    4e3c:	09 f4       	brne	.+2      	; 0x4e40 <__push_int+0x20>
    4e3e:	76 c0       	rjmp	.+236    	; 0x4f2c <__push_int+0x10c>
    4e40:	85 c0       	rjmp	.+266    	; 0x4f4c <__push_int+0x12c>
    4e42:	62 38       	cpi	r22, 0x82	; 130
    4e44:	71 05       	cpc	r23, r1
    4e46:	b1 f1       	breq	.+108    	; 0x4eb4 <__push_int+0x94>
    4e48:	64 38       	cpi	r22, 0x84	; 132
    4e4a:	71 05       	cpc	r23, r1
    4e4c:	09 f4       	brne	.+2      	; 0x4e50 <__push_int+0x30>
    4e4e:	6e c0       	rjmp	.+220    	; 0x4f2c <__push_int+0x10c>
    4e50:	7d c0       	rjmp	.+250    	; 0x4f4c <__push_int+0x12c>
    4e52:	60 3a       	cpi	r22, 0xA0	; 160
    4e54:	71 05       	cpc	r23, r1
    4e56:	09 f4       	brne	.+2      	; 0x4e5a <__push_int+0x3a>
    4e58:	69 c0       	rjmp	.+210    	; 0x4f2c <__push_int+0x10c>
    4e5a:	24 f4       	brge	.+8      	; 0x4e64 <__push_int+0x44>
    4e5c:	60 39       	cpi	r22, 0x90	; 144
    4e5e:	71 05       	cpc	r23, r1
    4e60:	49 f1       	breq	.+82     	; 0x4eb4 <__push_int+0x94>
    4e62:	74 c0       	rjmp	.+232    	; 0x4f4c <__push_int+0x12c>
    4e64:	60 3c       	cpi	r22, 0xC0	; 192
    4e66:	71 05       	cpc	r23, r1
    4e68:	09 f4       	brne	.+2      	; 0x4e6c <__push_int+0x4c>
    4e6a:	60 c0       	rjmp	.+192    	; 0x4f2c <__push_int+0x10c>
    4e6c:	60 3f       	cpi	r22, 0xF0	; 240
    4e6e:	71 05       	cpc	r23, r1
    4e70:	09 f4       	brne	.+2      	; 0x4e74 <__push_int+0x54>
    4e72:	5c c0       	rjmp	.+184    	; 0x4f2c <__push_int+0x10c>
    4e74:	6b c0       	rjmp	.+214    	; 0x4f4c <__push_int+0x12c>
    4e76:	cd 91       	ld	r28, X+
    4e78:	dc 91       	ld	r29, X
    4e7a:	11 97       	sbiw	r26, 0x01	; 1
    4e7c:	ce 01       	movw	r24, r28
    4e7e:	02 96       	adiw	r24, 0x02	; 2
    4e80:	8d 93       	st	X+, r24
    4e82:	9c 93       	st	X, r25
    4e84:	a8 81       	ld	r26, Y
    4e86:	b9 81       	ldd	r27, Y+1	; 0x01
    4e88:	80 81       	ld	r24, Z
    4e8a:	8c 93       	st	X, r24
    4e8c:	5c c0       	rjmp	.+184    	; 0x4f46 <__push_int+0x126>
    4e8e:	cd 91       	ld	r28, X+
    4e90:	dc 91       	ld	r29, X
    4e92:	11 97       	sbiw	r26, 0x01	; 1
    4e94:	ce 01       	movw	r24, r28
    4e96:	02 96       	adiw	r24, 0x02	; 2
    4e98:	8d 93       	st	X+, r24
    4e9a:	9c 93       	st	X, r25
    4e9c:	a8 81       	ld	r26, Y
    4e9e:	b9 81       	ldd	r27, Y+1	; 0x01
    4ea0:	40 81       	ld	r20, Z
    4ea2:	51 81       	ldd	r21, Z+1	; 0x01
    4ea4:	62 81       	ldd	r22, Z+2	; 0x02
    4ea6:	73 81       	ldd	r23, Z+3	; 0x03
    4ea8:	4d 93       	st	X+, r20
    4eaa:	5d 93       	st	X+, r21
    4eac:	6d 93       	st	X+, r22
    4eae:	7c 93       	st	X, r23
    4eb0:	13 97       	sbiw	r26, 0x03	; 3
    4eb2:	49 c0       	rjmp	.+146    	; 0x4f46 <__push_int+0x126>
    4eb4:	cd 91       	ld	r28, X+
    4eb6:	dc 91       	ld	r29, X
    4eb8:	11 97       	sbiw	r26, 0x01	; 1
    4eba:	ce 01       	movw	r24, r28
    4ebc:	02 96       	adiw	r24, 0x02	; 2
    4ebe:	8d 93       	st	X+, r24
    4ec0:	9c 93       	st	X, r25
    4ec2:	45 2b       	or	r20, r21
    4ec4:	99 f0       	breq	.+38     	; 0x4eec <__push_int+0xcc>
    4ec6:	70 81       	ld	r23, Z
    4ec8:	61 81       	ldd	r22, Z+1	; 0x01
    4eca:	52 81       	ldd	r21, Z+2	; 0x02
    4ecc:	43 81       	ldd	r20, Z+3	; 0x03
    4ece:	34 81       	ldd	r19, Z+4	; 0x04
    4ed0:	25 81       	ldd	r18, Z+5	; 0x05
    4ed2:	96 81       	ldd	r25, Z+6	; 0x06
    4ed4:	87 81       	ldd	r24, Z+7	; 0x07
    4ed6:	e8 81       	ld	r30, Y
    4ed8:	f9 81       	ldd	r31, Y+1	; 0x01
    4eda:	70 83       	st	Z, r23
    4edc:	61 83       	std	Z+1, r22	; 0x01
    4ede:	52 83       	std	Z+2, r21	; 0x02
    4ee0:	43 83       	std	Z+3, r20	; 0x03
    4ee2:	34 83       	std	Z+4, r19	; 0x04
    4ee4:	25 83       	std	Z+5, r18	; 0x05
    4ee6:	96 83       	std	Z+6, r25	; 0x06
    4ee8:	87 83       	std	Z+7, r24	; 0x07
    4eea:	2d c0       	rjmp	.+90     	; 0x4f46 <__push_int+0x126>
    4eec:	a8 81       	ld	r26, Y
    4eee:	b9 81       	ldd	r27, Y+1	; 0x01
    4ef0:	70 81       	ld	r23, Z
    4ef2:	61 81       	ldd	r22, Z+1	; 0x01
    4ef4:	52 81       	ldd	r21, Z+2	; 0x02
    4ef6:	43 81       	ldd	r20, Z+3	; 0x03
    4ef8:	34 81       	ldd	r19, Z+4	; 0x04
    4efa:	25 81       	ldd	r18, Z+5	; 0x05
    4efc:	96 81       	ldd	r25, Z+6	; 0x06
    4efe:	87 81       	ldd	r24, Z+7	; 0x07
    4f00:	7c 93       	st	X, r23
    4f02:	11 96       	adiw	r26, 0x01	; 1
    4f04:	6c 93       	st	X, r22
    4f06:	11 97       	sbiw	r26, 0x01	; 1
    4f08:	12 96       	adiw	r26, 0x02	; 2
    4f0a:	5c 93       	st	X, r21
    4f0c:	12 97       	sbiw	r26, 0x02	; 2
    4f0e:	13 96       	adiw	r26, 0x03	; 3
    4f10:	4c 93       	st	X, r20
    4f12:	13 97       	sbiw	r26, 0x03	; 3
    4f14:	14 96       	adiw	r26, 0x04	; 4
    4f16:	3c 93       	st	X, r19
    4f18:	14 97       	sbiw	r26, 0x04	; 4
    4f1a:	15 96       	adiw	r26, 0x05	; 5
    4f1c:	2c 93       	st	X, r18
    4f1e:	15 97       	sbiw	r26, 0x05	; 5
    4f20:	16 96       	adiw	r26, 0x06	; 6
    4f22:	9c 93       	st	X, r25
    4f24:	16 97       	sbiw	r26, 0x06	; 6
    4f26:	17 96       	adiw	r26, 0x07	; 7
    4f28:	8c 93       	st	X, r24
    4f2a:	0d c0       	rjmp	.+26     	; 0x4f46 <__push_int+0x126>
    4f2c:	cd 91       	ld	r28, X+
    4f2e:	dc 91       	ld	r29, X
    4f30:	11 97       	sbiw	r26, 0x01	; 1
    4f32:	ce 01       	movw	r24, r28
    4f34:	02 96       	adiw	r24, 0x02	; 2
    4f36:	8d 93       	st	X+, r24
    4f38:	9c 93       	st	X, r25
    4f3a:	a8 81       	ld	r26, Y
    4f3c:	b9 81       	ldd	r27, Y+1	; 0x01
    4f3e:	80 81       	ld	r24, Z
    4f40:	91 81       	ldd	r25, Z+1	; 0x01
    4f42:	8d 93       	st	X+, r24
    4f44:	9c 93       	st	X, r25
    4f46:	81 e0       	ldi	r24, 0x01	; 1
    4f48:	90 e0       	ldi	r25, 0x00	; 0
    4f4a:	02 c0       	rjmp	.+4      	; 0x4f50 <__push_int+0x130>
    4f4c:	80 e0       	ldi	r24, 0x00	; 0
    4f4e:	90 e0       	ldi	r25, 0x00	; 0
    4f50:	df 91       	pop	r29
    4f52:	cf 91       	pop	r28
    4f54:	08 95       	ret

Disassembly of section .text.atoi:

00005ecc <atoi>:
    5ecc:	cf 93       	push	r28
    5ece:	9b 01       	movw	r18, r22
    5ed0:	48 2f       	mov	r20, r24
    5ed2:	f9 01       	movw	r30, r18
    5ed4:	84 91       	lpm	r24, Z
    5ed6:	47 fd       	sbrc	r20, 7
    5ed8:	80 81       	ld	r24, Z
    5eda:	80 32       	cpi	r24, 0x20	; 32
    5edc:	c9 f1       	breq	.+114    	; 0x5f50 <atoi+0x84>
    5ede:	68 2f       	mov	r22, r24
    5ee0:	08 2e       	mov	r0, r24
    5ee2:	00 0c       	add	r0, r0
    5ee4:	77 0b       	sbc	r23, r23
    5ee6:	69 50       	subi	r22, 0x09	; 9
    5ee8:	71 09       	sbc	r23, r1
    5eea:	65 30       	cpi	r22, 0x05	; 5
    5eec:	71 05       	cpc	r23, r1
    5eee:	80 f1       	brcs	.+96     	; 0x5f50 <atoi+0x84>
    5ef0:	8b 32       	cpi	r24, 0x2B	; 43
    5ef2:	49 f5       	brne	.+82     	; 0x5f46 <atoi+0x7a>
    5ef4:	a0 e0       	ldi	r26, 0x00	; 0
    5ef6:	b0 e0       	ldi	r27, 0x00	; 0
    5ef8:	2f 5f       	subi	r18, 0xFF	; 255
    5efa:	3f 4f       	sbci	r19, 0xFF	; 255
    5efc:	4f 4f       	sbci	r20, 0xFF	; 255
    5efe:	02 c0       	rjmp	.+4      	; 0x5f04 <atoi+0x38>
    5f00:	a0 e0       	ldi	r26, 0x00	; 0
    5f02:	b0 e0       	ldi	r27, 0x00	; 0
    5f04:	80 e0       	ldi	r24, 0x00	; 0
    5f06:	90 e0       	ldi	r25, 0x00	; 0
    5f08:	ca e0       	ldi	r28, 0x0A	; 10
    5f0a:	f9 01       	movw	r30, r18
    5f0c:	64 91       	lpm	r22, Z
    5f0e:	47 fd       	sbrc	r20, 7
    5f10:	60 81       	ld	r22, Z
    5f12:	06 2e       	mov	r0, r22
    5f14:	00 0c       	add	r0, r0
    5f16:	77 0b       	sbc	r23, r23
    5f18:	60 53       	subi	r22, 0x30	; 48
    5f1a:	71 09       	sbc	r23, r1
    5f1c:	6a 30       	cpi	r22, 0x0A	; 10
    5f1e:	71 05       	cpc	r23, r1
    5f20:	60 f4       	brcc	.+24     	; 0x5f3a <atoi+0x6e>
    5f22:	c8 9f       	mul	r28, r24
    5f24:	f0 01       	movw	r30, r0
    5f26:	c9 9f       	mul	r28, r25
    5f28:	f0 0d       	add	r31, r0
    5f2a:	11 24       	eor	r1, r1
    5f2c:	2f 5f       	subi	r18, 0xFF	; 255
    5f2e:	3f 4f       	sbci	r19, 0xFF	; 255
    5f30:	4f 4f       	sbci	r20, 0xFF	; 255
    5f32:	cf 01       	movw	r24, r30
    5f34:	86 1b       	sub	r24, r22
    5f36:	97 0b       	sbc	r25, r23
    5f38:	e8 cf       	rjmp	.-48     	; 0x5f0a <atoi+0x3e>
    5f3a:	ab 2b       	or	r26, r27
    5f3c:	69 f4       	brne	.+26     	; 0x5f58 <atoi+0x8c>
    5f3e:	91 95       	neg	r25
    5f40:	81 95       	neg	r24
    5f42:	91 09       	sbc	r25, r1
    5f44:	09 c0       	rjmp	.+18     	; 0x5f58 <atoi+0x8c>
    5f46:	8d 32       	cpi	r24, 0x2D	; 45
    5f48:	d9 f6       	brne	.-74     	; 0x5f00 <atoi+0x34>
    5f4a:	a1 e0       	ldi	r26, 0x01	; 1
    5f4c:	b0 e0       	ldi	r27, 0x00	; 0
    5f4e:	d4 cf       	rjmp	.-88     	; 0x5ef8 <atoi+0x2c>
    5f50:	2f 5f       	subi	r18, 0xFF	; 255
    5f52:	3f 4f       	sbci	r19, 0xFF	; 255
    5f54:	4f 4f       	sbci	r20, 0xFF	; 255
    5f56:	bd cf       	rjmp	.-134    	; 0x5ed2 <atoi+0x6>
    5f58:	cf 91       	pop	r28
    5f5a:	08 95       	ret

Disassembly of section .text.strtoll:

000071d4 <strtoll>:
    71d4:	0f 93       	push	r16
    71d6:	01 e0       	ldi	r16, 0x01	; 1
    71d8:	0e 94 e1 1d 	call	0x3bc2	; 0x3bc2 <__strtoxll>
    71dc:	0f 91       	pop	r16
    71de:	08 95       	ret

Disassembly of section .text.strtoull:

000071e0 <strtoull>:
    71e0:	0f 93       	push	r16
    71e2:	00 e0       	ldi	r16, 0x00	; 0
    71e4:	0e 94 e1 1d 	call	0x3bc2	; 0x3bc2 <__strtoxll>
    71e8:	0f 91       	pop	r16
    71ea:	08 95       	ret

Disassembly of section .text.memset:

00007112 <memset>:
    7112:	fc 01       	movw	r30, r24
    7114:	48 0f       	add	r20, r24
    7116:	59 1f       	adc	r21, r25
    7118:	e4 17       	cp	r30, r20
    711a:	f5 07       	cpc	r31, r21
    711c:	11 f0       	breq	.+4      	; 0x7122 <memset+0x10>
    711e:	61 93       	st	Z+, r22
    7120:	fb cf       	rjmp	.-10     	; 0x7118 <memset+0x6>
    7122:	08 95       	ret

Disassembly of section .text.strlen:

00006e98 <strlen>:
    6e98:	cf 92       	push	r12
    6e9a:	df 92       	push	r13
    6e9c:	ef 92       	push	r14
    6e9e:	6b 01       	movw	r12, r22
    6ea0:	e8 2e       	mov	r14, r24
    6ea2:	a8 2f       	mov	r26, r24
    6ea4:	cb 01       	movw	r24, r22
    6ea6:	fc 01       	movw	r30, r24
    6ea8:	24 91       	lpm	r18, Z
    6eaa:	a7 fd       	sbrc	r26, 7
    6eac:	20 81       	ld	r18, Z
    6eae:	22 23       	and	r18, r18
    6eb0:	19 f0       	breq	.+6      	; 0x6eb8 <strlen+0x20>
    6eb2:	01 96       	adiw	r24, 0x01	; 1
    6eb4:	a1 1d       	adc	r26, r1
    6eb6:	f7 cf       	rjmp	.-18     	; 0x6ea6 <strlen+0xe>
    6eb8:	8c 19       	sub	r24, r12
    6eba:	9d 09       	sbc	r25, r13
    6ebc:	ef 90       	pop	r14
    6ebe:	df 90       	pop	r13
    6ec0:	cf 90       	pop	r12
    6ec2:	08 95       	ret

Disassembly of section .text.strncmp:

000063dc <strncmp>:
    63dc:	cf 92       	push	r12
    63de:	df 92       	push	r13
    63e0:	ef 92       	push	r14
    63e2:	0f 93       	push	r16
    63e4:	1f 93       	push	r17
    63e6:	6b 01       	movw	r12, r22
    63e8:	e8 2e       	mov	r14, r24
    63ea:	01 15       	cp	r16, r1
    63ec:	11 05       	cpc	r17, r1
    63ee:	19 f1       	breq	.+70     	; 0x6436 <strncmp+0x5a>
    63f0:	01 50       	subi	r16, 0x01	; 1
    63f2:	11 09       	sbc	r17, r1
    63f4:	f6 01       	movw	r30, r12
    63f6:	84 91       	lpm	r24, Z
    63f8:	e7 fc       	sbrc	r14, 7
    63fa:	80 81       	ld	r24, Z
    63fc:	88 23       	and	r24, r24
    63fe:	99 f0       	breq	.+38     	; 0x6426 <strncmp+0x4a>
    6400:	f9 01       	movw	r30, r18
    6402:	94 91       	lpm	r25, Z
    6404:	47 fd       	sbrc	r20, 7
    6406:	90 81       	ld	r25, Z
    6408:	99 23       	and	r25, r25
    640a:	69 f0       	breq	.+26     	; 0x6426 <strncmp+0x4a>
    640c:	01 15       	cp	r16, r1
    640e:	11 05       	cpc	r17, r1
    6410:	51 f0       	breq	.+20     	; 0x6426 <strncmp+0x4a>
    6412:	89 13       	cpse	r24, r25
    6414:	08 c0       	rjmp	.+16     	; 0x6426 <strncmp+0x4a>
    6416:	8f ef       	ldi	r24, 0xFF	; 255
    6418:	c8 1a       	sub	r12, r24
    641a:	d8 0a       	sbc	r13, r24
    641c:	e8 0a       	sbc	r14, r24
    641e:	2f 5f       	subi	r18, 0xFF	; 255
    6420:	3f 4f       	sbci	r19, 0xFF	; 255
    6422:	4f 4f       	sbci	r20, 0xFF	; 255
    6424:	e5 cf       	rjmp	.-54     	; 0x63f0 <strncmp+0x14>
    6426:	90 e0       	ldi	r25, 0x00	; 0
    6428:	f9 01       	movw	r30, r18
    642a:	24 91       	lpm	r18, Z
    642c:	47 fd       	sbrc	r20, 7
    642e:	20 81       	ld	r18, Z
    6430:	82 1b       	sub	r24, r18
    6432:	91 09       	sbc	r25, r1
    6434:	02 c0       	rjmp	.+4      	; 0x643a <strncmp+0x5e>
    6436:	80 e0       	ldi	r24, 0x00	; 0
    6438:	90 e0       	ldi	r25, 0x00	; 0
    643a:	1f 91       	pop	r17
    643c:	0f 91       	pop	r16
    643e:	ef 90       	pop	r14
    6440:	df 90       	pop	r13
    6442:	cf 90       	pop	r12
    6444:	08 95       	ret

Disassembly of section .text.strcat:

00006cce <strcat>:
    6cce:	cf 92       	push	r12
    6cd0:	df 92       	push	r13
    6cd2:	ef 92       	push	r14
    6cd4:	cf 93       	push	r28
    6cd6:	df 93       	push	r29
    6cd8:	ec 01       	movw	r28, r24
    6cda:	6a 01       	movw	r12, r20
    6cdc:	e6 2e       	mov	r14, r22
    6cde:	bc 01       	movw	r22, r24
    6ce0:	80 e8       	ldi	r24, 0x80	; 128
    6ce2:	0e 94 4c 37 	call	0x6e98	; 0x6e98 <strlen>
    6ce6:	6e 2d       	mov	r22, r14
    6ce8:	a6 01       	movw	r20, r12
    6cea:	8c 0f       	add	r24, r28
    6cec:	9d 1f       	adc	r25, r29
    6cee:	0e 94 25 38 	call	0x704a	; 0x704a <strcpy>
    6cf2:	ce 01       	movw	r24, r28
    6cf4:	df 91       	pop	r29
    6cf6:	cf 91       	pop	r28
    6cf8:	ef 90       	pop	r14
    6cfa:	df 90       	pop	r13
    6cfc:	cf 90       	pop	r12
    6cfe:	08 95       	ret

Disassembly of section .text.isxdigit:

00006f14 <isxdigit>:
    6f14:	9c 01       	movw	r18, r24
    6f16:	20 53       	subi	r18, 0x30	; 48
    6f18:	31 09       	sbc	r19, r1
    6f1a:	2a 30       	cpi	r18, 0x0A	; 10
    6f1c:	31 05       	cpc	r19, r1
    6f1e:	58 f0       	brcs	.+22     	; 0x6f36 <isxdigit+0x22>
    6f20:	80 62       	ori	r24, 0x20	; 32
    6f22:	81 56       	subi	r24, 0x61	; 97
    6f24:	91 09       	sbc	r25, r1
    6f26:	31 e0       	ldi	r19, 0x01	; 1
    6f28:	20 e0       	ldi	r18, 0x00	; 0
    6f2a:	06 97       	sbiw	r24, 0x06	; 6
    6f2c:	08 f0       	brcs	.+2      	; 0x6f30 <isxdigit+0x1c>
    6f2e:	30 e0       	ldi	r19, 0x00	; 0
    6f30:	83 2f       	mov	r24, r19
    6f32:	92 2f       	mov	r25, r18
    6f34:	08 95       	ret
    6f36:	81 e0       	ldi	r24, 0x01	; 1
    6f38:	90 e0       	ldi	r25, 0x00	; 0
    6f3a:	08 95       	ret

Disassembly of section .text.tolower:

0000718e <tolower>:
    718e:	9c 01       	movw	r18, r24
    7190:	21 54       	subi	r18, 0x41	; 65
    7192:	31 09       	sbc	r19, r1
    7194:	2a 31       	cpi	r18, 0x1A	; 26
    7196:	31 05       	cpc	r19, r1
    7198:	08 f4       	brcc	.+2      	; 0x719c <tolower+0xe>
    719a:	80 62       	ori	r24, 0x20	; 32
    719c:	08 95       	ret

Disassembly of section .text.toupper:

00007124 <toupper>:
    7124:	9c 01       	movw	r18, r24
    7126:	21 56       	subi	r18, 0x61	; 97
    7128:	31 09       	sbc	r19, r1
    712a:	2a 31       	cpi	r18, 0x1A	; 26
    712c:	31 05       	cpc	r19, r1
    712e:	10 f4       	brcc	.+4      	; 0x7134 <toupper+0x10>
    7130:	8f 75       	andi	r24, 0x5F	; 95
    7132:	99 27       	eor	r25, r25
    7134:	08 95       	ret

Disassembly of section .text._Exit:

00007230 <_Exit>:
    7230:	0e 94 7d 00 	call	0xfa	; 0xfa <_exit>

Disassembly of section .text.__vfscanf:

00006d00 <__vfscanf>:
    6d00:	a2 e0       	ldi	r26, 0x02	; 2
    6d02:	b0 e0       	ldi	r27, 0x00	; 0
    6d04:	e6 e8       	ldi	r30, 0x86	; 134
    6d06:	f6 e3       	ldi	r31, 0x36	; 54
    6d08:	0c 94 fe 34 	jmp	0x69fc	; 0x69fc <__prologue_saves__+0x1c>
    6d0c:	8c 01       	movw	r16, r24
    6d0e:	3a 83       	std	Y+2, r19	; 0x02
    6d10:	29 83       	std	Y+1, r18	; 0x01
    6d12:	9e 01       	movw	r18, r28
    6d14:	2f 5f       	subi	r18, 0xFF	; 255
    6d16:	3f 4f       	sbci	r19, 0xFF	; 255
    6d18:	0e 94 84 0f 	call	0x1f08	; 0x1f08 <__scanf_core>
    6d1c:	f8 01       	movw	r30, r16
    6d1e:	20 81       	ld	r18, Z
    6d20:	24 ff       	sbrs	r18, 4
    6d22:	02 c0       	rjmp	.+4      	; 0x6d28 <__vfscanf+0x28>
    6d24:	8f ef       	ldi	r24, 0xFF	; 255
    6d26:	9f ef       	ldi	r25, 0xFF	; 255
    6d28:	22 96       	adiw	r28, 0x02	; 2
    6d2a:	e4 e0       	ldi	r30, 0x04	; 4
    6d2c:	0c 94 28 36 	jmp	0x6c50	; 0x6c50 <__epilogue_restores__+0x1c>

Disassembly of section .text.__vsprintf:

000070b6 <__vsprintf>:
    70b6:	0f 93       	push	r16
    70b8:	1f 93       	push	r17
    70ba:	89 01       	movw	r16, r18
    70bc:	9a 01       	movw	r18, r20
    70be:	46 2f       	mov	r20, r22
    70c0:	6f ef       	ldi	r22, 0xFF	; 255
    70c2:	7f e7       	ldi	r23, 0x7F	; 127
    70c4:	0e 94 51 2c 	call	0x58a2	; 0x58a2 <__vsnprintf>
    70c8:	1f 91       	pop	r17
    70ca:	0f 91       	pop	r16
    70cc:	08 95       	ret

Disassembly of section .text.__vsnprintf:

000058a2 <__vsnprintf>:
    58a2:	6f 92       	push	r6
    58a4:	7f 92       	push	r7
    58a6:	8f 92       	push	r8
    58a8:	ef 92       	push	r14
    58aa:	ff 92       	push	r15
    58ac:	0f 93       	push	r16
    58ae:	1f 93       	push	r17
    58b0:	cf 93       	push	r28
    58b2:	df 93       	push	r29
    58b4:	cd b7       	in	r28, 0x3d	; 61
    58b6:	de b7       	in	r29, 0x3e	; 62
    58b8:	61 97       	sbiw	r28, 0x11	; 17
    58ba:	0f b6       	in	r0, 0x3f	; 63
    58bc:	f8 94       	cli
    58be:	de bf       	out	0x3e, r29	; 62
    58c0:	0f be       	out	0x3f, r0	; 63
    58c2:	cd bf       	out	0x3d, r28	; 61
    58c4:	fe 01       	movw	r30, r28
    58c6:	31 96       	adiw	r30, 0x01	; 1
    58c8:	51 e1       	ldi	r21, 0x11	; 17
    58ca:	df 01       	movw	r26, r30
    58cc:	1d 92       	st	X+, r1
    58ce:	5a 95       	dec	r21
    58d0:	e9 f7       	brne	.-6      	; 0x58cc <__vsnprintf+0x2a>
    58d2:	a2 e0       	ldi	r26, 0x02	; 2
    58d4:	b1 e0       	ldi	r27, 0x01	; 1
    58d6:	ba 83       	std	Y+2, r27	; 0x02
    58d8:	a9 83       	std	Y+1, r26	; 0x01
    58da:	9c 83       	std	Y+4, r25	; 0x04
    58dc:	8b 83       	std	Y+3, r24	; 0x03
    58de:	77 ff       	sbrs	r23, 7
    58e0:	09 c0       	rjmp	.+18     	; 0x58f4 <__vsnprintf+0x52>
    58e2:	8f e4       	ldi	r24, 0x4F	; 79
    58e4:	90 e0       	ldi	r25, 0x00	; 0
    58e6:	90 93 23 01 	sts	0x0123, r25	; 0x800123 <__errno_val+0x1>
    58ea:	80 93 22 01 	sts	0x0122, r24	; 0x800122 <__errno_val>
    58ee:	8f ef       	ldi	r24, 0xFF	; 255
    58f0:	9f ef       	ldi	r25, 0xFF	; 255
    58f2:	19 c0       	rjmp	.+50     	; 0x5926 <__vsnprintf+0x84>
    58f4:	39 01       	movw	r6, r18
    58f6:	84 2e       	mov	r8, r20
    58f8:	7c 01       	movw	r14, r24
    58fa:	61 50       	subi	r22, 0x01	; 1
    58fc:	71 09       	sbc	r23, r1
    58fe:	7f 83       	std	Y+7, r23	; 0x07
    5900:	6e 83       	std	Y+6, r22	; 0x06
    5902:	98 01       	movw	r18, r16
    5904:	68 2d       	mov	r22, r8
    5906:	a3 01       	movw	r20, r6
    5908:	cf 01       	movw	r24, r30
    590a:	0e 94 98 36 	call	0x6d30	; 0x6d30 <__vfprintf>
    590e:	48 85       	ldd	r20, Y+8	; 0x08
    5910:	59 85       	ldd	r21, Y+9	; 0x09
    5912:	2e 81       	ldd	r18, Y+6	; 0x06
    5914:	3f 81       	ldd	r19, Y+7	; 0x07
    5916:	42 17       	cp	r20, r18
    5918:	53 07       	cpc	r21, r19
    591a:	08 f4       	brcc	.+2      	; 0x591e <__vsnprintf+0x7c>
    591c:	9a 01       	movw	r18, r20
    591e:	f7 01       	movw	r30, r14
    5920:	e2 0f       	add	r30, r18
    5922:	f3 1f       	adc	r31, r19
    5924:	10 82       	st	Z, r1
    5926:	61 96       	adiw	r28, 0x11	; 17
    5928:	0f b6       	in	r0, 0x3f	; 63
    592a:	f8 94       	cli
    592c:	de bf       	out	0x3e, r29	; 62
    592e:	0f be       	out	0x3f, r0	; 63
    5930:	cd bf       	out	0x3d, r28	; 61
    5932:	df 91       	pop	r29
    5934:	cf 91       	pop	r28
    5936:	1f 91       	pop	r17
    5938:	0f 91       	pop	r16
    593a:	ff 90       	pop	r15
    593c:	ef 90       	pop	r14
    593e:	8f 90       	pop	r8
    5940:	7f 90       	pop	r7
    5942:	6f 90       	pop	r6
    5944:	08 95       	ret

Disassembly of section .text.__strtoxll:

00003bc2 <__strtoxll>:
    3bc2:	ac e1       	ldi	r26, 0x1C	; 28
    3bc4:	b0 e0       	ldi	r27, 0x00	; 0
    3bc6:	e7 ee       	ldi	r30, 0xE7	; 231
    3bc8:	fd e1       	ldi	r31, 0x1D	; 29
    3bca:	0c 94 f0 34 	jmp	0x69e0	; 0x69e0 <__prologue_saves__>
    3bce:	1b 01       	movw	r2, r22
    3bd0:	48 2e       	mov	r4, r24
    3bd2:	59 8b       	std	Y+17, r21	; 0x11
    3bd4:	48 8b       	std	Y+16, r20	; 0x10
    3bd6:	3c 8f       	std	Y+28, r19	; 0x1c
    3bd8:	2b 8f       	std	Y+27, r18	; 0x1b
    3bda:	0a 8f       	std	Y+26, r16	; 0x1a
    3bdc:	25 32       	cpi	r18, 0x25	; 37
    3bde:	31 05       	cpc	r19, r1
    3be0:	1c f4       	brge	.+6      	; 0x3be8 <__strtoxll+0x26>
    3be2:	21 30       	cpi	r18, 0x01	; 1
    3be4:	31 05       	cpc	r19, r1
    3be6:	39 f4       	brne	.+14     	; 0x3bf6 <__strtoxll+0x34>
    3be8:	86 e1       	ldi	r24, 0x16	; 22
    3bea:	90 e0       	ldi	r25, 0x00	; 0
    3bec:	90 93 23 01 	sts	0x0123, r25	; 0x800123 <__errno_val+0x1>
    3bf0:	80 93 22 01 	sts	0x0122, r24	; 0x800122 <__errno_val>
    3bf4:	a3 c1       	rjmp	.+838    	; 0x3f3c <__strtoxll+0x37a>
    3bf6:	61 15       	cp	r22, r1
    3bf8:	71 05       	cpc	r23, r1
    3bfa:	81 05       	cpc	r24, r1
    3bfc:	09 f4       	brne	.+2      	; 0x3c00 <__strtoxll+0x3e>
    3bfe:	9e c1       	rjmp	.+828    	; 0x3f3c <__strtoxll+0x37a>
    3c00:	fb 01       	movw	r30, r22
    3c02:	14 91       	lpm	r17, Z
    3c04:	47 fc       	sbrc	r4, 7
    3c06:	10 81       	ld	r17, Z
    3c08:	11 23       	and	r17, r17
    3c0a:	09 f4       	brne	.+2      	; 0x3c0e <__strtoxll+0x4c>
    3c0c:	97 c1       	rjmp	.+814    	; 0x3f3c <__strtoxll+0x37a>
    3c0e:	84 2c       	mov	r8, r4
    3c10:	31 01       	movw	r6, r2
    3c12:	10 32       	cpi	r17, 0x20	; 32
    3c14:	39 f0       	breq	.+14     	; 0x3c24 <__strtoxll+0x62>
    3c16:	81 2f       	mov	r24, r17
    3c18:	01 2e       	mov	r0, r17
    3c1a:	00 0c       	add	r0, r0
    3c1c:	99 0b       	sbc	r25, r25
    3c1e:	09 97       	sbiw	r24, 0x09	; 9
    3c20:	05 97       	sbiw	r24, 0x05	; 5
    3c22:	48 f4       	brcc	.+18     	; 0x3c36 <__strtoxll+0x74>
    3c24:	ff ef       	ldi	r31, 0xFF	; 255
    3c26:	6f 1a       	sub	r6, r31
    3c28:	7f 0a       	sbc	r7, r31
    3c2a:	8f 0a       	sbc	r8, r31
    3c2c:	f3 01       	movw	r30, r6
    3c2e:	14 91       	lpm	r17, Z
    3c30:	87 fc       	sbrc	r8, 7
    3c32:	10 81       	ld	r17, Z
    3c34:	ee cf       	rjmp	.-36     	; 0x3c12 <__strtoxll+0x50>
    3c36:	1d 32       	cpi	r17, 0x2D	; 45
    3c38:	59 f4       	brne	.+22     	; 0x3c50 <__strtoxll+0x8e>
    3c3a:	2f ef       	ldi	r18, 0xFF	; 255
    3c3c:	62 1a       	sub	r6, r18
    3c3e:	72 0a       	sbc	r7, r18
    3c40:	82 0a       	sbc	r8, r18
    3c42:	f3 01       	movw	r30, r6
    3c44:	14 91       	lpm	r17, Z
    3c46:	87 fc       	sbrc	r8, 7
    3c48:	10 81       	ld	r17, Z
    3c4a:	31 e0       	ldi	r19, 0x01	; 1
    3c4c:	3e 87       	std	Y+14, r19	; 0x0e
    3c4e:	0b c0       	rjmp	.+22     	; 0x3c66 <__strtoxll+0xa4>
    3c50:	1b 32       	cpi	r17, 0x2B	; 43
    3c52:	41 f4       	brne	.+16     	; 0x3c64 <__strtoxll+0xa2>
    3c54:	8f ef       	ldi	r24, 0xFF	; 255
    3c56:	68 1a       	sub	r6, r24
    3c58:	78 0a       	sbc	r7, r24
    3c5a:	88 0a       	sbc	r8, r24
    3c5c:	f3 01       	movw	r30, r6
    3c5e:	14 91       	lpm	r17, Z
    3c60:	87 fc       	sbrc	r8, 7
    3c62:	10 81       	ld	r17, Z
    3c64:	1e 86       	std	Y+14, r1	; 0x0e
    3c66:	10 33       	cpi	r17, 0x30	; 48
    3c68:	09 f0       	breq	.+2      	; 0x3c6c <__strtoxll+0xaa>
    3c6a:	52 c0       	rjmp	.+164    	; 0x3d10 <__strtoxll+0x14e>
    3c6c:	e8 2c       	mov	r14, r8
    3c6e:	63 01       	movw	r12, r6
    3c70:	9f ef       	ldi	r25, 0xFF	; 255
    3c72:	c9 1a       	sub	r12, r25
    3c74:	d9 0a       	sbc	r13, r25
    3c76:	e9 0a       	sbc	r14, r25
    3c78:	f6 01       	movw	r30, r12
    3c7a:	14 91       	lpm	r17, Z
    3c7c:	e7 fc       	sbrc	r14, 7
    3c7e:	10 81       	ld	r17, Z
    3c80:	8b 8d       	ldd	r24, Y+27	; 0x1b
    3c82:	9c 8d       	ldd	r25, Y+28	; 0x1c
    3c84:	8f 7e       	andi	r24, 0xEF	; 239
    3c86:	89 2b       	or	r24, r25
    3c88:	09 f0       	breq	.+2      	; 0x3c8c <__strtoxll+0xca>
    3c8a:	44 c0       	rjmp	.+136    	; 0x3d14 <__strtoxll+0x152>
    3c8c:	81 2f       	mov	r24, r17
    3c8e:	8f 7d       	andi	r24, 0xDF	; 223
    3c90:	88 35       	cpi	r24, 0x58	; 88
    3c92:	a9 f5       	brne	.+106    	; 0x3cfe <__strtoxll+0x13c>
    3c94:	e2 e0       	ldi	r30, 0x02	; 2
    3c96:	6e 0e       	add	r6, r30
    3c98:	71 1c       	adc	r7, r1
    3c9a:	81 1c       	adc	r8, r1
    3c9c:	f3 01       	movw	r30, r6
    3c9e:	14 91       	lpm	r17, Z
    3ca0:	87 fc       	sbrc	r8, 7
    3ca2:	10 81       	ld	r17, Z
    3ca4:	81 2f       	mov	r24, r17
    3ca6:	80 62       	ori	r24, 0x20	; 32
    3ca8:	08 2e       	mov	r0, r24
    3caa:	00 0c       	add	r0, r0
    3cac:	99 0b       	sbc	r25, r25
    3cae:	81 56       	subi	r24, 0x61	; 97
    3cb0:	91 09       	sbc	r25, r1
    3cb2:	21 2f       	mov	r18, r17
    3cb4:	01 2e       	mov	r0, r17
    3cb6:	00 0c       	add	r0, r0
    3cb8:	33 0b       	sbc	r19, r19
    3cba:	3c 8f       	std	Y+28, r19	; 0x1c
    3cbc:	2b 8f       	std	Y+27, r18	; 0x1b
    3cbe:	4a 97       	sbiw	r24, 0x1a	; 26
    3cc0:	38 f0       	brcs	.+14     	; 0x3cd0 <__strtoxll+0x10e>
    3cc2:	8b 8d       	ldd	r24, Y+27	; 0x1b
    3cc4:	9c 8d       	ldd	r25, Y+28	; 0x1c
    3cc6:	0e 94 9e 37 	call	0x6f3c	; 0x6f3c <isalnum>
    3cca:	89 2b       	or	r24, r25
    3ccc:	41 f0       	breq	.+16     	; 0x3cde <__strtoxll+0x11c>
    3cce:	49 c1       	rjmp	.+658    	; 0x3f62 <__strtoxll+0x3a0>
    3cd0:	8b 8d       	ldd	r24, Y+27	; 0x1b
    3cd2:	9c 8d       	ldd	r25, Y+28	; 0x1c
    3cd4:	0e 94 92 38 	call	0x7124	; 0x7124 <toupper>
    3cd8:	87 53       	subi	r24, 0x37	; 55
    3cda:	80 31       	cpi	r24, 0x10	; 16
    3cdc:	94 f3       	brlt	.-28     	; 0x3cc2 <__strtoxll+0x100>
    3cde:	16 01       	movw	r2, r12
    3ce0:	4e 2c       	mov	r4, r14
    3ce2:	88 89       	ldd	r24, Y+16	; 0x10
    3ce4:	99 89       	ldd	r25, Y+17	; 0x11
    3ce6:	89 2b       	or	r24, r25
    3ce8:	09 f0       	breq	.+2      	; 0x3cec <__strtoxll+0x12a>
    3cea:	2d c1       	rjmp	.+602    	; 0x3f46 <__strtoxll+0x384>
    3cec:	19 82       	std	Y+1, r1	; 0x01
    3cee:	51 2c       	mov	r5, r1
    3cf0:	91 2c       	mov	r9, r1
    3cf2:	1a 82       	std	Y+2, r1	; 0x02
    3cf4:	1b 82       	std	Y+3, r1	; 0x03
    3cf6:	1c 82       	std	Y+4, r1	; 0x04
    3cf8:	1d 82       	std	Y+5, r1	; 0x05
    3cfa:	1e 82       	std	Y+6, r1	; 0x06
    3cfc:	42 c1       	rjmp	.+644    	; 0x3f82 <__strtoxll+0x3c0>
    3cfe:	eb 8d       	ldd	r30, Y+27	; 0x1b
    3d00:	fc 8d       	ldd	r31, Y+28	; 0x1c
    3d02:	ef 2b       	or	r30, r31
    3d04:	09 f4       	brne	.+2      	; 0x3d08 <__strtoxll+0x146>
    3d06:	35 c1       	rjmp	.+618    	; 0x3f72 <__strtoxll+0x3b0>
    3d08:	36 01       	movw	r6, r12
    3d0a:	8e 2c       	mov	r8, r14
    3d0c:	01 e0       	ldi	r16, 0x01	; 1
    3d0e:	0d c0       	rjmp	.+26     	; 0x3d2a <__strtoxll+0x168>
    3d10:	00 e0       	ldi	r16, 0x00	; 0
    3d12:	03 c0       	rjmp	.+6      	; 0x3d1a <__strtoxll+0x158>
    3d14:	36 01       	movw	r6, r12
    3d16:	8e 2c       	mov	r8, r14
    3d18:	01 e0       	ldi	r16, 0x01	; 1
    3d1a:	2b 8d       	ldd	r18, Y+27	; 0x1b
    3d1c:	3c 8d       	ldd	r19, Y+28	; 0x1c
    3d1e:	23 2b       	or	r18, r19
    3d20:	21 f4       	brne	.+8      	; 0x3d2a <__strtoxll+0x168>
    3d22:	8a e0       	ldi	r24, 0x0A	; 10
    3d24:	90 e0       	ldi	r25, 0x00	; 0
    3d26:	9c 8f       	std	Y+28, r25	; 0x1c
    3d28:	8b 8f       	std	Y+27, r24	; 0x1b
    3d2a:	9a 8d       	ldd	r25, Y+26	; 0x1a
    3d2c:	99 23       	and	r25, r25
    3d2e:	99 f0       	breq	.+38     	; 0x3d56 <__strtoxll+0x194>
    3d30:	ee 85       	ldd	r30, Y+14	; 0x0e
    3d32:	e1 11       	cpse	r30, r1
    3d34:	1f c0       	rjmp	.+62     	; 0x3d74 <__strtoxll+0x1b2>
    3d36:	ff ef       	ldi	r31, 0xFF	; 255
    3d38:	fa 8b       	std	Y+18, r31	; 0x12
    3d3a:	2f ef       	ldi	r18, 0xFF	; 255
    3d3c:	2b 8b       	std	Y+19, r18	; 0x13
    3d3e:	3f ef       	ldi	r19, 0xFF	; 255
    3d40:	3c 8b       	std	Y+20, r19	; 0x14
    3d42:	8f ef       	ldi	r24, 0xFF	; 255
    3d44:	8d 8b       	std	Y+21, r24	; 0x15
    3d46:	9f ef       	ldi	r25, 0xFF	; 255
    3d48:	9e 8b       	std	Y+22, r25	; 0x16
    3d4a:	ef ef       	ldi	r30, 0xFF	; 255
    3d4c:	ef 8b       	std	Y+23, r30	; 0x17
    3d4e:	f8 8f       	std	Y+24, r31	; 0x18
    3d50:	2f e7       	ldi	r18, 0x7F	; 127
    3d52:	29 8f       	std	Y+25, r18	; 0x19
    3d54:	18 c0       	rjmp	.+48     	; 0x3d86 <__strtoxll+0x1c4>
    3d56:	3f ef       	ldi	r19, 0xFF	; 255
    3d58:	3a 8b       	std	Y+18, r19	; 0x12
    3d5a:	8f ef       	ldi	r24, 0xFF	; 255
    3d5c:	8b 8b       	std	Y+19, r24	; 0x13
    3d5e:	9f ef       	ldi	r25, 0xFF	; 255
    3d60:	9c 8b       	std	Y+20, r25	; 0x14
    3d62:	ef ef       	ldi	r30, 0xFF	; 255
    3d64:	ed 8b       	std	Y+21, r30	; 0x15
    3d66:	ff ef       	ldi	r31, 0xFF	; 255
    3d68:	fe 8b       	std	Y+22, r31	; 0x16
    3d6a:	2f ef       	ldi	r18, 0xFF	; 255
    3d6c:	2f 8b       	std	Y+23, r18	; 0x17
    3d6e:	38 8f       	std	Y+24, r19	; 0x18
    3d70:	89 8f       	std	Y+25, r24	; 0x19
    3d72:	09 c0       	rjmp	.+18     	; 0x3d86 <__strtoxll+0x1c4>
    3d74:	1a 8a       	std	Y+18, r1	; 0x12
    3d76:	1b 8a       	std	Y+19, r1	; 0x13
    3d78:	1c 8a       	std	Y+20, r1	; 0x14
    3d7a:	1d 8a       	std	Y+21, r1	; 0x15
    3d7c:	1e 8a       	std	Y+22, r1	; 0x16
    3d7e:	1f 8a       	std	Y+23, r1	; 0x17
    3d80:	18 8e       	std	Y+24, r1	; 0x18
    3d82:	90 e8       	ldi	r25, 0x80	; 128
    3d84:	99 8f       	std	Y+25, r25	; 0x19
    3d86:	1f 86       	std	Y+15, r1	; 0x0f
    3d88:	19 82       	std	Y+1, r1	; 0x01
    3d8a:	51 2c       	mov	r5, r1
    3d8c:	91 2c       	mov	r9, r1
    3d8e:	1a 82       	std	Y+2, r1	; 0x02
    3d90:	1b 82       	std	Y+3, r1	; 0x03
    3d92:	1c 82       	std	Y+4, r1	; 0x04
    3d94:	1d 82       	std	Y+5, r1	; 0x05
    3d96:	1e 82       	std	Y+6, r1	; 0x06
    3d98:	ec 8d       	ldd	r30, Y+28	; 0x1c
    3d9a:	ee 0f       	add	r30, r30
    3d9c:	ee 0b       	sbc	r30, r30
    3d9e:	e8 87       	std	Y+8, r30	; 0x08
    3da0:	21 2f       	mov	r18, r17
    3da2:	20 62       	ori	r18, 0x20	; 32
    3da4:	02 2e       	mov	r0, r18
    3da6:	00 0c       	add	r0, r0
    3da8:	33 0b       	sbc	r19, r19
    3daa:	21 56       	subi	r18, 0x61	; 97
    3dac:	31 09       	sbc	r19, r1
    3dae:	81 2f       	mov	r24, r17
    3db0:	01 2e       	mov	r0, r17
    3db2:	00 0c       	add	r0, r0
    3db4:	99 0b       	sbc	r25, r25
    3db6:	2a 31       	cpi	r18, 0x1A	; 26
    3db8:	31 05       	cpc	r19, r1
    3dba:	28 f4       	brcc	.+10     	; 0x3dc6 <__strtoxll+0x204>
    3dbc:	0e 94 92 38 	call	0x7124	; 0x7124 <toupper>
    3dc0:	87 53       	subi	r24, 0x37	; 55
    3dc2:	8f 83       	std	Y+7, r24	; 0x07
    3dc4:	06 c0       	rjmp	.+12     	; 0x3dd2 <__strtoxll+0x210>
    3dc6:	c0 97       	sbiw	r24, 0x30	; 48
    3dc8:	0a 97       	sbiw	r24, 0x0a	; 10
    3dca:	08 f0       	brcs	.+2      	; 0x3dce <__strtoxll+0x20c>
    3dcc:	96 c0       	rjmp	.+300    	; 0x3efa <__strtoxll+0x338>
    3dce:	10 53       	subi	r17, 0x30	; 48
    3dd0:	1f 83       	std	Y+7, r17	; 0x07
    3dd2:	ff 81       	ldd	r31, Y+7	; 0x07
    3dd4:	8f 2f       	mov	r24, r31
    3dd6:	ff 0f       	add	r31, r31
    3dd8:	99 0b       	sbc	r25, r25
    3dda:	2b 8d       	ldd	r18, Y+27	; 0x1b
    3ddc:	3c 8d       	ldd	r19, Y+28	; 0x1c
    3dde:	82 17       	cp	r24, r18
    3de0:	93 07       	cpc	r25, r19
    3de2:	0c f0       	brlt	.+2      	; 0x3de6 <__strtoxll+0x224>
    3de4:	8a c0       	rjmp	.+276    	; 0x3efa <__strtoxll+0x338>
    3de6:	3f 85       	ldd	r19, Y+15	; 0x0f
    3de8:	31 11       	cpse	r19, r1
    3dea:	63 c0       	rjmp	.+198    	; 0x3eb2 <__strtoxll+0x2f0>
    3dec:	a9 80       	ldd	r10, Y+1	; 0x01
    3dee:	b5 2c       	mov	r11, r5
    3df0:	c9 2c       	mov	r12, r9
    3df2:	da 80       	ldd	r13, Y+2	; 0x02
    3df4:	eb 80       	ldd	r14, Y+3	; 0x03
    3df6:	fc 80       	ldd	r15, Y+4	; 0x04
    3df8:	0d 81       	ldd	r16, Y+5	; 0x05
    3dfa:	1e 81       	ldd	r17, Y+6	; 0x06
    3dfc:	2b 8d       	ldd	r18, Y+27	; 0x1b
    3dfe:	3c 8d       	ldd	r19, Y+28	; 0x1c
    3e00:	48 85       	ldd	r20, Y+8	; 0x08
    3e02:	54 2f       	mov	r21, r20
    3e04:	64 2f       	mov	r22, r20
    3e06:	74 2f       	mov	r23, r20
    3e08:	84 2f       	mov	r24, r20
    3e0a:	94 2f       	mov	r25, r20
    3e0c:	0e 94 45 2d 	call	0x5a8a	; 0x5a8a <__muldi3>
    3e10:	59 01       	movw	r10, r18
    3e12:	6a 01       	movw	r12, r20
    3e14:	7b 01       	movw	r14, r22
    3e16:	8c 01       	movw	r16, r24
    3e18:	9f 81       	ldd	r25, Y+7	; 0x07
    3e1a:	99 0f       	add	r25, r25
    3e1c:	99 0b       	sbc	r25, r25
    3e1e:	2f 81       	ldd	r18, Y+7	; 0x07
    3e20:	39 2f       	mov	r19, r25
    3e22:	49 2f       	mov	r20, r25
    3e24:	59 2f       	mov	r21, r25
    3e26:	69 2f       	mov	r22, r25
    3e28:	79 2f       	mov	r23, r25
    3e2a:	89 2f       	mov	r24, r25
    3e2c:	0e 94 ad 38 	call	0x715a	; 0x715a <__adddi3>
    3e30:	2f 83       	std	Y+7, r18	; 0x07
    3e32:	39 87       	std	Y+9, r19	; 0x09
    3e34:	4a 87       	std	Y+10, r20	; 0x0a
    3e36:	5b 87       	std	Y+11, r21	; 0x0b
    3e38:	6c 87       	std	Y+12, r22	; 0x0c
    3e3a:	7d 87       	std	Y+13, r23	; 0x0d
    3e3c:	b8 2f       	mov	r27, r24
    3e3e:	a9 2f       	mov	r26, r25
    3e40:	29 81       	ldd	r18, Y+1	; 0x01
    3e42:	35 2d       	mov	r19, r5
    3e44:	49 2d       	mov	r20, r9
    3e46:	5a 81       	ldd	r21, Y+2	; 0x02
    3e48:	6b 81       	ldd	r22, Y+3	; 0x03
    3e4a:	7c 81       	ldd	r23, Y+4	; 0x04
    3e4c:	8d 81       	ldd	r24, Y+5	; 0x05
    3e4e:	9e 81       	ldd	r25, Y+6	; 0x06
    3e50:	af 80       	ldd	r10, Y+7	; 0x07
    3e52:	b9 84       	ldd	r11, Y+9	; 0x09
    3e54:	ca 84       	ldd	r12, Y+10	; 0x0a
    3e56:	db 84       	ldd	r13, Y+11	; 0x0b
    3e58:	ec 84       	ldd	r14, Y+12	; 0x0c
    3e5a:	fd 84       	ldd	r15, Y+13	; 0x0d
    3e5c:	0b 2f       	mov	r16, r27
    3e5e:	1a 2f       	mov	r17, r26
    3e60:	0e 94 b6 38 	call	0x716c	; 0x716c <__cmpdi2>
    3e64:	09 f0       	breq	.+2      	; 0x3e68 <__strtoxll+0x2a6>
    3e66:	70 f4       	brcc	.+28     	; 0x3e84 <__strtoxll+0x2c2>
    3e68:	8a 8d       	ldd	r24, Y+26	; 0x1a
    3e6a:	88 23       	and	r24, r24
    3e6c:	81 f1       	breq	.+96     	; 0x3ece <__strtoxll+0x30c>
    3e6e:	2a 89       	ldd	r18, Y+18	; 0x12
    3e70:	3b 89       	ldd	r19, Y+19	; 0x13
    3e72:	4c 89       	ldd	r20, Y+20	; 0x14
    3e74:	5d 89       	ldd	r21, Y+21	; 0x15
    3e76:	6e 89       	ldd	r22, Y+22	; 0x16
    3e78:	7f 89       	ldd	r23, Y+23	; 0x17
    3e7a:	88 8d       	ldd	r24, Y+24	; 0x18
    3e7c:	99 8d       	ldd	r25, Y+25	; 0x19
    3e7e:	0e 94 b6 38 	call	0x716c	; 0x716c <__cmpdi2>
    3e82:	28 f5       	brcc	.+74     	; 0x3ece <__strtoxll+0x30c>
    3e84:	e2 e2       	ldi	r30, 0x22	; 34
    3e86:	f0 e0       	ldi	r31, 0x00	; 0
    3e88:	f0 93 23 01 	sts	0x0123, r31	; 0x800123 <__errno_val+0x1>
    3e8c:	e0 93 22 01 	sts	0x0122, r30	; 0x800122 <__errno_val>
    3e90:	fa 89       	ldd	r31, Y+18	; 0x12
    3e92:	ff 83       	std	Y+7, r31	; 0x07
    3e94:	2b 89       	ldd	r18, Y+19	; 0x13
    3e96:	29 87       	std	Y+9, r18	; 0x09
    3e98:	3c 89       	ldd	r19, Y+20	; 0x14
    3e9a:	3a 87       	std	Y+10, r19	; 0x0a
    3e9c:	8d 89       	ldd	r24, Y+21	; 0x15
    3e9e:	8b 87       	std	Y+11, r24	; 0x0b
    3ea0:	9e 89       	ldd	r25, Y+22	; 0x16
    3ea2:	9c 87       	std	Y+12, r25	; 0x0c
    3ea4:	ef 89       	ldd	r30, Y+23	; 0x17
    3ea6:	ed 87       	std	Y+13, r30	; 0x0d
    3ea8:	b8 8d       	ldd	r27, Y+24	; 0x18
    3eaa:	a9 8d       	ldd	r26, Y+25	; 0x19
    3eac:	f1 e0       	ldi	r31, 0x01	; 1
    3eae:	ff 87       	std	Y+15, r31	; 0x0f
    3eb0:	0e c0       	rjmp	.+28     	; 0x3ece <__strtoxll+0x30c>
    3eb2:	29 81       	ldd	r18, Y+1	; 0x01
    3eb4:	2f 83       	std	Y+7, r18	; 0x07
    3eb6:	59 86       	std	Y+9, r5	; 0x09
    3eb8:	9a 86       	std	Y+10, r9	; 0x0a
    3eba:	3a 81       	ldd	r19, Y+2	; 0x02
    3ebc:	3b 87       	std	Y+11, r19	; 0x0b
    3ebe:	8b 81       	ldd	r24, Y+3	; 0x03
    3ec0:	8c 87       	std	Y+12, r24	; 0x0c
    3ec2:	9c 81       	ldd	r25, Y+4	; 0x04
    3ec4:	9d 87       	std	Y+13, r25	; 0x0d
    3ec6:	bd 81       	ldd	r27, Y+5	; 0x05
    3ec8:	ae 81       	ldd	r26, Y+6	; 0x06
    3eca:	e1 e0       	ldi	r30, 0x01	; 1
    3ecc:	ef 87       	std	Y+15, r30	; 0x0f
    3ece:	ff ef       	ldi	r31, 0xFF	; 255
    3ed0:	6f 1a       	sub	r6, r31
    3ed2:	7f 0a       	sbc	r7, r31
    3ed4:	8f 0a       	sbc	r8, r31
    3ed6:	f3 01       	movw	r30, r6
    3ed8:	14 91       	lpm	r17, Z
    3eda:	87 fc       	sbrc	r8, 7
    3edc:	10 81       	ld	r17, Z
    3ede:	01 e0       	ldi	r16, 0x01	; 1
    3ee0:	2f 81       	ldd	r18, Y+7	; 0x07
    3ee2:	29 83       	std	Y+1, r18	; 0x01
    3ee4:	59 84       	ldd	r5, Y+9	; 0x09
    3ee6:	9a 84       	ldd	r9, Y+10	; 0x0a
    3ee8:	3b 85       	ldd	r19, Y+11	; 0x0b
    3eea:	3a 83       	std	Y+2, r19	; 0x02
    3eec:	8c 85       	ldd	r24, Y+12	; 0x0c
    3eee:	8b 83       	std	Y+3, r24	; 0x03
    3ef0:	9d 85       	ldd	r25, Y+13	; 0x0d
    3ef2:	9c 83       	std	Y+4, r25	; 0x04
    3ef4:	bd 83       	std	Y+5, r27	; 0x05
    3ef6:	ae 83       	std	Y+6, r26	; 0x06
    3ef8:	53 cf       	rjmp	.-346    	; 0x3da0 <__strtoxll+0x1de>
    3efa:	ef 85       	ldd	r30, Y+15	; 0x0f
    3efc:	e1 11       	cpse	r30, r1
    3efe:	15 c0       	rjmp	.+42     	; 0x3f2a <__strtoxll+0x368>
    3f00:	fe 85       	ldd	r31, Y+14	; 0x0e
    3f02:	ff 23       	and	r31, r31
    3f04:	91 f0       	breq	.+36     	; 0x3f2a <__strtoxll+0x368>
    3f06:	29 81       	ldd	r18, Y+1	; 0x01
    3f08:	35 2d       	mov	r19, r5
    3f0a:	49 2d       	mov	r20, r9
    3f0c:	5a 81       	ldd	r21, Y+2	; 0x02
    3f0e:	6b 81       	ldd	r22, Y+3	; 0x03
    3f10:	7c 81       	ldd	r23, Y+4	; 0x04
    3f12:	8d 81       	ldd	r24, Y+5	; 0x05
    3f14:	9e 81       	ldd	r25, Y+6	; 0x06
    3f16:	0e 94 f7 37 	call	0x6fee	; 0x6fee <__negdi2>
    3f1a:	29 83       	std	Y+1, r18	; 0x01
    3f1c:	53 2e       	mov	r5, r19
    3f1e:	94 2e       	mov	r9, r20
    3f20:	5a 83       	std	Y+2, r21	; 0x02
    3f22:	6b 83       	std	Y+3, r22	; 0x03
    3f24:	7c 83       	std	Y+4, r23	; 0x04
    3f26:	8d 83       	std	Y+5, r24	; 0x05
    3f28:	9e 83       	std	Y+6, r25	; 0x06
    3f2a:	28 89       	ldd	r18, Y+16	; 0x10
    3f2c:	39 89       	ldd	r19, Y+17	; 0x11
    3f2e:	23 2b       	or	r18, r19
    3f30:	41 f1       	breq	.+80     	; 0x3f82 <__strtoxll+0x3c0>
    3f32:	00 23       	and	r16, r16
    3f34:	81 f0       	breq	.+32     	; 0x3f56 <__strtoxll+0x394>
    3f36:	13 01       	movw	r2, r6
    3f38:	48 2c       	mov	r4, r8
    3f3a:	0d c0       	rjmp	.+26     	; 0x3f56 <__strtoxll+0x394>
    3f3c:	e8 89       	ldd	r30, Y+16	; 0x10
    3f3e:	f9 89       	ldd	r31, Y+17	; 0x11
    3f40:	ef 2b       	or	r30, r31
    3f42:	09 f4       	brne	.+2      	; 0x3f46 <__strtoxll+0x384>
    3f44:	d3 ce       	rjmp	.-602    	; 0x3cec <__strtoxll+0x12a>
    3f46:	19 82       	std	Y+1, r1	; 0x01
    3f48:	51 2c       	mov	r5, r1
    3f4a:	91 2c       	mov	r9, r1
    3f4c:	1a 82       	std	Y+2, r1	; 0x02
    3f4e:	1b 82       	std	Y+3, r1	; 0x03
    3f50:	1c 82       	std	Y+4, r1	; 0x04
    3f52:	1d 82       	std	Y+5, r1	; 0x05
    3f54:	1e 82       	std	Y+6, r1	; 0x06
    3f56:	e8 89       	ldd	r30, Y+16	; 0x10
    3f58:	f9 89       	ldd	r31, Y+17	; 0x11
    3f5a:	20 82       	st	Z, r2
    3f5c:	31 82       	std	Z+1, r3	; 0x01
    3f5e:	42 82       	std	Z+2, r4	; 0x02
    3f60:	10 c0       	rjmp	.+32     	; 0x3f82 <__strtoxll+0x3c0>
    3f62:	e8 2c       	mov	r14, r8
    3f64:	63 01       	movw	r12, r6
    3f66:	00 e0       	ldi	r16, 0x00	; 0
    3f68:	20 e1       	ldi	r18, 0x10	; 16
    3f6a:	30 e0       	ldi	r19, 0x00	; 0
    3f6c:	3c 8f       	std	Y+28, r19	; 0x1c
    3f6e:	2b 8f       	std	Y+27, r18	; 0x1b
    3f70:	05 c0       	rjmp	.+10     	; 0x3f7c <__strtoxll+0x3ba>
    3f72:	01 e0       	ldi	r16, 0x01	; 1
    3f74:	88 e0       	ldi	r24, 0x08	; 8
    3f76:	90 e0       	ldi	r25, 0x00	; 0
    3f78:	9c 8f       	std	Y+28, r25	; 0x1c
    3f7a:	8b 8f       	std	Y+27, r24	; 0x1b
    3f7c:	36 01       	movw	r6, r12
    3f7e:	8e 2c       	mov	r8, r14
    3f80:	d4 ce       	rjmp	.-600    	; 0x3d2a <__strtoxll+0x168>
    3f82:	29 81       	ldd	r18, Y+1	; 0x01
    3f84:	35 2d       	mov	r19, r5
    3f86:	49 2d       	mov	r20, r9
    3f88:	5a 81       	ldd	r21, Y+2	; 0x02
    3f8a:	6b 81       	ldd	r22, Y+3	; 0x03
    3f8c:	7c 81       	ldd	r23, Y+4	; 0x04
    3f8e:	8d 81       	ldd	r24, Y+5	; 0x05
    3f90:	9e 81       	ldd	r25, Y+6	; 0x06
    3f92:	6c 96       	adiw	r28, 0x1c	; 28
    3f94:	e2 e1       	ldi	r30, 0x12	; 18
    3f96:	0c 94 1a 36 	jmp	0x6c34	; 0x6c34 <__epilogue_restores__>

Disassembly of section .text.strcpy:

0000704a <strcpy>:
    704a:	9a 01       	movw	r18, r20
    704c:	46 2f       	mov	r20, r22
    704e:	dc 01       	movw	r26, r24
    7050:	f9 01       	movw	r30, r18
    7052:	54 91       	lpm	r21, Z
    7054:	47 fd       	sbrc	r20, 7
    7056:	50 81       	ld	r21, Z
    7058:	5d 93       	st	X+, r21
    705a:	2f 5f       	subi	r18, 0xFF	; 255
    705c:	3f 4f       	sbci	r19, 0xFF	; 255
    705e:	4f 4f       	sbci	r20, 0xFF	; 255
    7060:	51 11       	cpse	r21, r1
    7062:	f6 cf       	rjmp	.-20     	; 0x7050 <strcpy+0x6>
    7064:	08 95       	ret

Disassembly of section .text.isalnum:

00006f3c <isalnum>:
    6f3c:	9c 01       	movw	r18, r24
    6f3e:	20 62       	ori	r18, 0x20	; 32
    6f40:	21 56       	subi	r18, 0x61	; 97
    6f42:	31 09       	sbc	r19, r1
    6f44:	2a 31       	cpi	r18, 0x1A	; 26
    6f46:	31 05       	cpc	r19, r1
    6f48:	50 f0       	brcs	.+20     	; 0x6f5e <isalnum+0x22>
    6f4a:	9c 01       	movw	r18, r24
    6f4c:	20 53       	subi	r18, 0x30	; 48
    6f4e:	31 09       	sbc	r19, r1
    6f50:	81 e0       	ldi	r24, 0x01	; 1
    6f52:	90 e0       	ldi	r25, 0x00	; 0
    6f54:	2a 30       	cpi	r18, 0x0A	; 10
    6f56:	31 05       	cpc	r19, r1
    6f58:	20 f0       	brcs	.+8      	; 0x6f62 <isalnum+0x26>
    6f5a:	80 e0       	ldi	r24, 0x00	; 0
    6f5c:	08 95       	ret
    6f5e:	81 e0       	ldi	r24, 0x01	; 1
    6f60:	90 e0       	ldi	r25, 0x00	; 0
    6f62:	08 95       	ret

Disassembly of section .text.__vfprintf:

00006d30 <__vfprintf>:
    6d30:	a2 e0       	ldi	r26, 0x02	; 2
    6d32:	b0 e0       	ldi	r27, 0x00	; 0
    6d34:	ee e9       	ldi	r30, 0x9E	; 158
    6d36:	f6 e3       	ldi	r31, 0x36	; 54
    6d38:	0c 94 fe 34 	jmp	0x69fc	; 0x69fc <__prologue_saves__+0x1c>
    6d3c:	8c 01       	movw	r16, r24
    6d3e:	3a 83       	std	Y+2, r19	; 0x02
    6d40:	29 83       	std	Y+1, r18	; 0x01
    6d42:	9e 01       	movw	r18, r28
    6d44:	2f 5f       	subi	r18, 0xFF	; 255
    6d46:	3f 4f       	sbci	r19, 0xFF	; 255
    6d48:	0e 94 d1 13 	call	0x27a2	; 0x27a2 <__printf_core>
    6d4c:	f8 01       	movw	r30, r16
    6d4e:	20 81       	ld	r18, Z
    6d50:	24 ff       	sbrs	r18, 4
    6d52:	02 c0       	rjmp	.+4      	; 0x6d58 <__vfprintf+0x28>
    6d54:	8f ef       	ldi	r24, 0xFF	; 255
    6d56:	9f ef       	ldi	r25, 0xFF	; 255
    6d58:	22 96       	adiw	r28, 0x02	; 2
    6d5a:	e4 e0       	ldi	r30, 0x04	; 4
    6d5c:	0c 94 28 36 	jmp	0x6c50	; 0x6c50 <__epilogue_restores__+0x1c>

Disassembly of section .text.avrlibc:

00007136 <eeprom_read_byte>:
    7136:	cb 01       	movw	r24, r22
    7138:	e1 99       	sbic	0x1c, 1	; 28
    713a:	fe cf       	rjmp	.-4      	; 0x7138 <eeprom_read_byte+0x2>
    713c:	9f bb       	out	0x1f, r25	; 31
    713e:	8e bb       	out	0x1e, r24	; 30
    7140:	e0 9a       	sbi	0x1c, 0	; 28
    7142:	99 27       	eor	r25, r25
    7144:	8d b3       	in	r24, 0x1d	; 29
    7146:	08 95       	ret

Disassembly of section .text.avrlibc:

0000709c <eeprom_write_byte>:
    709c:	26 2f       	mov	r18, r22

0000709e <eeprom_write_r18>:
    709e:	e1 99       	sbic	0x1c, 1	; 28
    70a0:	fe cf       	rjmp	.-4      	; 0x709e <eeprom_write_r18>
    70a2:	9f bb       	out	0x1f, r25	; 31
    70a4:	8e bb       	out	0x1e, r24	; 30
    70a6:	2d bb       	out	0x1d, r18	; 29
    70a8:	0f b6       	in	r0, 0x3f	; 63
    70aa:	f8 94       	cli
    70ac:	e2 9a       	sbi	0x1c, 2	; 28
    70ae:	e1 9a       	sbi	0x1c, 1	; 28
    70b0:	0f be       	out	0x3f, r0	; 63
    70b2:	01 96       	adiw	r24, 0x01	; 1
    70b4:	08 95       	ret

Disassembly of section .text.libgcc.mul:

00005a8a <__muldi3>:
    5a8a:	df 93       	push	r29
    5a8c:	cf 93       	push	r28
    5a8e:	1f 93       	push	r17
    5a90:	0f 93       	push	r16
    5a92:	9a 9d       	mul	r25, r10
    5a94:	f0 2d       	mov	r31, r0
    5a96:	21 9f       	mul	r18, r17
    5a98:	f0 0d       	add	r31, r0
    5a9a:	8b 9d       	mul	r24, r11
    5a9c:	f0 0d       	add	r31, r0
    5a9e:	8a 9d       	mul	r24, r10
    5aa0:	e0 2d       	mov	r30, r0
    5aa2:	f1 0d       	add	r31, r1
    5aa4:	03 9f       	mul	r16, r19
    5aa6:	f0 0d       	add	r31, r0
    5aa8:	02 9f       	mul	r16, r18
    5aaa:	e0 0d       	add	r30, r0
    5aac:	f1 1d       	adc	r31, r1
    5aae:	4e 9d       	mul	r20, r14
    5ab0:	e0 0d       	add	r30, r0
    5ab2:	f1 1d       	adc	r31, r1
    5ab4:	5e 9d       	mul	r21, r14
    5ab6:	f0 0d       	add	r31, r0
    5ab8:	4f 9d       	mul	r20, r15
    5aba:	f0 0d       	add	r31, r0
    5abc:	7f 93       	push	r23
    5abe:	6f 93       	push	r22
    5ac0:	bf 92       	push	r11
    5ac2:	af 92       	push	r10
    5ac4:	5f 93       	push	r21
    5ac6:	4f 93       	push	r20
    5ac8:	d5 01       	movw	r26, r10
    5aca:	0e 94 16 38 	call	0x702c	; 0x702c <__umulhisi3>
    5ace:	8b 01       	movw	r16, r22
    5ad0:	ac 01       	movw	r20, r24
    5ad2:	d7 01       	movw	r26, r14
    5ad4:	0e 94 16 38 	call	0x702c	; 0x702c <__umulhisi3>
    5ad8:	eb 01       	movw	r28, r22
    5ada:	e8 0f       	add	r30, r24
    5adc:	f9 1f       	adc	r31, r25
    5ade:	d6 01       	movw	r26, r12
    5ae0:	0e 94 a4 38 	call	0x7148	; 0x7148 <__muldi3_6>
    5ae4:	2f 91       	pop	r18
    5ae6:	3f 91       	pop	r19
    5ae8:	d6 01       	movw	r26, r12
    5aea:	0e 94 16 38 	call	0x702c	; 0x702c <__umulhisi3>
    5aee:	c6 0f       	add	r28, r22
    5af0:	d7 1f       	adc	r29, r23
    5af2:	e8 1f       	adc	r30, r24
    5af4:	f9 1f       	adc	r31, r25
    5af6:	af 91       	pop	r26
    5af8:	bf 91       	pop	r27
    5afa:	0e 94 a4 38 	call	0x7148	; 0x7148 <__muldi3_6>
    5afe:	2f 91       	pop	r18
    5b00:	3f 91       	pop	r19
    5b02:	0e 94 16 38 	call	0x702c	; 0x702c <__umulhisi3>
    5b06:	c6 0f       	add	r28, r22
    5b08:	d7 1f       	adc	r29, r23
    5b0a:	e8 1f       	adc	r30, r24
    5b0c:	f9 1f       	adc	r31, r25
    5b0e:	d6 01       	movw	r26, r12
    5b10:	0e 94 16 38 	call	0x702c	; 0x702c <__umulhisi3>
    5b14:	e6 0f       	add	r30, r22
    5b16:	f7 1f       	adc	r31, r23
    5b18:	98 01       	movw	r18, r16
    5b1a:	be 01       	movw	r22, r28
    5b1c:	cf 01       	movw	r24, r30
    5b1e:	11 24       	eor	r1, r1
    5b20:	0f 91       	pop	r16
    5b22:	1f 91       	pop	r17
    5b24:	cf 91       	pop	r28
    5b26:	df 91       	pop	r29
    5b28:	08 95       	ret

Disassembly of section .text.libgcc.mul:

00007148 <__muldi3_6>:
    7148:	0e 94 16 38 	call	0x702c	; 0x702c <__umulhisi3>
    714c:	46 0f       	add	r20, r22
    714e:	57 1f       	adc	r21, r23
    7150:	c8 1f       	adc	r28, r24
    7152:	d9 1f       	adc	r29, r25
    7154:	08 f4       	brcc	.+2      	; 0x7158 <__muldi3_6+0x10>
    7156:	31 96       	adiw	r30, 0x01	; 1
    7158:	08 95       	ret

Disassembly of section .text.libgcc.div:

00007066 <__umoddi3>:
    7066:	68 94       	set
    7068:	01 c0       	rjmp	.+2      	; 0x706c <__udivdi3_umoddi3>

0000706a <__udivdi3>:
    706a:	e8 94       	clt

0000706c <__udivdi3_umoddi3>:
    706c:	8f 92       	push	r8
    706e:	9f 92       	push	r9
    7070:	cf 93       	push	r28
    7072:	df 93       	push	r29
    7074:	0e 94 f4 2c 	call	0x59e8	; 0x59e8 <__udivmod64>
    7078:	df 91       	pop	r29
    707a:	cf 91       	pop	r28
    707c:	9f 90       	pop	r9
    707e:	8f 90       	pop	r8
    7080:	08 95       	ret

Disassembly of section .text.libgcc.div:

000059e8 <__udivmod64>:
    59e8:	88 24       	eor	r8, r8
    59ea:	99 24       	eor	r9, r9
    59ec:	f4 01       	movw	r30, r8
    59ee:	e4 01       	movw	r28, r8
    59f0:	b0 e4       	ldi	r27, 0x40	; 64
    59f2:	9f 93       	push	r25
    59f4:	aa 27       	eor	r26, r26
    59f6:	9a 15       	cp	r25, r10
    59f8:	8b 04       	cpc	r8, r11
    59fa:	9c 04       	cpc	r9, r12
    59fc:	ed 05       	cpc	r30, r13
    59fe:	fe 05       	cpc	r31, r14
    5a00:	cf 05       	cpc	r28, r15
    5a02:	d0 07       	cpc	r29, r16
    5a04:	a1 07       	cpc	r26, r17
    5a06:	98 f4       	brcc	.+38     	; 0x5a2e <__udivmod64+0x46>
    5a08:	ad 2f       	mov	r26, r29
    5a0a:	dc 2f       	mov	r29, r28
    5a0c:	cf 2f       	mov	r28, r31
    5a0e:	fe 2f       	mov	r31, r30
    5a10:	e9 2d       	mov	r30, r9
    5a12:	98 2c       	mov	r9, r8
    5a14:	89 2e       	mov	r8, r25
    5a16:	98 2f       	mov	r25, r24
    5a18:	87 2f       	mov	r24, r23
    5a1a:	76 2f       	mov	r23, r22
    5a1c:	65 2f       	mov	r22, r21
    5a1e:	54 2f       	mov	r21, r20
    5a20:	43 2f       	mov	r20, r19
    5a22:	32 2f       	mov	r19, r18
    5a24:	22 27       	eor	r18, r18
    5a26:	b8 50       	subi	r27, 0x08	; 8
    5a28:	31 f7       	brne	.-52     	; 0x59f6 <__udivmod64+0xe>
    5a2a:	bf 91       	pop	r27
    5a2c:	27 c0       	rjmp	.+78     	; 0x5a7c <__udivmod64+0x94>
    5a2e:	1b 2e       	mov	r1, r27
    5a30:	bf 91       	pop	r27
    5a32:	bb 27       	eor	r27, r27
    5a34:	22 0f       	add	r18, r18
    5a36:	33 1f       	adc	r19, r19
    5a38:	44 1f       	adc	r20, r20
    5a3a:	55 1f       	adc	r21, r21
    5a3c:	66 1f       	adc	r22, r22
    5a3e:	77 1f       	adc	r23, r23
    5a40:	88 1f       	adc	r24, r24
    5a42:	99 1f       	adc	r25, r25
    5a44:	88 1c       	adc	r8, r8
    5a46:	99 1c       	adc	r9, r9
    5a48:	ee 1f       	adc	r30, r30
    5a4a:	ff 1f       	adc	r31, r31
    5a4c:	cc 1f       	adc	r28, r28
    5a4e:	dd 1f       	adc	r29, r29
    5a50:	aa 1f       	adc	r26, r26
    5a52:	bb 1f       	adc	r27, r27
    5a54:	8a 14       	cp	r8, r10
    5a56:	9b 04       	cpc	r9, r11
    5a58:	ec 05       	cpc	r30, r12
    5a5a:	fd 05       	cpc	r31, r13
    5a5c:	ce 05       	cpc	r28, r14
    5a5e:	df 05       	cpc	r29, r15
    5a60:	a0 07       	cpc	r26, r16
    5a62:	b1 07       	cpc	r27, r17
    5a64:	48 f0       	brcs	.+18     	; 0x5a78 <__udivmod64+0x90>
    5a66:	8a 18       	sub	r8, r10
    5a68:	9b 08       	sbc	r9, r11
    5a6a:	ec 09       	sbc	r30, r12
    5a6c:	fd 09       	sbc	r31, r13
    5a6e:	ce 09       	sbc	r28, r14
    5a70:	df 09       	sbc	r29, r15
    5a72:	a0 0b       	sbc	r26, r16
    5a74:	b1 0b       	sbc	r27, r17
    5a76:	21 60       	ori	r18, 0x01	; 1
    5a78:	1a 94       	dec	r1
    5a7a:	e1 f6       	brne	.-72     	; 0x5a34 <__udivmod64+0x4c>
    5a7c:	2e f4       	brtc	.+10     	; 0x5a88 <__udivmod64+0xa0>
    5a7e:	94 01       	movw	r18, r8
    5a80:	af 01       	movw	r20, r30
    5a82:	be 01       	movw	r22, r28
    5a84:	cd 01       	movw	r24, r26
    5a86:	00 0c       	add	r0, r0
    5a88:	08 95       	ret

Disassembly of section .text.libgcc:

00006fee <__negdi2>:
    6fee:	60 95       	com	r22
    6ff0:	70 95       	com	r23
    6ff2:	80 95       	com	r24
    6ff4:	90 95       	com	r25
    6ff6:	30 95       	com	r19
    6ff8:	40 95       	com	r20
    6ffa:	50 95       	com	r21
    6ffc:	21 95       	neg	r18
    6ffe:	3f 4f       	sbci	r19, 0xFF	; 255
    7000:	4f 4f       	sbci	r20, 0xFF	; 255
    7002:	5f 4f       	sbci	r21, 0xFF	; 255
    7004:	6f 4f       	sbci	r22, 0xFF	; 255
    7006:	7f 4f       	sbci	r23, 0xFF	; 255
    7008:	8f 4f       	sbci	r24, 0xFF	; 255
    700a:	9f 4f       	sbci	r25, 0xFF	; 255
    700c:	08 95       	ret

Disassembly of section .text.libgcc.prologue:

000069e0 <__prologue_saves__>:
    69e0:	2f 92       	push	r2
    69e2:	3f 92       	push	r3
    69e4:	4f 92       	push	r4
    69e6:	5f 92       	push	r5
    69e8:	6f 92       	push	r6
    69ea:	7f 92       	push	r7
    69ec:	8f 92       	push	r8
    69ee:	9f 92       	push	r9
    69f0:	af 92       	push	r10
    69f2:	bf 92       	push	r11
    69f4:	cf 92       	push	r12
    69f6:	df 92       	push	r13
    69f8:	ef 92       	push	r14
    69fa:	ff 92       	push	r15
    69fc:	0f 93       	push	r16
    69fe:	1f 93       	push	r17
    6a00:	cf 93       	push	r28
    6a02:	df 93       	push	r29
    6a04:	cd b7       	in	r28, 0x3d	; 61
    6a06:	de b7       	in	r29, 0x3e	; 62
    6a08:	ca 1b       	sub	r28, r26
    6a0a:	db 0b       	sbc	r29, r27
    6a0c:	0f b6       	in	r0, 0x3f	; 63
    6a0e:	f8 94       	cli
    6a10:	de bf       	out	0x3e, r29	; 62
    6a12:	0f be       	out	0x3f, r0	; 63
    6a14:	cd bf       	out	0x3d, r28	; 61
    6a16:	09 94       	ijmp

Disassembly of section .text.libgcc.prologue:

00006c34 <__epilogue_restores__>:
    6c34:	2a 88       	ldd	r2, Y+18	; 0x12
    6c36:	39 88       	ldd	r3, Y+17	; 0x11
    6c38:	48 88       	ldd	r4, Y+16	; 0x10
    6c3a:	5f 84       	ldd	r5, Y+15	; 0x0f
    6c3c:	6e 84       	ldd	r6, Y+14	; 0x0e
    6c3e:	7d 84       	ldd	r7, Y+13	; 0x0d
    6c40:	8c 84       	ldd	r8, Y+12	; 0x0c
    6c42:	9b 84       	ldd	r9, Y+11	; 0x0b
    6c44:	aa 84       	ldd	r10, Y+10	; 0x0a
    6c46:	b9 84       	ldd	r11, Y+9	; 0x09
    6c48:	c8 84       	ldd	r12, Y+8	; 0x08
    6c4a:	df 80       	ldd	r13, Y+7	; 0x07
    6c4c:	ee 80       	ldd	r14, Y+6	; 0x06
    6c4e:	fd 80       	ldd	r15, Y+5	; 0x05
    6c50:	0c 81       	ldd	r16, Y+4	; 0x04
    6c52:	1b 81       	ldd	r17, Y+3	; 0x03
    6c54:	aa 81       	ldd	r26, Y+2	; 0x02
    6c56:	b9 81       	ldd	r27, Y+1	; 0x01
    6c58:	ce 0f       	add	r28, r30
    6c5a:	d1 1d       	adc	r29, r1
    6c5c:	0f b6       	in	r0, 0x3f	; 63
    6c5e:	f8 94       	cli
    6c60:	de bf       	out	0x3e, r29	; 62
    6c62:	0f be       	out	0x3f, r0	; 63
    6c64:	cd bf       	out	0x3d, r28	; 61
    6c66:	ed 01       	movw	r28, r26
    6c68:	08 95       	ret

Disassembly of section .text.libgcc.builtins:

0000696c <__ashrdi3>:
    696c:	97 fb       	bst	r25, 7
    696e:	10 f8       	bld	r1, 0

00006970 <__lshrdi3>:
    6970:	16 94       	lsr	r1
    6972:	00 08       	sbc	r0, r0
    6974:	0f 93       	push	r16
    6976:	08 30       	cpi	r16, 0x08	; 8
    6978:	98 f0       	brcs	.+38     	; 0x69a0 <__lshrdi3+0x30>
    697a:	08 50       	subi	r16, 0x08	; 8
    697c:	23 2f       	mov	r18, r19
    697e:	34 2f       	mov	r19, r20
    6980:	45 2f       	mov	r20, r21
    6982:	56 2f       	mov	r21, r22
    6984:	67 2f       	mov	r22, r23
    6986:	78 2f       	mov	r23, r24
    6988:	89 2f       	mov	r24, r25
    698a:	90 2d       	mov	r25, r0
    698c:	f4 cf       	rjmp	.-24     	; 0x6976 <__lshrdi3+0x6>
    698e:	05 94       	asr	r0
    6990:	97 95       	ror	r25
    6992:	87 95       	ror	r24
    6994:	77 95       	ror	r23
    6996:	67 95       	ror	r22
    6998:	57 95       	ror	r21
    699a:	47 95       	ror	r20
    699c:	37 95       	ror	r19
    699e:	27 95       	ror	r18
    69a0:	0a 95       	dec	r16
    69a2:	aa f7       	brpl	.-22     	; 0x698e <__lshrdi3+0x1e>
    69a4:	0f 91       	pop	r16
    69a6:	08 95       	ret

Disassembly of section .text.libgcc:

0000715a <__adddi3>:
    715a:	2a 0d       	add	r18, r10
    715c:	3b 1d       	adc	r19, r11
    715e:	4c 1d       	adc	r20, r12
    7160:	5d 1d       	adc	r21, r13
    7162:	6e 1d       	adc	r22, r14
    7164:	7f 1d       	adc	r23, r15
    7166:	80 1f       	adc	r24, r16
    7168:	91 1f       	adc	r25, r17
    716a:	08 95       	ret

Disassembly of section .text.libgcc:

0000716c <__cmpdi2>:
    716c:	2a 15       	cp	r18, r10
    716e:	3b 05       	cpc	r19, r11
    7170:	4c 05       	cpc	r20, r12
    7172:	5d 05       	cpc	r21, r13
    7174:	6e 05       	cpc	r22, r14
    7176:	7f 05       	cpc	r23, r15
    7178:	80 07       	cpc	r24, r16
    717a:	91 07       	cpc	r25, r17
    717c:	08 95       	ret

Disassembly of section .text.libgcc:

000070ce <__cmpdi2_s8>:
    70ce:	00 24       	eor	r0, r0
    70d0:	a7 fd       	sbrc	r26, 7
    70d2:	00 94       	com	r0
    70d4:	2a 17       	cp	r18, r26
    70d6:	30 05       	cpc	r19, r0
    70d8:	40 05       	cpc	r20, r0
    70da:	50 05       	cpc	r21, r0
    70dc:	60 05       	cpc	r22, r0
    70de:	70 05       	cpc	r23, r0
    70e0:	80 05       	cpc	r24, r0
    70e2:	90 05       	cpc	r25, r0
    70e4:	08 95       	ret
